

Microchip MPLAB XC8 Assembler V2.46 build 20240104201356 
                                                                                               Sat Jun 08 11:32:29 2024

Microchip MPLAB XC8 C Compiler v2.46 (Free license) build 20240104201356 Og1 
     1                           	processor	18F4620
     2                           	fnconf	rparam,??,?,0
     3                           	pagewidth 120
     4                           	opt	flic
     5                           	psect	idataCOMRAM,global,class=CODE,delta=1,noexec
     6                           	psect	idataBANK0,global,class=CODE,delta=1,noexec
     7                           	psect	idataBANK1,global,class=CODE,delta=1,noexec
     8                           	psect	smallconst,global,reloc=2,class=SMALLCONST,delta=1,noexec
     9                           	psect	cinit,global,reloc=2,class=CODE,delta=1
    10                           	psect	bssCOMRAM,global,class=COMRAM,space=1,delta=1,lowdata,noexec
    11                           	psect	dataCOMRAM,global,class=COMRAM,space=1,delta=1,lowdata,noexec
    12                           	psect	bssBANK0,global,class=BANK0,space=1,delta=1,lowdata,noexec
    13                           	psect	dataBANK0,global,class=BANK0,space=1,delta=1,lowdata,noexec
    14                           	psect	dataBANK1,global,class=BANK1,space=1,delta=1,lowdata,noexec
    15                           	psect	cstackBANK1,global,class=BANK1,space=1,delta=1,lowdata,noexec
    16                           	psect	cstackBANK0,global,class=BANK0,space=1,delta=1,lowdata,noexec
    17                           	psect	cstackCOMRAM,global,class=COMRAM,space=1,delta=1,lowdata,noexec
    18                           	psect	text0,global,reloc=2,class=CODE,delta=1
    19                           	psect	text1,global,reloc=2,class=CODE,delta=1
    20                           	psect	text2,global,reloc=2,class=CODE,delta=1
    21                           	psect	text3,global,reloc=2,class=CODE,delta=1
    22                           	psect	text4,global,reloc=2,class=CODE,delta=1
    23                           	psect	text5,global,reloc=2,class=CODE,delta=1
    24                           	psect	text6,global,reloc=2,class=CODE,delta=1
    25                           	psect	text7,global,reloc=2,class=CODE,delta=1
    26                           	psect	text8,global,reloc=2,class=CODE,delta=1
    27                           	psect	text9,global,reloc=2,class=CODE,delta=1
    28                           	psect	text10,global,reloc=2,class=CODE,delta=1
    29                           	psect	text11,global,reloc=2,class=CODE,delta=1,inline
    30                           	psect	text12,global,reloc=2,class=CODE,delta=1,inline
    31                           	psect	text13,global,reloc=2,class=CODE,delta=1,inline
    32                           	psect	text14,global,reloc=2,class=CODE,delta=1,group=1
    33                           	psect	text15,global,reloc=2,class=CODE,delta=1,group=1
    34                           	psect	text16,global,reloc=2,class=CODE,delta=1,group=1
    35                           	psect	text17,global,reloc=2,class=CODE,delta=1,group=1
    36                           	psect	text18,global,reloc=2,class=CODE,delta=1
    37                           	psect	text19,global,reloc=2,class=CODE,delta=1
    38                           	psect	text20,global,reloc=2,class=CODE,delta=1
    39                           	psect	text21,global,reloc=2,class=CODE,delta=1
    40                           	psect	text22,global,reloc=2,class=CODE,delta=1
    41                           	psect	text23,global,reloc=2,class=CODE,delta=1
    42                           	psect	text24,global,reloc=2,class=CODE,delta=1,inline
    43                           	psect	text25,global,reloc=2,class=CODE,delta=1,inline
    44                           	psect	text26,global,reloc=2,class=CODE,delta=1,inline
    45                           	psect	text27,global,reloc=2,class=CODE,delta=1
    46                           	psect	text28,global,reloc=2,class=CODE,delta=1
    47                           	psect	text29,global,reloc=2,class=CODE,delta=1
    48                           	psect	text30,global,reloc=2,class=CODE,delta=1
    49                           	psect	text31,global,reloc=2,class=CODE,delta=1
    50                           	psect	intcode,global,reloc=2,class=CODE,delta=1
    51                           	psect	intcode_body,global,reloc=2,class=CODE,delta=1
    52                           	psect	text33,global,reloc=2,class=CODE,delta=1
    53                           	psect	text34,global,reloc=2,class=CODE,delta=1
    54                           	psect	text35,global,reloc=2,class=CODE,delta=1
    55                           	psect	text36,global,reloc=2,class=CODE,delta=1
    56                           	psect	text37,global,reloc=2,class=CODE,delta=1
    57                           	psect	text38,global,reloc=2,class=CODE,delta=1,group=1
    58                           	psect	text39,global,reloc=2,class=CODE,delta=1,group=1
    59                           	psect	text40,global,reloc=2,class=CODE,delta=1
    60                           	psect	text41,global,reloc=2,class=CODE,delta=1
    61                           	psect	text42,global,reloc=2,class=CODE,delta=1
    62                           	psect	text43,global,reloc=2,class=CODE,delta=1,inline
    63                           	psect	text44,global,reloc=2,class=CODE,delta=1
    64                           	psect	text45,global,reloc=2,class=CODE,delta=1
    65                           	psect	text46,global,reloc=2,class=CODE,delta=1
    66                           	psect	text47,global,reloc=2,class=CODE,delta=1
    67                           	psect	text48,global,reloc=2,class=CODE,delta=1
    68                           	psect	text49,global,reloc=2,class=CODE,delta=1
    69                           	psect	text50,global,reloc=2,class=CODE,delta=1
    70                           	psect	text51,global,reloc=2,class=CODE,delta=1
    71                           	psect	text52,global,reloc=2,class=CODE,delta=1
    72                           	psect	text53,global,reloc=2,class=CODE,delta=1
    73                           	psect	text54,global,reloc=2,class=CODE,delta=1
    74                           	psect	intsave_regs,global,class=BIGRAM,space=1,delta=1,noexec
    75                           	psect	rparam,global,class=COMRAM,space=1,delta=1,noexec
    76                           	psect	temp,global,ovrld,common,class=COMRAM,space=1,delta=1,lowdata
    77                           	psect	config,global,abs,ovrld,class=CONFIG,space=4,delta=1,noexec
    78   000000                     
    79                           ; Generated 23/03/2023 GMT
    80                           ; 
    81                           ; Copyright © 2023, Microchip Technology Inc. and its subsidiaries ("Microchip")
    82                           ; All rights reserved.
    83                           ; 
    84                           ; This software is developed by Microchip Technology Inc. and its subsidiaries ("Microch
      +                          ip").
    85                           ; 
    86                           ; Redistribution and use in source and binary forms, with or without modification, are
    87                           ; permitted provided that the following conditions are met:
    88                           ; 
    89                           ;     1. Redistributions of source code must retain the above copyright notice, this lis
      +                          t of
    90                           ;        conditions and the following disclaimer.
    91                           ; 
    92                           ;     2. Redistributions in binary form must reproduce the above copyright notice, this 
      +                          list
    93                           ;        of conditions and the following disclaimer in the documentation and/or other
    94                           ;        materials provided with the distribution. Publication is not required when
    95                           ;        this file is used in an embedded application.
    96                           ; 
    97                           ;     3. Microchip's name may not be used to endorse or promote products derived from th
      +                          is
    98                           ;        software without specific prior written permission.
    99                           ; 
   100                           ; THIS SOFTWARE IS PROVIDED BY MICROCHIP "AS IS" AND ANY EXPRESS OR IMPLIED WARRANTIES,
   101                           ; INCLUDING, BUT NOT LIMITED TO, THE IMPLIED WARRANTIES OF MERCHANTABILITY AND FITNESS F
      +                          OR
   102                           ; PURPOSE ARE DISCLAIMED.  IN NO EVENT SHALL MICROCHIP BE LIABLE FOR ANY DIRECT, INDIREC
      +                          T,
   103                           ; INCIDENTAL, SPECIAL, EXEMPLARY, OR CONSEQUENTIAL DAMAGES (INCLUDING BUT NOT LIMITED TO
   104                           ; PROCUREMENT OF SUBSTITUTE GOODS OR SERVICES; LOSS OF USE, DATA OR PROFITS; OR BUSINESS
   105                           ; INTERRUPTION) HOWSOEVER CAUSED AND ON ANY THEORY OF LIABILITY, WHETHER IN CONTRACT, ST
      +                          RICT
   106                           ; LIABILITY, OR TORT (INCLUDING NEGLIGENCE OR OTHERWISE) ARISING IN ANY WAY OUT OF THE U
      +                          SE OF
   107                           ; THIS SOFTWARE, EVEN IF ADVISED OF THE POSSIBILITY OF SUCH DAMAGE.
   108                           ; 
   109                           ; 
   110                           ; Code-generator required, PIC18F4620 Definitions
   111                           ; 
   112                           ; SFR Addresses
   113   000000                     
   114                           	psect	idataCOMRAM
   115   004032                     __pidataCOMRAM:
   116                           	callstack 0
   117                           
   118                           ;initializer for timer0_ModeConfigure@F3124
   119   004032  60                 	db	96
   120                           
   121                           ;initializer for _RB7_flag
   122   004033  01                 	db	1
   123                           
   124                           ;initializer for _RB6_flag
   125   004034  01                 	db	1
   126                           
   127                           ;initializer for _RB5_flag
   128   004035  01                 	db	1
   129                           
   130                           ;initializer for _RB4_flag
   131   004036  01                 	db	1
   132                           
   133                           ;initializer for _CCP2_PIN_PWM_MODE
   134   004037  0A                 	db	10
   135                           
   136                           ;initializer for _CCP1_PIN_PWM_MODE
   137   004038  12                 	db	18
   138                           
   139                           	psect	idataBANK0
   140   003F37                     __pidataBANK0:
   141                           	callstack 0
   142                           
   143                           ;initializer for _lat_regs
   144   003F37  89                 	db	137
   145   003F38  0F                 	db	15
   146   003F39  8A                 	db	138
   147   003F3A  0F                 	db	15
   148   003F3B  8B                 	db	139
   149   003F3C  0F                 	db	15
   150   003F3D  8C                 	db	140
   151   003F3E  0F                 	db	15
   152   003F3F  8D                 	db	141
   153   003F40  0F                 	db	15
   154                           
   155                           ;initializer for _tris_regs
   156   003F41  92                 	db	146
   157   003F42  0F                 	db	15
   158   003F43  93                 	db	147
   159   003F44  0F                 	db	15
   160   003F45  94                 	db	148
   161   003F46  0F                 	db	15
   162   003F47  95                 	db	149
   163   003F48  0F                 	db	15
   164   003F49  96                 	db	150
   165   003F4A  0F                 	db	15
   166                           
   167                           ;initializer for _room_2_AC
   168   003F4B  03                 	db	3
   169   003F4C  06                 	db	6
   170   003F4D  00                 	db	0
   171                           
   172                           ;initializer for _room_2_light
   173   003F4E  03                 	db	3
   174   003F4F  05                 	db	5
   175   003F50  00                 	db	0
   176                           
   177                           ;initializer for _room_1_AC
   178   003F51  03                 	db	3
   179   003F52  04                 	db	4
   180   003F53  00                 	db	0
   181                           
   182                           ;initializer for _room_1_light
   183   003F54  03                 	db	3
   184   003F55  03                 	db	3
   185   003F56  00                 	db	0
   186                           
   187                           ;initializer for _reseption_TV
   188   003F57  03                 	db	3
   189   003F58  02                 	db	2
   190   003F59  00                 	db	0
   191                           
   192                           ;initializer for _reseption_AC
   193   003F5A  03                 	db	3
   194   003F5B  01                 	db	1
   195   003F5C  00                 	db	0
   196                           
   197                           ;initializer for _reseption_light
   198   003F5D  03                 	db	3
   199   003F5E  00                 	db	0
   200   003F5F  00                 	db	0
   201                           
   202                           	psect	idataBANK1
   203   003F04                     __pidataBANK1:
   204                           	callstack 0
   205                           
   206                           ;initializer for _port_regs
   207   003F04  80                 	db	128
   208   003F05  0F                 	db	15
   209   003F06  81                 	db	129
   210   003F07  0F                 	db	15
   211   003F08  82                 	db	130
   212   003F09  0F                 	db	15
   213   003F0A  83                 	db	131
   214   003F0B  0F                 	db	15
   215   003F0C  84                 	db	132
   216   003F0D  0F                 	db	15
   217                           
   218                           ;initializer for _master_uart
   219   003F0E  2580               	dw	9600
   220   003F10  00                 	db	0
   221   003F11  60                 	db	96
   222   003F12  60                 	db	96
   223   003F13  00                 	db	0
   224   003F14  00                 	db	0
   225   003F15  00                 	db	0
   226   003F16  BE                 	db	low _EUSART_RXDefaultInterruptHandler
   227   003F17  21                 	db	high _EUSART_RXDefaultInterruptHandler
   228   003F18  00                 	db	0
   229   003F19  00                 	db	0
   230   003F1A  00                 	db	0
   231   003F1B  00                 	db	0
   232                           
   233                           ;initializer for _timer0_obj
   234   003F1C  8C                 	db	low _TIMER0_InterruptHandler
   235   003F1D  3B                 	db	high _TIMER0_InterruptHandler
   236   003F1E  00                 	db	0
   237   003F1F  00                 	db	0
   238   003F20  00                 	db	0
   239   003F21  01                 	db	1
   240   003F22  04                 	db	4
   241   003F23  0BDC               	dw	3036
   242                           
   243                           ;initializer for _lm35_room2
   244   003F25  00                 	db	0
   245   003F26  00                 	db	0
   246   003F27  05                 	db	5
   247   003F28  05                 	db	5
   248   003F29  02                 	db	2
   249   003F2A  02                 	db	2
   250                           
   251                           ;initializer for _lm35_room1
   252   003F2B  00                 	db	0
   253   003F2C  00                 	db	0
   254   003F2D  05                 	db	5
   255   003F2E  05                 	db	5
   256   003F2F  01                 	db	1
   257   003F30  02                 	db	2
   258                           
   259                           ;initializer for _lm35_reseption
   260   003F31  00                 	db	0
   261   003F32  00                 	db	0
   262   003F33  05                 	db	5
   263   003F34  05                 	db	5
   264   003F35  00                 	db	0
   265   003F36  02                 	db	2
   266                           
   267                           	psect	smallconst
   268   001000                     __psmallconst:
   269                           	callstack 0
   270   001000  00                 	db	0
   271   001001                     _KEY_PAD_BTN_VALUES:
   272                           	callstack 0
   273   001001  31                 	db	49
   274   001002  32                 	db	50
   275   001003  33                 	db	51
   276   001004  34                 	db	52
   277   001005  35                 	db	53
   278   001006  36                 	db	54
   279   001007  37                 	db	55
   280   001008  38                 	db	56
   281   001009  39                 	db	57
   282   00100A  2A                 	db	42
   283   00100B  30                 	db	48
   284   00100C  23                 	db	35
   285   00100D                     __end_of_KEY_PAD_BTN_VALUES:
   286                           	callstack 0
   287   000000                     _TMR3L	set	4018
   288   000000                     _TMR3H	set	4019
   289   000000                     _T3CONbits	set	4017
   290   000000                     _TMR2	set	4044
   291   000000                     _T2CONbits	set	4042
   292   000000                     _T1CONbits	set	4045
   293   000000                     _T0CONbits	set	4053
   294   000000                     _INTCON2bits	set	4081
   295   000000                     _INTCON3bits	set	4080
   296   000000                     _SSPADD	set	4040
   297   000000                     _SSPBUF	set	4041
   298   000000                     _SSPSTATbits	set	4039
   299   000000                     _SSPCON2bits	set	4037
   300   000000                     _SSPCON1bits	set	4038
   301   000000                     _SPBRGH	set	4016
   302   000000                     _SPBRG	set	4015
   303   000000                     _BAUDCONbits	set	4024
   304   000000                     _TXREG	set	4013
   305   000000                     _TXSTAbits	set	4012
   306   000000                     _RCREG	set	4014
   307   000000                     _TRISCbits	set	3988
   308   000000                     _RCSTAbits	set	4011
   309   000000                     _EECON2	set	4007
   310   000000                     _PR2	set	4043
   311   000000                     _INTCONbits	set	4082
   312   000000                     _ADCON1bits	set	4033
   313   000000                     _ADRESL	set	4035
   314   000000                     _ADRESH	set	4036
   315   000000                     _TRISD	set	3989
   316   000000                     _TRISB	set	3987
   317   000000                     _TRISE	set	3990
   318   000000                     _TRISC	set	3988
   319   000000                     _PIE1bits	set	3997
   320   000000                     _ADCON2bits	set	4032
   321   000000                     _ADCON0bits	set	4034
   322   000000                     _PORTE	set	3972
   323   000000                     _PORTD	set	3971
   324   000000                     _PORTC	set	3970
   325   000000                     _PORTB	set	3969
   326   000000                     _PORTA	set	3968
   327   000000                     _LATA	set	3977
   328   000000                     _TRISA	set	3986
   329   000000                     _PIE2bits	set	4000
   330   000000                     _CCP2CONbits	set	4026
   331   000000                     _CCP1CONbits	set	4029
   332   000000                     _PIR1bits	set	3998
   333   000000                     _CCPR1L	set	4030
   334   000000                     _CCPR2L	set	4027
   335   000000                     _EECON1bits	set	4006
   336   000000                     _EEDATA	set	4008
   337   000000                     _EEADR	set	4009
   338   000000                     _EEADRH	set	4010
   339   000000                     _PIR2bits	set	4001
   340   000000                     _LATE	set	3981
   341   000000                     _LATD	set	3980
   342   000000                     _LATC	set	3979
   343   000000                     _LATB	set	3978
   344   000000                     _TMR0H	set	4055
   345   000000                     _TMR0L	set	4054
   346   000000                     _TMR1H	set	4047
   347   000000                     _TMR1L	set	4046
   348   00100D                     STR_1:
   349   00100D  25                 	db	37
   350   00100E  69                 	db	105	;'i'
   351   00100F  00                 	db	0
   352   001010  25                 	db	37
   353   001011  75                 	db	117	;'u'
   354   001012  00                 	db	0
   355   001013  00                 	db	0	; dummy byte at the end
   356   000000                     
   357                           ; #config settings
   358                           
   359                           	psect	cinit
   360   003702                     __pcinit:
   361                           	callstack 0
   362   003702                     start_initialization:
   363                           	callstack 0
   364   003702                     __initialization:
   365                           	callstack 0
   366                           
   367                           ; Initialize objects allocated to BANK1 (51 bytes)
   368                           ; load TBLPTR registers with __pidataBANK1
   369   003702  0E04               	movlw	low __pidataBANK1
   370   003704  6EF6               	movwf	tblptrl,c
   371   003706  0E3F               	movlw	high __pidataBANK1
   372   003708  6EF7               	movwf	tblptrh,c
   373   00370A  0E00               	movlw	low (__pidataBANK1 shr (0+16))
   374   00370C  6EF8               	movwf	tblptru,c
   375   00370E  EE01  F000         	lfsr	0,__pdataBANK1
   376   003712  EE10 F033          	lfsr	1,51
   377   003716                     copy_data0:
   378   003716  0009               	tblrd		*+
   379   003718  CFF5 FFEE          	movff	tablat,postinc0
   380   00371C  50E5               	movf	postdec1,w,c
   381   00371E  50E1               	movf	fsr1l,w,c
   382   003720  E1FA               	bnz	copy_data0
   383                           
   384                           ; Initialize objects allocated to BANK0 (41 bytes)
   385                           ; load TBLPTR registers with __pidataBANK0
   386   003722  0E37               	movlw	low __pidataBANK0
   387   003724  6EF6               	movwf	tblptrl,c
   388   003726  0E3F               	movlw	high __pidataBANK0
   389   003728  6EF7               	movwf	tblptrh,c
   390   00372A  0E00               	movlw	low (__pidataBANK0 shr (0+16))
   391   00372C  6EF8               	movwf	tblptru,c
   392   00372E  EE00  F0BD         	lfsr	0,__pdataBANK0
   393   003732  EE10 F029          	lfsr	1,41
   394   003736                     copy_data1:
   395   003736  0009               	tblrd		*+
   396   003738  CFF5 FFEE          	movff	tablat,postinc0
   397   00373C  50E5               	movf	postdec1,w,c
   398   00373E  50E1               	movf	fsr1l,w,c
   399   003740  E1FA               	bnz	copy_data1
   400                           
   401                           ; Initialize objects allocated to COMRAM (7 bytes)
   402                           ; load TBLPTR registers with __pidataCOMRAM
   403   003742  0E32               	movlw	low __pidataCOMRAM
   404   003744  6EF6               	movwf	tblptrl,c
   405   003746  0E40               	movlw	high __pidataCOMRAM
   406   003748  6EF7               	movwf	tblptrh,c
   407   00374A  0E00               	movlw	low (__pidataCOMRAM shr (0+16))
   408   00374C  6EF8               	movwf	tblptru,c
   409   00374E  EE00  F070         	lfsr	0,__pdataCOMRAM
   410   003752  EE10 F007          	lfsr	1,7
   411   003756                     copy_data2:
   412   003756  0009               	tblrd		*+
   413   003758  CFF5 FFEE          	movff	tablat,postinc0
   414   00375C  50E5               	movf	postdec1,w,c
   415   00375E  50E1               	movf	fsr1l,w,c
   416   003760  E1FA               	bnz	copy_data2
   417                           
   418                           ; Clear objects allocated to BANK0 (25 bytes)
   419   003762  EE00  F0E6         	lfsr	0,__pbssBANK0
   420   003766  0E19               	movlw	25
   421   003768                     clear_0:
   422   003768  6AEE               	clrf	postinc0,c
   423   00376A  06E8               	decf	wreg,f,c
   424   00376C  E1FD               	bnz	clear_0
   425                           
   426                           ; Clear objects allocated to COMRAM (51 bytes)
   427   00376E  EE00  F03D         	lfsr	0,__pbssCOMRAM
   428   003772  0E33               	movlw	51
   429   003774                     clear_1:
   430   003774  6AEE               	clrf	postinc0,c
   431   003776  06E8               	decf	wreg,f,c
   432   003778  E1FD               	bnz	clear_1
   433   00377A                     end_of_initialization:
   434                           	callstack 0
   435   00377A                     __end_of__initialization:
   436                           	callstack 0
   437   00377A  9077               	bcf	int$flags,0,c	;clear compiler interrupt flag (level 1)
   438   00377C  9277               	bcf	int$flags,1,c	;clear compiler interrupt flag (level 2)
   439   00377E  0100               	movlb	0
   440   003780  EF0C  F020         	goto	_main	;jump to C main() function
   441                           
   442                           	psect	bssCOMRAM
   443   00003D                     __pbssCOMRAM:
   444                           	callstack 0
   445   00003D                     _Timer3_InterruptHandler:
   446                           	callstack 0
   447   00003D                     	ds	2
   448   00003F                     _g_timer3_preload_value:
   449                           	callstack 0
   450   00003F                     	ds	2
   451   000041                     _TIMER2_InterruptHandler:
   452                           	callstack 0
   453   000041                     	ds	2
   454   000043                     _timer1_preload_value:
   455                           	callstack 0
   456   000043                     	ds	2
   457   000045                     _TIMER1_InterruptHandler:
   458                           	callstack 0
   459   000045                     	ds	2
   460   000047                     _Timer0_InterruptHandler:
   461                           	callstack 0
   462   000047                     	ds	2
   463   000049                     _g_timer0_preload_value:
   464                           	callstack 0
   465   000049                     	ds	2
   466   00004B                     _RB7_InterruptHandler_Low:
   467                           	callstack 0
   468   00004B                     	ds	2
   469   00004D                     _RB7_InterruptHandler_High:
   470                           	callstack 0
   471   00004D                     	ds	2
   472   00004F                     _RB6_InterruptHandler_Low:
   473                           	callstack 0
   474   00004F                     	ds	2
   475   000051                     _RB6_InterruptHandler_High:
   476                           	callstack 0
   477   000051                     	ds	2
   478   000053                     _RB5_InterruptHandler_Low:
   479                           	callstack 0
   480   000053                     	ds	2
   481   000055                     _RB5_InterruptHandler_High:
   482                           	callstack 0
   483   000055                     	ds	2
   484   000057                     _RB4_InterruptHandler_Low:
   485                           	callstack 0
   486   000057                     	ds	2
   487   000059                     _RB4_InterruptHandler_High:
   488                           	callstack 0
   489   000059                     	ds	2
   490   00005B                     _INT2_InterruptHandler:
   491                           	callstack 0
   492   00005B                     	ds	2
   493   00005D                     _INT1_InterruptHandler:
   494                           	callstack 0
   495   00005D                     	ds	2
   496   00005F                     _INT0_InterruptHandler:
   497                           	callstack 0
   498   00005F                     	ds	2
   499   000061                     _EUSART_ASYNC_OverRunErrorHandler:
   500                           	callstack 0
   501   000061                     	ds	2
   502   000063                     _EUSART_ASYNC_FramingErrorHandler:
   503                           	callstack 0
   504   000063                     	ds	2
   505   000065                     _EUSART_ASYNC_RX_InterruptHandler:
   506                           	callstack 0
   507   000065                     	ds	2
   508   000067                     _EUSART_ASYNC_TX_InterruptHandler:
   509                           	callstack 0
   510   000067                     	ds	2
   511   000069                     _CCP1_InterruptHandler:
   512                           	callstack 0
   513   000069                     	ds	2
   514   00006B                     _ADC_InterruptHandler:
   515                           	callstack 0
   516   00006B                     	ds	2
   517   00006D                     _timer2_preload:
   518                           	callstack 0
   519   00006D                     	ds	1
   520   00006E                     led_turn_toggle@F3073:
   521                           	callstack 0
   522   00006E                     	ds	1
   523   00006F                     _euart_val:
   524                           	callstack 0
   525   00006F                     	ds	1
   526                           
   527                           	psect	dataCOMRAM
   528   000070                     __pdataCOMRAM:
   529                           	callstack 0
   530   000070                     timer0_ModeConfigure@F3124:
   531                           	callstack 0
   532   000070                     	ds	1
   533   000071                     _RB7_flag:
   534                           	callstack 0
   535   000071                     	ds	1
   536   000072                     _RB6_flag:
   537                           	callstack 0
   538   000072                     	ds	1
   539   000073                     _RB5_flag:
   540                           	callstack 0
   541   000073                     	ds	1
   542   000074                     _RB4_flag:
   543                           	callstack 0
   544   000074                     	ds	1
   545   000075                     _CCP2_PIN_PWM_MODE:
   546                           	callstack 0
   547   000075                     	ds	1
   548   000076                     _CCP1_PIN_PWM_MODE:
   549                           	callstack 0
   550   000076                     	ds	1
   551                           
   552                           	psect	bssBANK0
   553   0000E6                     __pbssBANK0:
   554                           	callstack 0
   555   0000E6                     CCP_Init@F3233:
   556                           	callstack 0
   557   0000E6                     	ds	4
   558   0000EA                     CCP_Init@F3222:
   559                           	callstack 0
   560   0000EA                     	ds	4
   561   0000EE                     _CCP2_InterruptHandler:
   562                           	callstack 0
   563   0000EE                     	ds	2
   564   0000F0                     _r2_ac:
   565                           	callstack 0
   566   0000F0                     	ds	1
   567   0000F1                     _r1_ac:
   568                           	callstack 0
   569   0000F1                     	ds	1
   570   0000F2                     _re_ac:
   571                           	callstack 0
   572   0000F2                     	ds	1
   573   0000F3                     led_turn_off@F3068:
   574                           	callstack 0
   575   0000F3                     	ds	1
   576   0000F4                     led_turn_on@F3063:
   577                           	callstack 0
   578   0000F4                     	ds	1
   579   0000F5                     led_initialize@F3058:
   580                           	callstack 0
   581   0000F5                     	ds	1
   582   0000F6                     _r2_temp:
   583                           	callstack 0
   584   0000F6                     	ds	2
   585   0000F8                     _r1_temp:
   586                           	callstack 0
   587   0000F8                     	ds	2
   588   0000FA                     _re_temp:
   589                           	callstack 0
   590   0000FA                     	ds	2
   591   0000FC                     _r2_ac_temp:
   592                           	callstack 0
   593   0000FC                     	ds	1
   594   0000FD                     _r1_ac_temp:
   595                           	callstack 0
   596   0000FD                     	ds	1
   597   0000FE                     _re_ac_temp:
   598                           	callstack 0
   599   0000FE                     	ds	1
   600                           
   601                           	psect	dataBANK0
   602   0000BD                     __pdataBANK0:
   603                           	callstack 0
   604   0000BD                     _lat_regs:
   605                           	callstack 0
   606   0000BD                     	ds	10
   607   0000C7                     _tris_regs:
   608                           	callstack 0
   609   0000C7                     	ds	10
   610   0000D1                     _room_2_AC:
   611                           	callstack 0
   612   0000D1                     	ds	3
   613   0000D4                     _room_2_light:
   614                           	callstack 0
   615   0000D4                     	ds	3
   616   0000D7                     _room_1_AC:
   617                           	callstack 0
   618   0000D7                     	ds	3
   619   0000DA                     _room_1_light:
   620                           	callstack 0
   621   0000DA                     	ds	3
   622   0000DD                     _reseption_TV:
   623                           	callstack 0
   624   0000DD                     	ds	3
   625   0000E0                     _reseption_AC:
   626                           	callstack 0
   627   0000E0                     	ds	3
   628   0000E3                     _reseption_light:
   629                           	callstack 0
   630   0000E3                     	ds	3
   631                           
   632                           	psect	dataBANK1
   633   000100                     __pdataBANK1:
   634                           	callstack 0
   635   000100                     _port_regs:
   636                           	callstack 0
   637   000100                     	ds	10
   638   00010A                     _master_uart:
   639                           	callstack 0
   640   00010A                     	ds	14
   641   000118                     _timer0_obj:
   642                           	callstack 0
   643   000118                     	ds	9
   644   000121                     _lm35_room2:
   645                           	callstack 0
   646   000121                     	ds	6
   647   000127                     _lm35_room1:
   648                           	callstack 0
   649   000127                     	ds	6
   650   00012D                     _lm35_reseption:
   651                           	callstack 0
   652   00012D                     	ds	6
   653                           
   654                           	psect	cstackBANK1
   655   000133                     __pcstackBANK1:
   656                           	callstack 0
   657   000133                     _eusart_async_baudrate_calculation$5232:
   658                           	callstack 0
   659                           
   660                           ; 4 bytes @ 0x0
   661   000133                     	ds	4
   662   000137                     eusart_async_baudrate_calculation@BRG_value:
   663                           	callstack 0
   664                           
   665                           ; 4 bytes @ 0x4
   666   000137                     	ds	4
   667                           
   668                           	psect	cstackBANK0
   669   000080                     __pcstackBANK0:
   670                           	callstack 0
   671   000080                     ??_adc_input_cahnnel_port_configure:
   672   000080                     ?___fltol:
   673                           	callstack 0
   674   000080                     ?___xxtofl:
   675                           	callstack 0
   676   000080                     gpio_pin_direction_init@_pin_config:
   677                           	callstack 0
   678   000080                     gpio_pin_write_logic@_pin_config:
   679                           	callstack 0
   680   000080                     adc_configure_result_format@adc_obj:
   681                           	callstack 0
   682   000080                     adc_configure_voltage_refrence@adc_obj:
   683                           	callstack 0
   684   000080                     Interrupt_ADC_Init@adc_obj:
   685                           	callstack 0
   686   000080                     eusart_async_tx_configure@_eusart:
   687                           	callstack 0
   688   000080                     eusart_async_rx_configure@_eusart:
   689                           	callstack 0
   690   000080                     timer0_ResolutionConfigure@timer0_obj:
   691                           	callstack 0
   692   000080                     timer0_PreScalerValueConfigure@timer0_obj:
   693                           	callstack 0
   694   000080                     timer0_PreLoadConfigure@timer0_obj:
   695                           	callstack 0
   696   000080                     timer0_InterruptConfigure@timer0_obj:
   697                           	callstack 0
   698   000080                     ___fltol@f1:
   699                           	callstack 0
   700   000080                     ___xxtofl@val:
   701                           	callstack 0
   702                           
   703                           ; 4 bytes @ 0x0
   704   000080                     	ds	1
   705   000081                     ??_gpio_pin_direction_init:
   706   000081                     gpio_pin_write_logic@logic:
   707                           	callstack 0
   708                           
   709                           ; 1 bytes @ 0x1
   710   000081                     	ds	1
   711   000082                     ??_gpio_pin_write_logic:
   712   000082                     ??_timer0_PreLoadConfigure:
   713   000082                     ??_timer0_PreScalerValueConfigure:
   714   000082                     adc_input_cahnnel_port_configure@channel:
   715                           	callstack 0
   716                           
   717                           ; 1 bytes @ 0x2
   718   000082                     	ds	1
   719   000083                     timer0_ResolutionConfigure@error_state:
   720                           	callstack 0
   721                           
   722                           ; 1 bytes @ 0x3
   723   000083                     	ds	1
   724   000084                     ??___fltol:
   725   000084                     ??___xxtofl:
   726   000084                     Interrupt_ADC_Init@error_state:
   727                           	callstack 0
   728   000084                     timer0_PreLoadConfigure@error_state:
   729                           	callstack 0
   730   000084                     timer0_InterruptConfigure@error_state:
   731                           	callstack 0
   732   000084                     timer0_PreScalerConfigure@timer0_obj:
   733                           	callstack 0
   734                           
   735                           ; 2 bytes @ 0x4
   736   000084                     	ds	1
   737   000085                     ADC_Init@adc_obj:
   738                           	callstack 0
   739                           
   740                           ; 2 bytes @ 0x5
   741   000085                     	ds	1
   742   000086                     gpio_pin_direction_init@error_state:
   743                           	callstack 0
   744                           
   745                           ; 1 bytes @ 0x6
   746   000086                     	ds	1
   747   000087                     ??_ADC_Init:
   748   000087                     gpio_pin_write_logic@error_state:
   749                           	callstack 0
   750   000087                     timer0_PreScalerConfigure@error_state:
   751                           	callstack 0
   752   000087                     timer0_ModeConfigure@timer0_obj:
   753                           	callstack 0
   754                           
   755                           ; 2 bytes @ 0x7
   756   000087                     	ds	1
   757   000088                     led_turn_on@led:
   758                           	callstack 0
   759   000088                     led_turn_off@led:
   760                           	callstack 0
   761   000088                     ADC_Init@error_state:
   762                           	callstack 0
   763   000088                     gpio_pin_init@_pin_config:
   764                           	callstack 0
   765   000088                     ___fltol@sign1:
   766                           	callstack 0
   767   000088                     ___xxtofl@sign:
   768                           	callstack 0
   769                           
   770                           ; 1 bytes @ 0x8
   771   000088                     	ds	1
   772   000089                     ??_led_turn_on:
   773   000089                     ??_led_turn_off:
   774   000089                     gpio_pin_init@error_state:
   775                           	callstack 0
   776   000089                     ___fltol@exp1:
   777                           	callstack 0
   778   000089                     ___xxtofl@exp:
   779                           	callstack 0
   780   000089                     LM35_Init@adc_obj:
   781                           	callstack 0
   782                           
   783                           ; 2 bytes @ 0x9
   784   000089                     	ds	1
   785   00008A                     led_initialize@led:
   786                           	callstack 0
   787   00008A                     led_turn_on@pin_obj:
   788                           	callstack 0
   789   00008A                     led_turn_off@pin_obj:
   790                           	callstack 0
   791   00008A                     timer0_ModeConfigure@timer0_External_Clock_Input_Pin:
   792                           	callstack 0
   793   00008A                     ___xxtofl@arg:
   794                           	callstack 0
   795                           
   796                           ; 4 bytes @ 0xA
   797   00008A                     	ds	1
   798   00008B                     ??_AirConditioner_TempHandler:
   799   00008B                     ??_led_initialize:
   800   00008B                     timer0_ModeConfigure@error_state:
   801                           	callstack 0
   802                           
   803                           ; 1 bytes @ 0xB
   804   00008B                     	ds	1
   805   00008C                     led_initialize@pin_obj:
   806                           	callstack 0
   807   00008C                     Timer0_Init@timer0_obj:
   808                           	callstack 0
   809                           
   810                           ; 2 bytes @ 0xC
   811   00008C                     	ds	1
   812   00008D                     
   813                           ; 1 bytes @ 0xD
   814   00008D                     	ds	1
   815   00008E                     ?___fldiv:
   816                           	callstack 0
   817   00008E                     ___fldiv@b:
   818                           	callstack 0
   819                           
   820                           ; 4 bytes @ 0xE
   821   00008E                     	ds	4
   822   000092                     ___fldiv@a:
   823                           	callstack 0
   824                           
   825                           ; 4 bytes @ 0x12
   826   000092                     	ds	4
   827   000096                     ??___fldiv:
   828                           
   829                           ; 1 bytes @ 0x16
   830   000096                     	ds	4
   831   00009A                     ___fldiv@rem:
   832                           	callstack 0
   833                           
   834                           ; 4 bytes @ 0x1A
   835   00009A                     	ds	4
   836   00009E                     ___fldiv@sign:
   837                           	callstack 0
   838                           
   839                           ; 1 bytes @ 0x1E
   840   00009E                     	ds	1
   841   00009F                     ___fldiv@new_exp:
   842                           	callstack 0
   843                           
   844                           ; 2 bytes @ 0x1F
   845   00009F                     	ds	2
   846   0000A1                     ___fldiv@grs:
   847                           	callstack 0
   848                           
   849                           ; 4 bytes @ 0x21
   850   0000A1                     	ds	4
   851   0000A5                     ___fldiv@bexp:
   852                           	callstack 0
   853                           
   854                           ; 1 bytes @ 0x25
   855   0000A5                     	ds	1
   856   0000A6                     ___fldiv@aexp:
   857                           	callstack 0
   858                           
   859                           ; 1 bytes @ 0x26
   860   0000A6                     	ds	1
   861   0000A7                     ?___fladd:
   862                           	callstack 0
   863   0000A7                     ___fladd@b:
   864                           	callstack 0
   865                           
   866                           ; 4 bytes @ 0x27
   867   0000A7                     	ds	4
   868   0000AB                     ___fladd@a:
   869                           	callstack 0
   870                           
   871                           ; 4 bytes @ 0x2B
   872   0000AB                     	ds	4
   873   0000AF                     ??___fladd:
   874                           
   875                           ; 1 bytes @ 0x2F
   876   0000AF                     	ds	4
   877   0000B3                     ___fladd@signs:
   878                           	callstack 0
   879                           
   880                           ; 1 bytes @ 0x33
   881   0000B3                     	ds	1
   882   0000B4                     ___fladd@aexp:
   883                           	callstack 0
   884                           
   885                           ; 1 bytes @ 0x34
   886   0000B4                     	ds	1
   887   0000B5                     ___fladd@bexp:
   888                           	callstack 0
   889                           
   890                           ; 1 bytes @ 0x35
   891   0000B5                     	ds	1
   892   0000B6                     ___fladd@grs:
   893                           	callstack 0
   894                           
   895                           ; 1 bytes @ 0x36
   896   0000B6                     	ds	1
   897   0000B7                     eusart_async_baudrate_calculation@_eusart:
   898                           	callstack 0
   899                           
   900                           ; 2 bytes @ 0x37
   901   0000B7                     	ds	2
   902   0000B9                     ??_eusart_async_baudrate_calculation:
   903                           
   904                           ; 1 bytes @ 0x39
   905   0000B9                     	ds	2
   906   0000BB                     EUSART_ASYNC_Init@_eusart:
   907                           	callstack 0
   908                           
   909                           ; 2 bytes @ 0x3B
   910   0000BB                     	ds	2
   911   0000BD                     
   912                           ; 1 bytes @ 0x3D
   913                           
   914                           	psect	cstackCOMRAM
   915   000001                     __pcstackCOMRAM:
   916                           	callstack 0
   917   000001                     ??i2_adc_input_cahnnel_port_configure:
   918   000001                     ?___lwdiv:
   919                           	callstack 0
   920   000001                     ?i2___xxtofl:
   921                           	callstack 0
   922   000001                     EUSART_ASYNC_ReadByteBlocking@_data:
   923                           	callstack 0
   924   000001                     EUSART_ASYNC_ReadByteNonBlocking@_data:
   925                           	callstack 0
   926   000001                     EUSART_ASYNC_WrireByteBlocking@data:
   927                           	callstack 0
   928   000001                     i2gpio_pin_write_logic@_pin_config:
   929                           	callstack 0
   930   000001                     ADC_StartConversion@adc_obj:
   931                           	callstack 0
   932   000001                     ADC_GetConversionResult@adc_obj:
   933                           	callstack 0
   934   000001                     ___lwdiv@dividend:
   935                           	callstack 0
   936   000001                     i2___xxtofl@val:
   937                           	callstack 0
   938                           
   939                           ; 4 bytes @ 0x0
   940   000001                     	ds	1
   941   000002                     i2gpio_pin_write_logic@logic:
   942                           	callstack 0
   943                           
   944                           ; 1 bytes @ 0x1
   945   000002                     	ds	1
   946   000003                     ??i2_gpio_pin_write_logic:
   947   000003                     ADC_StartConversion@error_state:
   948                           	callstack 0
   949   000003                     ADC_GetConversionResult@conversion_result:
   950                           	callstack 0
   951   000003                     i2adc_input_cahnnel_port_configure@channel:
   952                           	callstack 0
   953   000003                     ___lwdiv@divisor:
   954                           	callstack 0
   955                           
   956                           ; 2 bytes @ 0x2
   957   000003                     	ds	1
   958   000004                     ??_ADC_GetConversionResult:
   959   000004                     ADC_SelectChannel@adc_obj:
   960                           	callstack 0
   961                           
   962                           ; 2 bytes @ 0x3
   963   000004                     	ds	1
   964   000005                     ??i2___xxtofl:
   965   000005                     ___lwdiv@quotient:
   966                           	callstack 0
   967                           
   968                           ; 2 bytes @ 0x4
   969   000005                     	ds	1
   970   000006                     ADC_SelectChannel@channel:
   971                           	callstack 0
   972                           
   973                           ; 1 bytes @ 0x5
   974   000006                     	ds	1
   975   000007                     ??_ADC_SelectChannel:
   976   000007                     ADC_GetConversionResult@error_state:
   977                           	callstack 0
   978   000007                     ___lwdiv@counter:
   979                           	callstack 0
   980                           
   981                           ; 1 bytes @ 0x6
   982   000007                     	ds	1
   983   000008                     ADC_SelectChannel@error_state:
   984                           	callstack 0
   985   000008                     i2gpio_pin_write_logic@error_state:
   986                           	callstack 0
   987                           
   988                           ; 1 bytes @ 0x7
   989   000008                     	ds	1
   990   000009                     i2led_turn_on@led:
   991                           	callstack 0
   992   000009                     i2led_turn_off@led:
   993                           	callstack 0
   994   000009                     i2___xxtofl@sign:
   995                           	callstack 0
   996   000009                     ADC_GetConversion_Blocking@adc_obj:
   997                           	callstack 0
   998                           
   999                           ; 2 bytes @ 0x8
  1000   000009                     	ds	1
  1001   00000A                     ??i2_led_turn_on:
  1002   00000A                     ??i2_led_turn_off:
  1003   00000A                     i2___xxtofl@exp:
  1004                           	callstack 0
  1005                           
  1006                           ; 1 bytes @ 0x9
  1007   00000A                     	ds	1
  1008   00000B                     ADC_GetConversion_Blocking@channel:
  1009                           	callstack 0
  1010   00000B                     i2led_turn_on@pin_obj:
  1011                           	callstack 0
  1012   00000B                     i2led_turn_off@pin_obj:
  1013                           	callstack 0
  1014   00000B                     i2___xxtofl@arg:
  1015                           	callstack 0
  1016                           
  1017                           ; 4 bytes @ 0xA
  1018   00000B                     	ds	1
  1019   00000C                     ADC_GetConversion_Blocking@conversion_result:
  1020                           	callstack 0
  1021                           
  1022                           ; 1 bytes @ 0xB
  1023   00000C                     	ds	1
  1024   00000D                     ADC_GetConversion_Blocking@l_conversion_status:
  1025                           	callstack 0
  1026                           
  1027                           ; 1 bytes @ 0xC
  1028   00000D                     	ds	1
  1029   00000E                     ADC_GetConversion_Blocking@error_state:
  1030                           	callstack 0
  1031                           
  1032                           ; 1 bytes @ 0xD
  1033   00000E                     	ds	1
  1034   00000F                     ?___flmul:
  1035                           	callstack 0
  1036   00000F                     ___flmul@b:
  1037                           	callstack 0
  1038                           
  1039                           ; 4 bytes @ 0xE
  1040   00000F                     	ds	4
  1041   000013                     ___flmul@a:
  1042                           	callstack 0
  1043                           
  1044                           ; 4 bytes @ 0x12
  1045   000013                     	ds	4
  1046   000017                     ??___flmul:
  1047                           
  1048                           ; 1 bytes @ 0x16
  1049   000017                     	ds	4
  1050   00001B                     ___flmul@sign:
  1051                           	callstack 0
  1052                           
  1053                           ; 1 bytes @ 0x1A
  1054   00001B                     	ds	1
  1055   00001C                     ___flmul@grs:
  1056                           	callstack 0
  1057                           
  1058                           ; 4 bytes @ 0x1B
  1059   00001C                     	ds	4
  1060   000020                     ___flmul@aexp:
  1061                           	callstack 0
  1062                           
  1063                           ; 1 bytes @ 0x1F
  1064   000020                     	ds	1
  1065   000021                     ___flmul@bexp:
  1066                           	callstack 0
  1067                           
  1068                           ; 1 bytes @ 0x20
  1069   000021                     	ds	1
  1070   000022                     ___flmul@prod:
  1071                           	callstack 0
  1072                           
  1073                           ; 4 bytes @ 0x21
  1074   000022                     	ds	4
  1075   000026                     ___flmul@temp:
  1076                           	callstack 0
  1077                           
  1078                           ; 2 bytes @ 0x25
  1079   000026                     	ds	2
  1080   000028                     ?i2___fltol:
  1081                           	callstack 0
  1082   000028                     i2___fltol@f1:
  1083                           	callstack 0
  1084                           
  1085                           ; 4 bytes @ 0x27
  1086   000028                     	ds	4
  1087   00002C                     ??i2___fltol:
  1088                           
  1089                           ; 1 bytes @ 0x2B
  1090   00002C                     	ds	4
  1091   000030                     i2___fltol@sign1:
  1092                           	callstack 0
  1093                           
  1094                           ; 1 bytes @ 0x2F
  1095   000030                     	ds	1
  1096   000031                     i2___fltol@exp1:
  1097                           	callstack 0
  1098                           
  1099                           ; 1 bytes @ 0x30
  1100   000031                     	ds	1
  1101   000032                     LM35_GetTempCelsius@adc_obj:
  1102                           	callstack 0
  1103                           
  1104                           ; 2 bytes @ 0x31
  1105   000032                     	ds	2
  1106   000034                     LM35_GetTempCelsius@Temp_celsius_res:
  1107                           	callstack 0
  1108                           
  1109                           ; 1 bytes @ 0x33
  1110   000034                     	ds	1
  1111   000035                     LM35_GetTempCelsius@l_conversion_res:
  1112                           	callstack 0
  1113                           
  1114                           ; 2 bytes @ 0x34
  1115   000035                     	ds	2
  1116   000037                     ??_InterruptManager:
  1117                           
  1118                           ; 1 bytes @ 0x36
  1119   000037                     	ds	6
  1120                           
  1121 ;;
  1122 ;;Main: autosize = 0, tempsize = 0, incstack = 0, save=0
  1123 ;;
  1124 ;; *************** function _main *****************
  1125 ;; Defined at:
  1126 ;;		line 22 in file "application.c"
  1127 ;; Parameters:    Size  Location     Type
  1128 ;;		None
  1129 ;; Auto vars:     Size  Location     Type
  1130 ;;		None
  1131 ;; Return value:  Size  Location     Type
  1132 ;;                  1    wreg      void 
  1133 ;; Registers used:
  1134 ;;		wreg, fsr2l, fsr2h, status,2, status,0, prodl, prodh, cstack
  1135 ;; Tracked objects:
  1136 ;;		On entry : 0/0
  1137 ;;		On exit  : 0/0
  1138 ;;		Unchanged: 0/0
  1139 ;; Data sizes:     COMRAM   BANK0   BANK1   BANK2   BANK3   BANK4   BANK5   BANK6   BANK7   BANK8   BANK9  BANK10  BANK1
      +1  BANK12  BANK13  BANK14  BANK15
  1140 ;;      Params:         0       0       0       0       0       0       0       0       0       0       0       0       
      +0       0       0       0       0
  1141 ;;      Locals:         0       0       0       0       0       0       0       0       0       0       0       0       
      +0       0       0       0       0
  1142 ;;      Temps:          0       0       0       0       0       0       0       0       0       0       0       0       
      +0       0       0       0       0
  1143 ;;      Totals:         0       0       0       0       0       0       0       0       0       0       0       0       
      +0       0       0       0       0
  1144 ;;Total ram usage:        0 bytes
  1145 ;; Hardware stack levels required when called: 12
  1146 ;; This function calls:
  1147 ;;		_AirConditioner_TempHandler
  1148 ;;		_application_init
  1149 ;; This function is called by:
  1150 ;;		Startup code after reset
  1151 ;; This function uses a non-reentrant model
  1152 ;;
  1153                           
  1154                           	psect	text0
  1155   004018                     __ptext0:
  1156                           	callstack 0
  1157   004018                     _main:
  1158                           	callstack 19
  1159   004018                     
  1160                           ;application.c: 23:     application_init();
  1161   004018  EC14  F020         	call	_application_init	;wreg free
  1162   00401C                     l1637:
  1163                           
  1164                           ;application.c: 26:         AirConditioner_TempHandler();
  1165   00401C  EC1B  F014         	call	_AirConditioner_TempHandler	;wreg free
  1166   004020  EF0E  F020         	goto	l1637
  1167   004024  EF07  F000         	goto	start
  1168   004028                     __end_of_main:
  1169                           	callstack 0
  1170                           
  1171 ;; *************** function _application_init *****************
  1172 ;; Defined at:
  1173 ;;		line 32 in file "application.c"
  1174 ;; Parameters:    Size  Location     Type
  1175 ;;		None
  1176 ;; Auto vars:     Size  Location     Type
  1177 ;;		None
  1178 ;; Return value:  Size  Location     Type
  1179 ;;                  1    wreg      void 
  1180 ;; Registers used:
  1181 ;;		wreg, fsr2l, fsr2h, status,2, status,0, prodl, prodh, cstack
  1182 ;; Tracked objects:
  1183 ;;		On entry : 0/0
  1184 ;;		On exit  : 0/0
  1185 ;;		Unchanged: 0/0
  1186 ;; Data sizes:     COMRAM   BANK0   BANK1   BANK2   BANK3   BANK4   BANK5   BANK6   BANK7   BANK8   BANK9  BANK10  BANK1
      +1  BANK12  BANK13  BANK14  BANK15
  1187 ;;      Params:         0       0       0       0       0       0       0       0       0       0       0       0       
      +0       0       0       0       0
  1188 ;;      Locals:         0       0       0       0       0       0       0       0       0       0       0       0       
      +0       0       0       0       0
  1189 ;;      Temps:          0       0       0       0       0       0       0       0       0       0       0       0       
      +0       0       0       0       0
  1190 ;;      Totals:         0       0       0       0       0       0       0       0       0       0       0       0       
      +0       0       0       0       0
  1191 ;;Total ram usage:        0 bytes
  1192 ;; Hardware stack levels used: 1
  1193 ;; Hardware stack levels required when called: 11
  1194 ;; This function calls:
  1195 ;;		_ecu_layer_initialize
  1196 ;;		_mcal_layer_initialize
  1197 ;; This function is called by:
  1198 ;;		_main
  1199 ;; This function uses a non-reentrant model
  1200 ;;
  1201                           
  1202                           	psect	text1
  1203   004028                     __ptext1:
  1204                           	callstack 0
  1205   004028                     _application_init:
  1206                           	callstack 19
  1207   004028                     
  1208                           ;application.c: 33:     mcal_layer_initialize();
  1209   004028  ECD5  F01F         	call	_mcal_layer_initialize	;wreg free
  1210                           
  1211                           ;application.c: 34:     ecu_layer_initialize();
  1212   00402C  EC24  F01D         	call	_ecu_layer_initialize	;wreg free
  1213   004030  0012               	return		;funcret
  1214   004032                     __end_of_application_init:
  1215                           	callstack 0
  1216                           
  1217 ;; *************** function _mcal_layer_initialize *****************
  1218 ;; Defined at:
  1219 ;;		line 10 in file "MCAL_layer/mcal_layer_init.c"
  1220 ;; Parameters:    Size  Location     Type
  1221 ;;		None
  1222 ;; Auto vars:     Size  Location     Type
  1223 ;;		None
  1224 ;; Return value:  Size  Location     Type
  1225 ;;                  1    wreg      void 
  1226 ;; Registers used:
  1227 ;;		wreg, fsr2l, fsr2h, status,2, status,0, prodl, prodh, cstack
  1228 ;; Tracked objects:
  1229 ;;		On entry : 0/0
  1230 ;;		On exit  : 0/0
  1231 ;;		Unchanged: 0/0
  1232 ;; Data sizes:     COMRAM   BANK0   BANK1   BANK2   BANK3   BANK4   BANK5   BANK6   BANK7   BANK8   BANK9  BANK10  BANK1
      +1  BANK12  BANK13  BANK14  BANK15
  1233 ;;      Params:         0       0       0       0       0       0       0       0       0       0       0       0       
      +0       0       0       0       0
  1234 ;;      Locals:         0       0       0       0       0       0       0       0       0       0       0       0       
      +0       0       0       0       0
  1235 ;;      Temps:          0       0       0       0       0       0       0       0       0       0       0       0       
      +0       0       0       0       0
  1236 ;;      Totals:         0       0       0       0       0       0       0       0       0       0       0       0       
      +0       0       0       0       0
  1237 ;;Total ram usage:        0 bytes
  1238 ;; Hardware stack levels used: 1
  1239 ;; Hardware stack levels required when called: 10
  1240 ;; This function calls:
  1241 ;;		_EUSART_ASYNC_Init
  1242 ;;		_Timer0_Init
  1243 ;; This function is called by:
  1244 ;;		_application_init
  1245 ;; This function uses a non-reentrant model
  1246 ;;
  1247                           
  1248                           	psect	text2
  1249   003FAA                     __ptext2:
  1250                           	callstack 0
  1251   003FAA                     _mcal_layer_initialize:
  1252                           	callstack 19
  1253   003FAA                     
  1254                           ;MCAL_layer/mcal_layer_init.c: 11:     EUSART_ASYNC_Init(&master_uart);
  1255   003FAA  0E0A               	movlw	low _master_uart
  1256   003FAC  0100               	movlb	0	; () banked
  1257   003FAE  6FBB               	movwf	EUSART_ASYNC_Init@_eusart& (0+255),b
  1258   003FB0  0E01               	movlw	high _master_uart
  1259   003FB2  6FBC               	movwf	(EUSART_ASYNC_Init@_eusart+1)& (0+255),b
  1260   003FB4  ECBF  F01E         	call	_EUSART_ASYNC_Init	;wreg free
  1261   003FB8                     
  1262                           ;MCAL_layer/mcal_layer_init.c: 12:     Timer0_Init(&timer0_obj);
  1263   003FB8  0E18               	movlw	low _timer0_obj
  1264   003FBA  0100               	movlb	0	; () banked
  1265   003FBC  6F8C               	movwf	Timer0_Init@timer0_obj& (0+255),b
  1266   003FBE  0E01               	movlw	high _timer0_obj
  1267   003FC0  6F8D               	movwf	(Timer0_Init@timer0_obj+1)& (0+255),b
  1268   003FC2  ECF4  F01D         	call	_Timer0_Init	;wreg free
  1269   003FC6  0012               	return		;funcret
  1270   003FC8                     __end_of_mcal_layer_initialize:
  1271                           	callstack 0
  1272                           
  1273 ;; *************** function _Timer0_Init *****************
  1274 ;; Defined at:
  1275 ;;		line 34 in file "MCAL_layer/TIMER0/timer0.c"
  1276 ;; Parameters:    Size  Location     Type
  1277 ;;  timer0_obj      2   12[BANK0 ] PTR const struct .
  1278 ;;		 -> timer0_obj(9), 
  1279 ;; Auto vars:     Size  Location     Type
  1280 ;;  error_state     1    0        unsigned char 
  1281 ;; Return value:  Size  Location     Type
  1282 ;;                  1    wreg      unsigned char 
  1283 ;; Registers used:
  1284 ;;		wreg, fsr2l, fsr2h, status,2, status,0, prodl, prodh, cstack
  1285 ;; Tracked objects:
  1286 ;;		On entry : 0/0
  1287 ;;		On exit  : 0/0
  1288 ;;		Unchanged: 0/0
  1289 ;; Data sizes:     COMRAM   BANK0   BANK1   BANK2   BANK3   BANK4   BANK5   BANK6   BANK7   BANK8   BANK9  BANK10  BANK1
      +1  BANK12  BANK13  BANK14  BANK15
  1290 ;;      Params:         0       2       0       0       0       0       0       0       0       0       0       0       
      +0       0       0       0       0
  1291 ;;      Locals:         0       0       0       0       0       0       0       0       0       0       0       0       
      +0       0       0       0       0
  1292 ;;      Temps:          0       0       0       0       0       0       0       0       0       0       0       0       
      +0       0       0       0       0
  1293 ;;      Totals:         0       2       0       0       0       0       0       0       0       0       0       0       
      +0       0       0       0       0
  1294 ;;Total ram usage:        2 bytes
  1295 ;; Hardware stack levels used: 1
  1296 ;; Hardware stack levels required when called: 9
  1297 ;; This function calls:
  1298 ;;		_timer0_InterruptConfigure
  1299 ;;		_timer0_ModeConfigure
  1300 ;;		_timer0_PreLoadConfigure
  1301 ;;		_timer0_PreScalerConfigure
  1302 ;;		_timer0_ResolutionConfigure
  1303 ;; This function is called by:
  1304 ;;		_mcal_layer_initialize
  1305 ;; This function uses a non-reentrant model
  1306 ;;
  1307                           
  1308                           	psect	text3
  1309   003BE8                     __ptext3:
  1310                           	callstack 0
  1311   003BE8                     _Timer0_Init:
  1312                           	callstack 19
  1313   003BE8                     
  1314                           ;MCAL_layer/TIMER0/timer0.c: 36:     if(((void*)0) == timer0_obj){
  1315   003BE8  0100               	movlb	0	; () banked
  1316   003BEA  518C               	movf	Timer0_Init@timer0_obj& (0+255),w,b
  1317   003BEC  118D               	iorwf	(Timer0_Init@timer0_obj+1)& (0+255),w,b
  1318   003BEE  A4D8               	btfss	status,2,c
  1319   003BF0  EFFC  F01D         	goto	u8551
  1320   003BF4  EFFE  F01D         	goto	u8550
  1321   003BF8                     u8551:
  1322   003BF8  EF00  F01E         	goto	l1260
  1323   003BFC                     u8550:
  1324   003BFC                     
  1325                           ; BSR set to: 0
  1326                           ;MCAL_layer/TIMER0/timer0.c: 38:     }
  1327   003BFC  EF20  F01E         	goto	l1262
  1328   003C00                     l1260:
  1329                           
  1330                           ; BSR set to: 0
  1331                           ;MCAL_layer/TIMER0/timer0.c: 41:         (T0CONbits.TMR0ON = 0);
  1332   003C00  9ED5               	bcf	213,7,c	;volatile
  1333   003C02                     
  1334                           ; BSR set to: 0
  1335   003C02  C08C  F080         	movff	Timer0_Init@timer0_obj,timer0_ResolutionConfigure@timer0_obj
  1336   003C06  C08D  F081         	movff	Timer0_Init@timer0_obj+1,timer0_ResolutionConfigure@timer0_obj+1
  1337   003C0A  EC4D  F01E         	call	_timer0_ResolutionConfigure	;wreg free
  1338   003C0E  C08C  F087         	movff	Timer0_Init@timer0_obj,timer0_ModeConfigure@timer0_obj
  1339   003C12  C08D  F088         	movff	Timer0_Init@timer0_obj+1,timer0_ModeConfigure@timer0_obj+1
  1340   003C16  ECDC  F01A         	call	_timer0_ModeConfigure	;wreg free
  1341   003C1A  C08C  F084         	movff	Timer0_Init@timer0_obj,timer0_PreScalerConfigure@timer0_obj
  1342   003C1E  C08D  F085         	movff	Timer0_Init@timer0_obj+1,timer0_PreScalerConfigure@timer0_obj+1
  1343   003C22  EC96  F01D         	call	_timer0_PreScalerConfigure	;wreg free
  1344   003C26  C08C  F080         	movff	Timer0_Init@timer0_obj,timer0_InterruptConfigure@timer0_obj
  1345   003C2A  C08D  F081         	movff	Timer0_Init@timer0_obj+1,timer0_InterruptConfigure@timer0_obj+1
  1346   003C2E  EC9C  F01E         	call	_timer0_InterruptConfigure	;wreg free
  1347   003C32  C08C  F080         	movff	Timer0_Init@timer0_obj,timer0_PreLoadConfigure@timer0_obj
  1348   003C36  C08D  F081         	movff	Timer0_Init@timer0_obj+1,timer0_PreLoadConfigure@timer0_obj+1
  1349   003C3A  EC26  F01A         	call	_timer0_PreLoadConfigure	;wreg free
  1350   003C3E                     
  1351                           ;MCAL_layer/TIMER0/timer0.c: 58:         (T0CONbits.TMR0ON = 1);
  1352   003C3E  8ED5               	bsf	213,7,c	;volatile
  1353   003C40                     l1262:
  1354   003C40  0012               	return		;funcret
  1355   003C42                     __end_of_Timer0_Init:
  1356                           	callstack 0
  1357                           
  1358 ;; *************** function _timer0_ResolutionConfigure *****************
  1359 ;; Defined at:
  1360 ;;		line 146 in file "MCAL_layer/TIMER0/timer0.c"
  1361 ;; Parameters:    Size  Location     Type
  1362 ;;  timer0_obj      2    0[BANK0 ] PTR const struct .
  1363 ;;		 -> timer0_obj(9), 
  1364 ;; Auto vars:     Size  Location     Type
  1365 ;;  error_state     1    3[BANK0 ] unsigned char 
  1366 ;; Return value:  Size  Location     Type
  1367 ;;                  1    wreg      unsigned char 
  1368 ;; Registers used:
  1369 ;;		wreg, fsr2l, fsr2h, status,2, status,0
  1370 ;; Tracked objects:
  1371 ;;		On entry : 0/0
  1372 ;;		On exit  : 0/0
  1373 ;;		Unchanged: 0/0
  1374 ;; Data sizes:     COMRAM   BANK0   BANK1   BANK2   BANK3   BANK4   BANK5   BANK6   BANK7   BANK8   BANK9  BANK10  BANK1
      +1  BANK12  BANK13  BANK14  BANK15
  1375 ;;      Params:         0       2       0       0       0       0       0       0       0       0       0       0       
      +0       0       0       0       0
  1376 ;;      Locals:         0       1       0       0       0       0       0       0       0       0       0       0       
      +0       0       0       0       0
  1377 ;;      Temps:          0       1       0       0       0       0       0       0       0       0       0       0       
      +0       0       0       0       0
  1378 ;;      Totals:         0       4       0       0       0       0       0       0       0       0       0       0       
      +0       0       0       0       0
  1379 ;;Total ram usage:        4 bytes
  1380 ;; Hardware stack levels used: 1
  1381 ;; Hardware stack levels required when called: 7
  1382 ;; This function calls:
  1383 ;;		Nothing
  1384 ;; This function is called by:
  1385 ;;		_Timer0_Init
  1386 ;; This function uses a non-reentrant model
  1387 ;;
  1388                           
  1389                           	psect	text4
  1390   003C9A                     __ptext4:
  1391                           	callstack 0
  1392   003C9A                     _timer0_ResolutionConfigure:
  1393                           	callstack 20
  1394   003C9A                     
  1395                           ;MCAL_layer/TIMER0/timer0.c: 148:     if(TIMER0_8BIT_RESOLUTION == timer0_obj->timer0_re
      +                          solution){
  1396   003C9A  0100               	movlb	0	; () banked
  1397   003C9C  EE20 F004          	lfsr	2,4
  1398   003CA0  5180               	movf	timer0_ResolutionConfigure@timer0_obj& (0+255),w,b
  1399   003CA2  26D9               	addwf	fsr2l,f,c
  1400   003CA4  5181               	movf	(timer0_ResolutionConfigure@timer0_obj+1)& (0+255),w,b
  1401   003CA6  22DA               	addwfc	fsr2h,f,c
  1402   003CA8  04DE               	decf	postinc2,w,c
  1403   003CAA  A4D8               	btfss	status,2,c
  1404   003CAC  EF5A  F01E         	goto	u8391
  1405   003CB0  EF5C  F01E         	goto	u8390
  1406   003CB4                     u8391:
  1407   003CB4  EF61  F01E         	goto	l9320
  1408   003CB8                     u8390:
  1409   003CB8                     
  1410                           ; BSR set to: 0
  1411                           ;MCAL_layer/TIMER0/timer0.c: 149:         (T0CONbits.T08BIT = 1);
  1412   003CB8  8CD5               	bsf	213,6,c	;volatile
  1413   003CBA                     l9318:
  1414                           
  1415                           ; BSR set to: 0
  1416                           ;MCAL_layer/TIMER0/timer0.c: 150:         error_state = (STD_ReturnType)0x01 ;
  1417   003CBA  0E01               	movlw	1
  1418   003CBC  6F83               	movwf	timer0_ResolutionConfigure@error_state& (0+255),b
  1419                           
  1420                           ;MCAL_layer/TIMER0/timer0.c: 151:     }
  1421   003CBE  EF74  F01E         	goto	l1289
  1422   003CC2                     l9320:
  1423                           
  1424                           ; BSR set to: 0
  1425   003CC2  EE20 F004          	lfsr	2,4
  1426   003CC6  5180               	movf	timer0_ResolutionConfigure@timer0_obj& (0+255),w,b
  1427   003CC8  26D9               	addwf	fsr2l,f,c
  1428   003CCA  5181               	movf	(timer0_ResolutionConfigure@timer0_obj+1)& (0+255),w,b
  1429   003CCC  22DA               	addwfc	fsr2h,f,c
  1430   003CCE  50DF               	movf	indf2,w,c
  1431   003CD0  A4D8               	btfss	status,2,c
  1432   003CD2  EF6D  F01E         	goto	u8401
  1433   003CD6  EF6F  F01E         	goto	u8400
  1434   003CDA                     u8401:
  1435   003CDA  EF72  F01E         	goto	l9326
  1436   003CDE                     u8400:
  1437   003CDE                     
  1438                           ; BSR set to: 0
  1439                           ;MCAL_layer/TIMER0/timer0.c: 153:         (T0CONbits.T08BIT = 0);
  1440   003CDE  9CD5               	bcf	213,6,c	;volatile
  1441   003CE0  EF5D  F01E         	goto	l9318
  1442   003CE4                     l9326:
  1443                           
  1444                           ; BSR set to: 0
  1445                           ;MCAL_layer/TIMER0/timer0.c: 157:         error_state = (STD_ReturnType)0x00 ;
  1446   003CE4  0E00               	movlw	0
  1447   003CE6  6F83               	movwf	timer0_ResolutionConfigure@error_state& (0+255),b
  1448   003CE8                     l1289:
  1449                           
  1450                           ; BSR set to: 0
  1451                           ;MCAL_layer/TIMER0/timer0.c: 159:     return error_state ;
  1452   003CE8  5183               	movf	timer0_ResolutionConfigure@error_state& (0+255),w,b
  1453   003CEA                     
  1454                           ; BSR set to: 0
  1455   003CEA  0012               	return		;funcret
  1456   003CEC                     __end_of_timer0_ResolutionConfigure:
  1457                           	callstack 0
  1458                           
  1459 ;; *************** function _timer0_PreScalerConfigure *****************
  1460 ;; Defined at:
  1461 ;;		line 203 in file "MCAL_layer/TIMER0/timer0.c"
  1462 ;; Parameters:    Size  Location     Type
  1463 ;;  timer0_obj      2    4[BANK0 ] PTR const struct .
  1464 ;;		 -> timer0_obj(9), 
  1465 ;; Auto vars:     Size  Location     Type
  1466 ;;  error_state     1    7[BANK0 ] unsigned char 
  1467 ;; Return value:  Size  Location     Type
  1468 ;;                  1    wreg      unsigned char 
  1469 ;; Registers used:
  1470 ;;		wreg, fsr2l, fsr2h, status,2, status,0, cstack
  1471 ;; Tracked objects:
  1472 ;;		On entry : 0/0
  1473 ;;		On exit  : 0/0
  1474 ;;		Unchanged: 0/0
  1475 ;; Data sizes:     COMRAM   BANK0   BANK1   BANK2   BANK3   BANK4   BANK5   BANK6   BANK7   BANK8   BANK9  BANK10  BANK1
      +1  BANK12  BANK13  BANK14  BANK15
  1476 ;;      Params:         0       2       0       0       0       0       0       0       0       0       0       0       
      +0       0       0       0       0
  1477 ;;      Locals:         0       1       0       0       0       0       0       0       0       0       0       0       
      +0       0       0       0       0
  1478 ;;      Temps:          0       1       0       0       0       0       0       0       0       0       0       0       
      +0       0       0       0       0
  1479 ;;      Totals:         0       4       0       0       0       0       0       0       0       0       0       0       
      +0       0       0       0       0
  1480 ;;Total ram usage:        4 bytes
  1481 ;; Hardware stack levels used: 1
  1482 ;; Hardware stack levels required when called: 8
  1483 ;; This function calls:
  1484 ;;		_timer0_PreScalerValueConfigure
  1485 ;; This function is called by:
  1486 ;;		_Timer0_Init
  1487 ;; This function uses a non-reentrant model
  1488 ;;
  1489                           
  1490                           	psect	text5
  1491   003B2C                     __ptext5:
  1492                           	callstack 0
  1493   003B2C                     _timer0_PreScalerConfigure:
  1494                           	callstack 19
  1495   003B2C                     
  1496                           ;MCAL_layer/TIMER0/timer0.c: 205:     if(1 == timer0_obj->timer0_prescaler_cfg){
  1497   003B2C  0100               	movlb	0	; () banked
  1498   003B2E  EE20 F005          	lfsr	2,5
  1499   003B32  5184               	movf	timer0_PreScalerConfigure@timer0_obj& (0+255),w,b
  1500   003B34  26D9               	addwf	fsr2l,f,c
  1501   003B36  5185               	movf	(timer0_PreScalerConfigure@timer0_obj+1)& (0+255),w,b
  1502   003B38  22DA               	addwfc	fsr2h,f,c
  1503   003B3A  04DE               	decf	postinc2,w,c
  1504   003B3C  A4D8               	btfss	status,2,c
  1505   003B3E  EFA3  F01D         	goto	u8451
  1506   003B42  EFA5  F01D         	goto	u8450
  1507   003B46                     u8451:
  1508   003B46  EFB1  F01D         	goto	l9374
  1509   003B4A                     u8450:
  1510   003B4A                     
  1511                           ; BSR set to: 0
  1512                           ;MCAL_layer/TIMER0/timer0.c: 207:         (T0CONbits.PSA = 0);
  1513   003B4A  96D5               	bcf	213,3,c	;volatile
  1514   003B4C                     
  1515                           ; BSR set to: 0
  1516   003B4C  C084  F080         	movff	timer0_PreScalerConfigure@timer0_obj,timer0_PreScalerValueConfigure@timer0_obj
  1517   003B50  C085  F081         	movff	timer0_PreScalerConfigure@timer0_obj+1,timer0_PreScalerValueConfigure@timer0_obj+
      +                          1
  1518   003B54  EC64  F019         	call	_timer0_PreScalerValueConfigure	;wreg free
  1519   003B58                     l9372:
  1520                           
  1521                           ;MCAL_layer/TIMER0/timer0.c: 209:         error_state = (STD_ReturnType)0x01 ;
  1522   003B58  0E01               	movlw	1
  1523   003B5A  0100               	movlb	0	; () banked
  1524   003B5C  6F87               	movwf	timer0_PreScalerConfigure@error_state& (0+255),b
  1525                           
  1526                           ;MCAL_layer/TIMER0/timer0.c: 210:     }
  1527   003B5E  EFC4  F01D         	goto	l1309
  1528   003B62                     l9374:
  1529                           
  1530                           ; BSR set to: 0
  1531   003B62  EE20 F005          	lfsr	2,5
  1532   003B66  5184               	movf	timer0_PreScalerConfigure@timer0_obj& (0+255),w,b
  1533   003B68  26D9               	addwf	fsr2l,f,c
  1534   003B6A  5185               	movf	(timer0_PreScalerConfigure@timer0_obj+1)& (0+255),w,b
  1535   003B6C  22DA               	addwfc	fsr2h,f,c
  1536   003B6E  50DF               	movf	indf2,w,c
  1537   003B70  A4D8               	btfss	status,2,c
  1538   003B72  EFBD  F01D         	goto	u8461
  1539   003B76  EFBF  F01D         	goto	u8460
  1540   003B7A                     u8461:
  1541   003B7A  EFC2  F01D         	goto	l9380
  1542   003B7E                     u8460:
  1543   003B7E                     
  1544                           ; BSR set to: 0
  1545                           ;MCAL_layer/TIMER0/timer0.c: 213:         (T0CONbits.PSA = 1);
  1546   003B7E  86D5               	bsf	213,3,c	;volatile
  1547   003B80  EFAC  F01D         	goto	l9372
  1548   003B84                     l9380:
  1549                           
  1550                           ; BSR set to: 0
  1551                           ;MCAL_layer/TIMER0/timer0.c: 217:         error_state = (STD_ReturnType)0x00 ;
  1552   003B84  0E00               	movlw	0
  1553   003B86  6F87               	movwf	timer0_PreScalerConfigure@error_state& (0+255),b
  1554   003B88                     l1309:
  1555                           
  1556                           ; BSR set to: 0
  1557                           ;MCAL_layer/TIMER0/timer0.c: 219:     return error_state ;
  1558   003B88  5187               	movf	timer0_PreScalerConfigure@error_state& (0+255),w,b
  1559   003B8A                     
  1560                           ; BSR set to: 0
  1561   003B8A  0012               	return		;funcret
  1562   003B8C                     __end_of_timer0_PreScalerConfigure:
  1563                           	callstack 0
  1564                           
  1565 ;; *************** function _timer0_PreScalerValueConfigure *****************
  1566 ;; Defined at:
  1567 ;;		line 221 in file "MCAL_layer/TIMER0/timer0.c"
  1568 ;; Parameters:    Size  Location     Type
  1569 ;;  timer0_obj      2    0[BANK0 ] PTR const struct .
  1570 ;;		 -> timer0_obj(9), 
  1571 ;; Auto vars:     Size  Location     Type
  1572 ;;  error_state     1    0        unsigned char 
  1573 ;; Return value:  Size  Location     Type
  1574 ;;                  1    wreg      unsigned char 
  1575 ;; Registers used:
  1576 ;;		wreg, fsr2l, fsr2h, status,2, status,0
  1577 ;; Tracked objects:
  1578 ;;		On entry : 0/0
  1579 ;;		On exit  : 0/0
  1580 ;;		Unchanged: 0/0
  1581 ;; Data sizes:     COMRAM   BANK0   BANK1   BANK2   BANK3   BANK4   BANK5   BANK6   BANK7   BANK8   BANK9  BANK10  BANK1
      +1  BANK12  BANK13  BANK14  BANK15
  1582 ;;      Params:         0       2       0       0       0       0       0       0       0       0       0       0       
      +0       0       0       0       0
  1583 ;;      Locals:         0       0       0       0       0       0       0       0       0       0       0       0       
      +0       0       0       0       0
  1584 ;;      Temps:          0       2       0       0       0       0       0       0       0       0       0       0       
      +0       0       0       0       0
  1585 ;;      Totals:         0       4       0       0       0       0       0       0       0       0       0       0       
      +0       0       0       0       0
  1586 ;;Total ram usage:        4 bytes
  1587 ;; Hardware stack levels used: 1
  1588 ;; Hardware stack levels required when called: 7
  1589 ;; This function calls:
  1590 ;;		Nothing
  1591 ;; This function is called by:
  1592 ;;		_timer0_PreScalerConfigure
  1593 ;; This function uses a non-reentrant model
  1594 ;;
  1595                           
  1596                           	psect	text6
  1597   0032C8                     __ptext6:
  1598                           	callstack 0
  1599   0032C8                     _timer0_PreScalerValueConfigure:
  1600                           	callstack 19
  1601   0032C8                     
  1602                           ;MCAL_layer/TIMER0/timer0.c: 223:     switch(timer0_obj->timer0_prescaler_value){
  1603   0032C8  EF94  F019         	goto	l8706
  1604   0032CC                     l8688:
  1605                           
  1606                           ; BSR set to: 0
  1607                           ;MCAL_layer/TIMER0/timer0.c: 225:                 (T0CONbits.T0PS = TIMER0_PRESCALER_DIV
      +                          _BY_2);
  1608   0032CC  0EF8               	movlw	-8
  1609   0032CE  16D5               	andwf	213,f,c	;volatile
  1610                           
  1611                           ;MCAL_layer/TIMER0/timer0.c: 226:                 break;
  1612   0032D0  EFC8  F019         	goto	l8708
  1613   0032D4                     l8690:
  1614                           
  1615                           ; BSR set to: 0
  1616                           ;MCAL_layer/TIMER0/timer0.c: 228:                 (T0CONbits.T0PS = TIMER0_PRESCALER_DIV
      +                          _BY_4);
  1617   0032D4  50D5               	movf	213,w,c	;volatile
  1618   0032D6  0BF8               	andlw	-8
  1619   0032D8  0901               	iorlw	1
  1620   0032DA  6ED5               	movwf	213,c	;volatile
  1621                           
  1622                           ;MCAL_layer/TIMER0/timer0.c: 229:                 break;
  1623   0032DC  EFC8  F019         	goto	l8708
  1624   0032E0                     l8692:
  1625                           
  1626                           ; BSR set to: 0
  1627                           ;MCAL_layer/TIMER0/timer0.c: 231:                 (T0CONbits.T0PS = TIMER0_PRESCALER_DIV
      +                          _BY_8);
  1628   0032E0  50D5               	movf	213,w,c	;volatile
  1629   0032E2  0BF8               	andlw	-8
  1630   0032E4  0902               	iorlw	2
  1631   0032E6  6ED5               	movwf	213,c	;volatile
  1632                           
  1633                           ;MCAL_layer/TIMER0/timer0.c: 232:                 break;
  1634   0032E8  EFC8  F019         	goto	l8708
  1635   0032EC                     l8694:
  1636                           
  1637                           ; BSR set to: 0
  1638                           ;MCAL_layer/TIMER0/timer0.c: 234:                 (T0CONbits.T0PS = TIMER0_PRESCALER_DIV
      +                          _BY_16);
  1639   0032EC  50D5               	movf	213,w,c	;volatile
  1640   0032EE  0BF8               	andlw	-8
  1641   0032F0  0903               	iorlw	3
  1642   0032F2  6ED5               	movwf	213,c	;volatile
  1643                           
  1644                           ;MCAL_layer/TIMER0/timer0.c: 235:                 break;
  1645   0032F4  EFC8  F019         	goto	l8708
  1646   0032F8                     l8696:
  1647                           
  1648                           ; BSR set to: 0
  1649                           ;MCAL_layer/TIMER0/timer0.c: 237:                 (T0CONbits.T0PS = TIMER0_PRESCALER_DIV
      +                          _BY_32);
  1650   0032F8  50D5               	movf	213,w,c	;volatile
  1651   0032FA  0BF8               	andlw	-8
  1652   0032FC  0904               	iorlw	4
  1653   0032FE  6ED5               	movwf	213,c	;volatile
  1654                           
  1655                           ;MCAL_layer/TIMER0/timer0.c: 238:                 break;
  1656   003300  EFC8  F019         	goto	l8708
  1657   003304                     l8698:
  1658                           
  1659                           ; BSR set to: 0
  1660                           ;MCAL_layer/TIMER0/timer0.c: 240:                 (T0CONbits.T0PS = TIMER0_PRESCALER_DIV
      +                          _BY_64);
  1661   003304  50D5               	movf	213,w,c	;volatile
  1662   003306  0BF8               	andlw	-8
  1663   003308  0905               	iorlw	5
  1664   00330A  6ED5               	movwf	213,c	;volatile
  1665                           
  1666                           ;MCAL_layer/TIMER0/timer0.c: 241:                 break;
  1667   00330C  EFC8  F019         	goto	l8708
  1668   003310                     l8700:
  1669                           
  1670                           ; BSR set to: 0
  1671                           ;MCAL_layer/TIMER0/timer0.c: 243:                 (T0CONbits.T0PS = TIMER0_PRESCALER_DIV
      +                          _BY_128);
  1672   003310  50D5               	movf	213,w,c	;volatile
  1673   003312  0BF8               	andlw	-8
  1674   003314  0906               	iorlw	6
  1675   003316  6ED5               	movwf	213,c	;volatile
  1676                           
  1677                           ;MCAL_layer/TIMER0/timer0.c: 244:                 break;
  1678   003318  EFC8  F019         	goto	l8708
  1679   00331C                     l8702:
  1680                           
  1681                           ; BSR set to: 0
  1682                           ;MCAL_layer/TIMER0/timer0.c: 246:                 (T0CONbits.T0PS = TIMER0_PRESCALER_DIV
      +                          _BY_256);
  1683   00331C  0E07               	movlw	7
  1684   00331E  12D5               	iorwf	213,f,c	;volatile
  1685                           
  1686                           ;MCAL_layer/TIMER0/timer0.c: 247:                 break;
  1687   003320  EFC8  F019         	goto	l8708
  1688   003324                     l8704:
  1689                           
  1690                           ; BSR set to: 0
  1691                           ;MCAL_layer/TIMER0/timer0.c: 249:         }
  1692   003324  EFC8  F019         	goto	l8708
  1693   003328                     l8706:
  1694   003328  0100               	movlb	0	; () banked
  1695   00332A  EE20 F006          	lfsr	2,6
  1696   00332E  5180               	movf	timer0_PreScalerValueConfigure@timer0_obj& (0+255),w,b
  1697   003330  26D9               	addwf	fsr2l,f,c
  1698   003332  5181               	movf	(timer0_PreScalerValueConfigure@timer0_obj+1)& (0+255),w,b
  1699   003334  22DA               	addwfc	fsr2h,f,c
  1700   003336  50DF               	movf	indf2,w,c
  1701   003338  6F82               	movwf	??_timer0_PreScalerValueConfigure& (0+255),b
  1702   00333A  6B83               	clrf	(??_timer0_PreScalerValueConfigure+1)& (0+255),b
  1703                           
  1704                           ; Switch on 2 bytes has been partitioned into a top level switch of size 1, and 1 sub-sw
      +                          itches
  1705                           ; Switch size 1, requested type "simple"
  1706                           ; Number of cases is 1, Range of values is 0 to 0
  1707                           ; switch strategies available:
  1708                           ; Name         Instructions Cycles
  1709                           ; simple_byte            4     3 (average)
  1710                           ;	Chosen strategy is simple_byte
  1711   00333C  5183               	movf	(??_timer0_PreScalerValueConfigure+1)& (0+255),w,b
  1712   00333E  0A00               	xorlw	0	; case 0
  1713   003340  B4D8               	btfsc	status,2,c
  1714   003342  EFA5  F019         	goto	l10476
  1715   003346  EF92  F019         	goto	l8704
  1716   00334A                     l10476:
  1717                           
  1718                           ; BSR set to: 0
  1719                           ; Switch size 1, requested type "simple"
  1720                           ; Number of cases is 8, Range of values is 0 to 7
  1721                           ; switch strategies available:
  1722                           ; Name         Instructions Cycles
  1723                           ; simple_byte           25    13 (average)
  1724                           ;	Chosen strategy is simple_byte
  1725   00334A  5182               	movf	??_timer0_PreScalerValueConfigure& (0+255),w,b
  1726   00334C  0A00               	xorlw	0	; case 0
  1727   00334E  B4D8               	btfsc	status,2,c
  1728   003350  EF66  F019         	goto	l8688
  1729   003354  0A01               	xorlw	1	; case 1
  1730   003356  B4D8               	btfsc	status,2,c
  1731   003358  EF6A  F019         	goto	l8690
  1732   00335C  0A03               	xorlw	3	; case 2
  1733   00335E  B4D8               	btfsc	status,2,c
  1734   003360  EF70  F019         	goto	l8692
  1735   003364  0A01               	xorlw	1	; case 3
  1736   003366  B4D8               	btfsc	status,2,c
  1737   003368  EF76  F019         	goto	l8694
  1738   00336C  0A07               	xorlw	7	; case 4
  1739   00336E  B4D8               	btfsc	status,2,c
  1740   003370  EF7C  F019         	goto	l8696
  1741   003374  0A01               	xorlw	1	; case 5
  1742   003376  B4D8               	btfsc	status,2,c
  1743   003378  EF82  F019         	goto	l8698
  1744   00337C  0A03               	xorlw	3	; case 6
  1745   00337E  B4D8               	btfsc	status,2,c
  1746   003380  EF88  F019         	goto	l8700
  1747   003384  0A01               	xorlw	1	; case 7
  1748   003386  B4D8               	btfsc	status,2,c
  1749   003388  EF8E  F019         	goto	l8702
  1750   00338C  EF92  F019         	goto	l8704
  1751   003390                     l8708:
  1752                           
  1753                           ; BSR set to: 0
  1754                           ;MCAL_layer/TIMER0/timer0.c: 250:     return error_state ;
  1755   003390  0E00               	movlw	0
  1756   003392                     
  1757                           ; BSR set to: 0
  1758   003392  0012               	return		;funcret
  1759   003394                     __end_of_timer0_PreScalerValueConfigure:
  1760                           	callstack 0
  1761                           
  1762 ;; *************** function _timer0_PreLoadConfigure *****************
  1763 ;; Defined at:
  1764 ;;		line 252 in file "MCAL_layer/TIMER0/timer0.c"
  1765 ;; Parameters:    Size  Location     Type
  1766 ;;  timer0_obj      2    0[BANK0 ] PTR const struct .
  1767 ;;		 -> timer0_obj(9), 
  1768 ;; Auto vars:     Size  Location     Type
  1769 ;;  error_state     1    4[BANK0 ] unsigned char 
  1770 ;; Return value:  Size  Location     Type
  1771 ;;                  1    wreg      unsigned char 
  1772 ;; Registers used:
  1773 ;;		wreg, fsr2l, fsr2h, status,2, status,0
  1774 ;; Tracked objects:
  1775 ;;		On entry : 0/0
  1776 ;;		On exit  : 0/0
  1777 ;;		Unchanged: 0/0
  1778 ;; Data sizes:     COMRAM   BANK0   BANK1   BANK2   BANK3   BANK4   BANK5   BANK6   BANK7   BANK8   BANK9  BANK10  BANK1
      +1  BANK12  BANK13  BANK14  BANK15
  1779 ;;      Params:         0       2       0       0       0       0       0       0       0       0       0       0       
      +0       0       0       0       0
  1780 ;;      Locals:         0       1       0       0       0       0       0       0       0       0       0       0       
      +0       0       0       0       0
  1781 ;;      Temps:          0       2       0       0       0       0       0       0       0       0       0       0       
      +0       0       0       0       0
  1782 ;;      Totals:         0       5       0       0       0       0       0       0       0       0       0       0       
      +0       0       0       0       0
  1783 ;;Total ram usage:        5 bytes
  1784 ;; Hardware stack levels used: 1
  1785 ;; Hardware stack levels required when called: 7
  1786 ;; This function calls:
  1787 ;;		Nothing
  1788 ;; This function is called by:
  1789 ;;		_Timer0_Init
  1790 ;; This function uses a non-reentrant model
  1791 ;;
  1792                           
  1793                           	psect	text7
  1794   00344C                     __ptext7:
  1795                           	callstack 0
  1796   00344C                     _timer0_PreLoadConfigure:
  1797                           	callstack 20
  1798   00344C                     
  1799                           ;MCAL_layer/TIMER0/timer0.c: 254:     if(TIMER0_8BIT_RESOLUTION == timer0_obj->timer0_re
      +                          solution){
  1800   00344C  0100               	movlb	0	; () banked
  1801   00344E  EE20 F004          	lfsr	2,4
  1802   003452  5180               	movf	timer0_PreLoadConfigure@timer0_obj& (0+255),w,b
  1803   003454  26D9               	addwf	fsr2l,f,c
  1804   003456  5181               	movf	(timer0_PreLoadConfigure@timer0_obj+1)& (0+255),w,b
  1805   003458  22DA               	addwfc	fsr2h,f,c
  1806   00345A  04DE               	decf	postinc2,w,c
  1807   00345C  A4D8               	btfss	status,2,c
  1808   00345E  EF33  F01A         	goto	u8481
  1809   003462  EF35  F01A         	goto	u8480
  1810   003466                     u8481:
  1811   003466  EF4C  F01A         	goto	l9408
  1812   00346A                     u8480:
  1813   00346A                     
  1814                           ; BSR set to: 0
  1815                           ;MCAL_layer/TIMER0/timer0.c: 255:         TMR0L = (uint8)(timer0_obj->timer0_preload_val
      +                          ue);
  1816   00346A  EE20 F007          	lfsr	2,7
  1817   00346E  5180               	movf	timer0_PreLoadConfigure@timer0_obj& (0+255),w,b
  1818   003470  26D9               	addwf	fsr2l,f,c
  1819   003472  5181               	movf	(timer0_PreLoadConfigure@timer0_obj+1)& (0+255),w,b
  1820   003474  22DA               	addwfc	fsr2h,f,c
  1821   003476  50DF               	movf	indf2,w,c
  1822   003478  6ED6               	movwf	214,c	;volatile
  1823                           
  1824                           ;MCAL_layer/TIMER0/timer0.c: 256:         g_timer0_preload_value = (uint8)(timer0_obj->t
      +                          imer0_preload_value) ;
  1825   00347A  EE20 F007          	lfsr	2,7
  1826   00347E  5180               	movf	timer0_PreLoadConfigure@timer0_obj& (0+255),w,b
  1827   003480  26D9               	addwf	fsr2l,f,c
  1828   003482  5181               	movf	(timer0_PreLoadConfigure@timer0_obj+1)& (0+255),w,b
  1829   003484  22DA               	addwfc	fsr2h,f,c
  1830   003486  50DF               	movf	indf2,w,c
  1831   003488  6F82               	movwf	??_timer0_PreLoadConfigure& (0+255),b
  1832   00348A  5182               	movf	??_timer0_PreLoadConfigure& (0+255),w,b
  1833   00348C  6E49               	movwf	_g_timer0_preload_value^0,c
  1834   00348E  6A4A               	clrf	(_g_timer0_preload_value+1)^0,c
  1835   003490                     l9406:
  1836                           
  1837                           ; BSR set to: 0
  1838                           ;MCAL_layer/TIMER0/timer0.c: 257:         error_state = (STD_ReturnType)0x01 ;
  1839   003490  0E01               	movlw	1
  1840   003492  6F84               	movwf	timer0_PreLoadConfigure@error_state& (0+255),b
  1841                           
  1842                           ;MCAL_layer/TIMER0/timer0.c: 258:     }
  1843   003494  EF7F  F01A         	goto	l1330
  1844   003498                     l9408:
  1845                           
  1846                           ; BSR set to: 0
  1847   003498  EE20 F004          	lfsr	2,4
  1848   00349C  5180               	movf	timer0_PreLoadConfigure@timer0_obj& (0+255),w,b
  1849   00349E  26D9               	addwf	fsr2l,f,c
  1850   0034A0  5181               	movf	(timer0_PreLoadConfigure@timer0_obj+1)& (0+255),w,b
  1851   0034A2  22DA               	addwfc	fsr2h,f,c
  1852   0034A4  50DF               	movf	indf2,w,c
  1853   0034A6  A4D8               	btfss	status,2,c
  1854   0034A8  EF58  F01A         	goto	u8491
  1855   0034AC  EF5A  F01A         	goto	u8490
  1856   0034B0                     u8491:
  1857   0034B0  EF7D  F01A         	goto	l9414
  1858   0034B4                     u8490:
  1859   0034B4                     
  1860                           ; BSR set to: 0
  1861                           ;MCAL_layer/TIMER0/timer0.c: 260:         TMR0H = (timer0_obj->timer0_preload_value )>> 
      +                          8;
  1862   0034B4  EE20 F007          	lfsr	2,7
  1863   0034B8  5180               	movf	timer0_PreLoadConfigure@timer0_obj& (0+255),w,b
  1864   0034BA  26D9               	addwf	fsr2l,f,c
  1865   0034BC  5181               	movf	(timer0_PreLoadConfigure@timer0_obj+1)& (0+255),w,b
  1866   0034BE  22DA               	addwfc	fsr2h,f,c
  1867   0034C0  CFDE F082          	movff	postinc2,??_timer0_PreLoadConfigure
  1868   0034C4  CFDD F083          	movff	postdec2,??_timer0_PreLoadConfigure+1
  1869   0034C8  C083  F082         	movff	??_timer0_PreLoadConfigure+1,??_timer0_PreLoadConfigure
  1870   0034CC  6B83               	clrf	(??_timer0_PreLoadConfigure+1)& (0+255),b
  1871   0034CE  5182               	movf	??_timer0_PreLoadConfigure& (0+255),w,b
  1872   0034D0  6ED7               	movwf	215,c	;volatile
  1873                           
  1874                           ;MCAL_layer/TIMER0/timer0.c: 261:         TMR0L = (uint8)(timer0_obj->timer0_preload_val
      +                          ue);
  1875   0034D2  EE20 F007          	lfsr	2,7
  1876   0034D6  5180               	movf	timer0_PreLoadConfigure@timer0_obj& (0+255),w,b
  1877   0034D8  26D9               	addwf	fsr2l,f,c
  1878   0034DA  5181               	movf	(timer0_PreLoadConfigure@timer0_obj+1)& (0+255),w,b
  1879   0034DC  22DA               	addwfc	fsr2h,f,c
  1880   0034DE  50DF               	movf	indf2,w,c
  1881   0034E0  6ED6               	movwf	214,c	;volatile
  1882                           
  1883                           ;MCAL_layer/TIMER0/timer0.c: 262:         g_timer0_preload_value = timer0_obj->timer0_pr
      +                          eload_value ;
  1884   0034E2  EE20 F007          	lfsr	2,7
  1885   0034E6  5180               	movf	timer0_PreLoadConfigure@timer0_obj& (0+255),w,b
  1886   0034E8  26D9               	addwf	fsr2l,f,c
  1887   0034EA  5181               	movf	(timer0_PreLoadConfigure@timer0_obj+1)& (0+255),w,b
  1888   0034EC  22DA               	addwfc	fsr2h,f,c
  1889   0034EE  CFDE F049          	movff	postinc2,_g_timer0_preload_value
  1890   0034F2  CFDD F04A          	movff	postdec2,_g_timer0_preload_value+1
  1891   0034F6  EF48  F01A         	goto	l9406
  1892   0034FA                     l9414:
  1893                           
  1894                           ; BSR set to: 0
  1895                           ;MCAL_layer/TIMER0/timer0.c: 266:         error_state = (STD_ReturnType)0x00 ;
  1896   0034FA  0E00               	movlw	0
  1897   0034FC  6F84               	movwf	timer0_PreLoadConfigure@error_state& (0+255),b
  1898   0034FE                     l1330:
  1899                           
  1900                           ; BSR set to: 0
  1901                           ;MCAL_layer/TIMER0/timer0.c: 268:     return error_state ;
  1902   0034FE  5184               	movf	timer0_PreLoadConfigure@error_state& (0+255),w,b
  1903   003500                     
  1904                           ; BSR set to: 0
  1905   003500  0012               	return		;funcret
  1906   003502                     __end_of_timer0_PreLoadConfigure:
  1907                           	callstack 0
  1908                           
  1909 ;; *************** function _timer0_ModeConfigure *****************
  1910 ;; Defined at:
  1911 ;;		line 162 in file "MCAL_layer/TIMER0/timer0.c"
  1912 ;; Parameters:    Size  Location     Type
  1913 ;;  timer0_obj      2    7[BANK0 ] PTR const struct .
  1914 ;;		 -> timer0_obj(9), 
  1915 ;; Auto vars:     Size  Location     Type
  1916 ;;  error_state     1   11[BANK0 ] unsigned char 
  1917 ;;  timer0_Exter    1   10[BANK0 ] struct .
  1918 ;; Return value:  Size  Location     Type
  1919 ;;                  1    wreg      unsigned char 
  1920 ;; Registers used:
  1921 ;;		wreg, fsr2l, fsr2h, status,2, status,0, prodl, prodh, cstack
  1922 ;; Tracked objects:
  1923 ;;		On entry : 0/0
  1924 ;;		On exit  : 0/0
  1925 ;;		Unchanged: 0/0
  1926 ;; Data sizes:     COMRAM   BANK0   BANK1   BANK2   BANK3   BANK4   BANK5   BANK6   BANK7   BANK8   BANK9  BANK10  BANK1
      +1  BANK12  BANK13  BANK14  BANK15
  1927 ;;      Params:         0       2       0       0       0       0       0       0       0       0       0       0       
      +0       0       0       0       0
  1928 ;;      Locals:         0       2       0       0       0       0       0       0       0       0       0       0       
      +0       0       0       0       0
  1929 ;;      Temps:          0       1       0       0       0       0       0       0       0       0       0       0       
      +0       0       0       0       0
  1930 ;;      Totals:         0       5       0       0       0       0       0       0       0       0       0       0       
      +0       0       0       0       0
  1931 ;;Total ram usage:        5 bytes
  1932 ;; Hardware stack levels used: 1
  1933 ;; Hardware stack levels required when called: 8
  1934 ;; This function calls:
  1935 ;;		_gpio_pin_direction_init
  1936 ;; This function is called by:
  1937 ;;		_Timer0_Init
  1938 ;; This function uses a non-reentrant model
  1939 ;;
  1940                           
  1941                           	psect	text8
  1942   0035B8                     __ptext8:
  1943                           	callstack 0
  1944   0035B8                     _timer0_ModeConfigure:
  1945                           	callstack 19
  1946   0035B8                     
  1947                           ;MCAL_layer/TIMER0/timer0.c: 169:     pin_config_t timer0_External_Clock_Input_Pin = {
  1948   0035B8  C070  F08A         	movff	timer0_ModeConfigure@F3124,timer0_ModeConfigure@timer0_External_Clock_Input_Pin
  1949   0035BC                     
  1950                           ;MCAL_layer/TIMER0/timer0.c: 174:     if(TIMER0_TIMER_MODE == timer0_obj->timer0_mode){
  1951   0035BC  0100               	movlb	0	; () banked
  1952   0035BE  EE20 F002          	lfsr	2,2
  1953   0035C2  5187               	movf	timer0_ModeConfigure@timer0_obj& (0+255),w,b
  1954   0035C4  26D9               	addwf	fsr2l,f,c
  1955   0035C6  5188               	movf	(timer0_ModeConfigure@timer0_obj+1)& (0+255),w,b
  1956   0035C8  22DA               	addwfc	fsr2h,f,c
  1957   0035CA  50DF               	movf	indf2,w,c
  1958   0035CC  A4D8               	btfss	status,2,c
  1959   0035CE  EFEB  F01A         	goto	u8411
  1960   0035D2  EFED  F01A         	goto	u8410
  1961   0035D6                     u8411:
  1962   0035D6  EFF2  F01A         	goto	l9340
  1963   0035DA                     u8410:
  1964   0035DA                     
  1965                           ; BSR set to: 0
  1966                           ;MCAL_layer/TIMER0/timer0.c: 175:         (T0CONbits.T0CS = 0);
  1967   0035DA  9AD5               	bcf	213,5,c	;volatile
  1968   0035DC                     
  1969                           ; BSR set to: 0
  1970                           ;MCAL_layer/TIMER0/timer0.c: 176:         error_state = (STD_ReturnType)0x01 ;
  1971   0035DC  0E01               	movlw	1
  1972   0035DE  6F8B               	movwf	timer0_ModeConfigure@error_state& (0+255),b
  1973                           
  1974                           ;MCAL_layer/TIMER0/timer0.c: 177:     }
  1975   0035E0  EF2D  F01B         	goto	l1298
  1976   0035E4                     l9340:
  1977                           
  1978                           ; BSR set to: 0
  1979   0035E4  EE20 F002          	lfsr	2,2
  1980   0035E8  5187               	movf	timer0_ModeConfigure@timer0_obj& (0+255),w,b
  1981   0035EA  26D9               	addwf	fsr2l,f,c
  1982   0035EC  5188               	movf	(timer0_ModeConfigure@timer0_obj+1)& (0+255),w,b
  1983   0035EE  22DA               	addwfc	fsr2h,f,c
  1984   0035F0  04DE               	decf	postinc2,w,c
  1985   0035F2  A4D8               	btfss	status,2,c
  1986   0035F4  EFFE  F01A         	goto	u8421
  1987   0035F8  EF00  F01B         	goto	u8420
  1988   0035FC                     u8421:
  1989   0035FC  EF2B  F01B         	goto	l9360
  1990   003600                     u8420:
  1991   003600                     
  1992                           ; BSR set to: 0
  1993                           ;MCAL_layer/TIMER0/timer0.c: 180:         (T0CONbits.T0CS = 1);
  1994   003600  8AD5               	bsf	213,5,c	;volatile
  1995   003602                     
  1996                           ; BSR set to: 0
  1997                           ;MCAL_layer/TIMER0/timer0.c: 182:         if(TIMER0_COUNTER_RAISING_EDGE == timer0_obj->
      +                          timer0_source_edge){
  1998   003602  EE20 F003          	lfsr	2,3
  1999   003606  5187               	movf	timer0_ModeConfigure@timer0_obj& (0+255),w,b
  2000   003608  26D9               	addwf	fsr2l,f,c
  2001   00360A  5188               	movf	(timer0_ModeConfigure@timer0_obj+1)& (0+255),w,b
  2002   00360C  22DA               	addwfc	fsr2h,f,c
  2003   00360E  50DF               	movf	indf2,w,c
  2004   003610  A4D8               	btfss	status,2,c
  2005   003612  EF0D  F01B         	goto	u8431
  2006   003616  EF0F  F01B         	goto	u8430
  2007   00361A                     u8431:
  2008   00361A  EF12  F01B         	goto	l9350
  2009   00361E                     u8430:
  2010   00361E                     
  2011                           ; BSR set to: 0
  2012                           ;MCAL_layer/TIMER0/timer0.c: 183:             (T0CONbits.T0SE = 0);
  2013   00361E  98D5               	bcf	213,4,c	;volatile
  2014   003620                     l9348:
  2015                           
  2016                           ; BSR set to: 0
  2017                           ;MCAL_layer/TIMER0/timer0.c: 185:         }
  2018   003620  EF23  F01B         	goto	l9358
  2019   003624                     l9350:
  2020                           
  2021                           ; BSR set to: 0
  2022   003624  EE20 F003          	lfsr	2,3
  2023   003628  5187               	movf	timer0_ModeConfigure@timer0_obj& (0+255),w,b
  2024   00362A  26D9               	addwf	fsr2l,f,c
  2025   00362C  5188               	movf	(timer0_ModeConfigure@timer0_obj+1)& (0+255),w,b
  2026   00362E  22DA               	addwfc	fsr2h,f,c
  2027   003630  04DE               	decf	postinc2,w,c
  2028   003632  A4D8               	btfss	status,2,c
  2029   003634  EF1E  F01B         	goto	u8441
  2030   003638  EF20  F01B         	goto	u8440
  2031   00363C                     u8441:
  2032   00363C  EF23  F01B         	goto	l9356
  2033   003640                     u8440:
  2034   003640                     
  2035                           ; BSR set to: 0
  2036                           ;MCAL_layer/TIMER0/timer0.c: 187:             (T0CONbits.T0SE = 1);
  2037   003640  88D5               	bsf	213,4,c	;volatile
  2038   003642  EF10  F01B         	goto	l9348
  2039   003646                     l9356:
  2040   003646                     l9358:
  2041                           
  2042                           ; BSR set to: 0
  2043                           ;MCAL_layer/TIMER0/timer0.c: 195:         error_state = gpio_pin_direction_init(&timer0_
      +                          External_Clock_Input_Pin);
  2044   003646  0E8A               	movlw	low timer0_ModeConfigure@timer0_External_Clock_Input_Pin
  2045   003648  6F80               	movwf	gpio_pin_direction_init@_pin_config& (0+255),b
  2046   00364A  EC49  F016         	call	_gpio_pin_direction_init	;wreg free
  2047   00364E  0100               	movlb	0	; () banked
  2048   003650  6F8B               	movwf	timer0_ModeConfigure@error_state& (0+255),b
  2049                           
  2050                           ;MCAL_layer/TIMER0/timer0.c: 196:     }
  2051   003652  EF2D  F01B         	goto	l1298
  2052   003656                     l9360:
  2053                           
  2054                           ; BSR set to: 0
  2055                           ;MCAL_layer/TIMER0/timer0.c: 198:         error_state = (STD_ReturnType)0x00 ;
  2056   003656  0E00               	movlw	0
  2057   003658  6F8B               	movwf	timer0_ModeConfigure@error_state& (0+255),b
  2058   00365A                     l1298:
  2059                           
  2060                           ; BSR set to: 0
  2061                           ;MCAL_layer/TIMER0/timer0.c: 200:     return error_state ;
  2062   00365A  518B               	movf	timer0_ModeConfigure@error_state& (0+255),w,b
  2063   00365C                     
  2064                           ; BSR set to: 0
  2065   00365C  0012               	return		;funcret
  2066   00365E                     __end_of_timer0_ModeConfigure:
  2067                           	callstack 0
  2068                           
  2069 ;; *************** function _timer0_InterruptConfigure *****************
  2070 ;; Defined at:
  2071 ;;		line 271 in file "MCAL_layer/TIMER0/timer0.c"
  2072 ;; Parameters:    Size  Location     Type
  2073 ;;  timer0_obj      2    0[BANK0 ] PTR const struct .
  2074 ;;		 -> timer0_obj(9), 
  2075 ;; Auto vars:     Size  Location     Type
  2076 ;;  error_state     1    4[BANK0 ] unsigned char 
  2077 ;; Return value:  Size  Location     Type
  2078 ;;                  1    wreg      unsigned char 
  2079 ;; Registers used:
  2080 ;;		wreg, fsr2l, fsr2h, status,2, status,0
  2081 ;; Tracked objects:
  2082 ;;		On entry : 0/0
  2083 ;;		On exit  : 0/0
  2084 ;;		Unchanged: 0/0
  2085 ;; Data sizes:     COMRAM   BANK0   BANK1   BANK2   BANK3   BANK4   BANK5   BANK6   BANK7   BANK8   BANK9  BANK10  BANK1
      +1  BANK12  BANK13  BANK14  BANK15
  2086 ;;      Params:         0       2       0       0       0       0       0       0       0       0       0       0       
      +0       0       0       0       0
  2087 ;;      Locals:         0       1       0       0       0       0       0       0       0       0       0       0       
      +0       0       0       0       0
  2088 ;;      Temps:          0       2       0       0       0       0       0       0       0       0       0       0       
      +0       0       0       0       0
  2089 ;;      Totals:         0       5       0       0       0       0       0       0       0       0       0       0       
      +0       0       0       0       0
  2090 ;;Total ram usage:        5 bytes
  2091 ;; Hardware stack levels used: 1
  2092 ;; Hardware stack levels required when called: 7
  2093 ;; This function calls:
  2094 ;;		Nothing
  2095 ;; This function is called by:
  2096 ;;		_Timer0_Init
  2097 ;; This function uses a non-reentrant model
  2098 ;;
  2099                           
  2100                           	psect	text9
  2101   003D38                     __ptext9:
  2102                           	callstack 0
  2103   003D38                     _timer0_InterruptConfigure:
  2104                           	callstack 20
  2105   003D38                     
  2106                           ;MCAL_layer/TIMER0/timer0.c: 273:     if(((void*)0) == timer0_obj->Timer0Interrupt){
  2107   003D38  C080  FFD9         	movff	timer0_InterruptConfigure@timer0_obj,fsr2l
  2108   003D3C  C081  FFDA         	movff	timer0_InterruptConfigure@timer0_obj+1,fsr2h
  2109   003D40  50DE               	movf	postinc2,w,c
  2110   003D42  10DE               	iorwf	postinc2,w,c
  2111   003D44  A4D8               	btfss	status,2,c
  2112   003D46  EFA7  F01E         	goto	u8471
  2113   003D4A  EFA9  F01E         	goto	u8470
  2114   003D4E                     u8471:
  2115   003D4E  EFAE  F01E         	goto	l1336
  2116   003D52                     u8470:
  2117   003D52                     
  2118                           ;MCAL_layer/TIMER0/timer0.c: 274:         error_state = (STD_ReturnType)0x00 ;
  2119   003D52  0E00               	movlw	0
  2120   003D54  0100               	movlb	0	; () banked
  2121   003D56  6F84               	movwf	timer0_InterruptConfigure@error_state& (0+255),b
  2122                           
  2123                           ;MCAL_layer/TIMER0/timer0.c: 275:     }
  2124   003D58  EFBD  F01E         	goto	l9396
  2125   003D5C                     l1336:
  2126                           
  2127                           ;MCAL_layer/TIMER0/timer0.c: 278:         (INTCONbits.TMR0IE = 0);
  2128   003D5C  9AF2               	bcf	242,5,c	;volatile
  2129                           
  2130                           ;MCAL_layer/TIMER0/timer0.c: 298:         (INTCONbits.GIE = 1);
  2131   003D5E  8EF2               	bsf	242,7,c	;volatile
  2132                           
  2133                           ;MCAL_layer/TIMER0/timer0.c: 299:         (INTCONbits.PEIE = 1);
  2134   003D60  8CF2               	bsf	242,6,c	;volatile
  2135   003D62                     
  2136                           ;MCAL_layer/TIMER0/timer0.c: 300:         error_state = (STD_ReturnType)0x01 ;
  2137   003D62  0E01               	movlw	1
  2138   003D64  0100               	movlb	0	; () banked
  2139   003D66  6F84               	movwf	timer0_InterruptConfigure@error_state& (0+255),b
  2140   003D68                     
  2141                           ; BSR set to: 0
  2142                           ;MCAL_layer/TIMER0/timer0.c: 303:         Timer0_InterruptHandler = timer0_obj->Timer0In
      +                          terrupt ;
  2143   003D68  C080  FFD9         	movff	timer0_InterruptConfigure@timer0_obj,fsr2l
  2144   003D6C  C081  FFDA         	movff	timer0_InterruptConfigure@timer0_obj+1,fsr2h
  2145   003D70  CFDE F047          	movff	postinc2,_Timer0_InterruptHandler
  2146   003D74  CFDD F048          	movff	postdec2,_Timer0_InterruptHandler+1
  2147   003D78                     
  2148                           ; BSR set to: 0
  2149                           ;MCAL_layer/TIMER0/timer0.c: 305:         (INTCONbits.TMR0IE= 1);
  2150   003D78  8AF2               	bsf	242,5,c	;volatile
  2151   003D7A                     l9396:
  2152                           
  2153                           ; BSR set to: 0
  2154                           ;MCAL_layer/TIMER0/timer0.c: 307:     return error_state ;
  2155   003D7A  5184               	movf	timer0_InterruptConfigure@error_state& (0+255),w,b
  2156   003D7C                     
  2157                           ; BSR set to: 0
  2158   003D7C  0012               	return		;funcret
  2159   003D7E                     __end_of_timer0_InterruptConfigure:
  2160                           	callstack 0
  2161                           
  2162 ;; *************** function _EUSART_ASYNC_Init *****************
  2163 ;; Defined at:
  2164 ;;		line 35 in file "MCAL_layer/EUSART/mcal_eusart.c"
  2165 ;; Parameters:    Size  Location     Type
  2166 ;;  _eusart         2   59[BANK0 ] PTR const struct .
  2167 ;;		 -> master_uart(14), 
  2168 ;; Auto vars:     Size  Location     Type
  2169 ;;  error_state     1    0        unsigned char 
  2170 ;; Return value:  Size  Location     Type
  2171 ;;                  1    wreg      unsigned char 
  2172 ;; Registers used:
  2173 ;;		wreg, fsr2l, fsr2h, status,2, status,0, cstack
  2174 ;; Tracked objects:
  2175 ;;		On entry : 0/0
  2176 ;;		On exit  : 0/0
  2177 ;;		Unchanged: 0/0
  2178 ;; Data sizes:     COMRAM   BANK0   BANK1   BANK2   BANK3   BANK4   BANK5   BANK6   BANK7   BANK8   BANK9  BANK10  BANK1
      +1  BANK12  BANK13  BANK14  BANK15
  2179 ;;      Params:         0       2       0       0       0       0       0       0       0       0       0       0       
      +0       0       0       0       0
  2180 ;;      Locals:         0       0       0       0       0       0       0       0       0       0       0       0       
      +0       0       0       0       0
  2181 ;;      Temps:          0       0       0       0       0       0       0       0       0       0       0       0       
      +0       0       0       0       0
  2182 ;;      Totals:         0       2       0       0       0       0       0       0       0       0       0       0       
      +0       0       0       0       0
  2183 ;;Total ram usage:        2 bytes
  2184 ;; Hardware stack levels used: 1
  2185 ;; Hardware stack levels required when called: 9
  2186 ;; This function calls:
  2187 ;;		_eusart_async_baudrate_calculation
  2188 ;;		_eusart_async_rx_configure
  2189 ;;		_eusart_async_tx_configure
  2190 ;; This function is called by:
  2191 ;;		_mcal_layer_initialize
  2192 ;; This function uses a non-reentrant model
  2193 ;;
  2194                           
  2195                           	psect	text10
  2196   003D7E                     __ptext10:
  2197                           	callstack 0
  2198   003D7E                     _EUSART_ASYNC_Init:
  2199                           	callstack 19
  2200   003D7E                     
  2201                           ;MCAL_layer/EUSART/mcal_eusart.c: 37:     if(((void*)0) == _eusart){
  2202   003D7E  0100               	movlb	0	; () banked
  2203   003D80  51BB               	movf	EUSART_ASYNC_Init@_eusart& (0+255),w,b
  2204   003D82  11BC               	iorwf	(EUSART_ASYNC_Init@_eusart+1)& (0+255),w,b
  2205   003D84  A4D8               	btfss	status,2,c
  2206   003D86  EFC7  F01E         	goto	u8541
  2207   003D8A  EFC9  F01E         	goto	u8540
  2208   003D8E                     u8541:
  2209   003D8E  EFCB  F01E         	goto	l622
  2210   003D92                     u8540:
  2211   003D92                     
  2212                           ; BSR set to: 0
  2213                           ;MCAL_layer/EUSART/mcal_eusart.c: 39:     }
  2214   003D92  EFE1  F01E         	goto	l624
  2215   003D96                     l622:
  2216                           
  2217                           ; BSR set to: 0
  2218                           ;MCAL_layer/EUSART/mcal_eusart.c: 42:         (RCSTAbits.SPEN = 0);
  2219   003D96  9EAB               	bcf	171,7,c	;volatile
  2220                           
  2221                           ;MCAL_layer/EUSART/mcal_eusart.c: 43:         TRISCbits.RC7 = 1 ;
  2222   003D98  8E94               	bsf	148,7,c	;volatile
  2223                           
  2224                           ;MCAL_layer/EUSART/mcal_eusart.c: 44:         TRISCbits.RC6 = 1 ;
  2225   003D9A  8C94               	bsf	148,6,c	;volatile
  2226   003D9C                     
  2227                           ; BSR set to: 0
  2228                           ;MCAL_layer/EUSART/mcal_eusart.c: 46:         eusart_async_baudrate_calculation (_eusart
      +                          ) ;
  2229   003D9C  C0BB  F0B7         	movff	EUSART_ASYNC_Init@_eusart,eusart_async_baudrate_calculation@_eusart
  2230   003DA0  C0BC  F0B8         	movff	EUSART_ASYNC_Init@_eusart+1,eusart_async_baudrate_calculation@_eusart+1
  2231   003DA4  EC0A  F008         	call	_eusart_async_baudrate_calculation	;wreg free
  2232                           
  2233                           ;MCAL_layer/EUSART/mcal_eusart.c: 48:         eusart_async_tx_configure(_eusart);
  2234   003DA8  C0BB  F080         	movff	EUSART_ASYNC_Init@_eusart,eusart_async_tx_configure@_eusart
  2235   003DAC  C0BC  F081         	movff	EUSART_ASYNC_Init@_eusart+1,eusart_async_tx_configure@_eusart+1
  2236   003DB0  EC92  F018         	call	_eusart_async_tx_configure	;wreg free
  2237                           
  2238                           ;MCAL_layer/EUSART/mcal_eusart.c: 50:         eusart_async_rx_configure(_eusart);
  2239   003DB4  C0BB  F080         	movff	EUSART_ASYNC_Init@_eusart,eusart_async_rx_configure@_eusart
  2240   003DB8  C0BC  F081         	movff	EUSART_ASYNC_Init@_eusart+1,eusart_async_rx_configure@_eusart+1
  2241   003DBC  ECCB  F015         	call	_eusart_async_rx_configure	;wreg free
  2242   003DC0                     
  2243                           ;MCAL_layer/EUSART/mcal_eusart.c: 52:         (RCSTAbits.SPEN = 1);
  2244   003DC0  8EAB               	bsf	171,7,c	;volatile
  2245   003DC2                     l624:
  2246   003DC2  0012               	return		;funcret
  2247   003DC4                     __end_of_EUSART_ASYNC_Init:
  2248                           	callstack 0
  2249                           
  2250 ;; *************** function _eusart_async_tx_configure *****************
  2251 ;; Defined at:
  2252 ;;		line 204 in file "MCAL_layer/EUSART/mcal_eusart.c"
  2253 ;; Parameters:    Size  Location     Type
  2254 ;;  _eusart         2    0[BANK0 ] PTR const struct .
  2255 ;;		 -> master_uart(14), 
  2256 ;; Auto vars:     Size  Location     Type
  2257 ;;		None
  2258 ;; Return value:  Size  Location     Type
  2259 ;;                  1    wreg      void 
  2260 ;; Registers used:
  2261 ;;		wreg, fsr2l, fsr2h, status,2, status,0
  2262 ;; Tracked objects:
  2263 ;;		On entry : 0/0
  2264 ;;		On exit  : 0/0
  2265 ;;		Unchanged: 0/0
  2266 ;; Data sizes:     COMRAM   BANK0   BANK1   BANK2   BANK3   BANK4   BANK5   BANK6   BANK7   BANK8   BANK9  BANK10  BANK1
      +1  BANK12  BANK13  BANK14  BANK15
  2267 ;;      Params:         0       2       0       0       0       0       0       0       0       0       0       0       
      +0       0       0       0       0
  2268 ;;      Locals:         0       0       0       0       0       0       0       0       0       0       0       0       
      +0       0       0       0       0
  2269 ;;      Temps:          0       0       0       0       0       0       0       0       0       0       0       0       
      +0       0       0       0       0
  2270 ;;      Totals:         0       2       0       0       0       0       0       0       0       0       0       0       
      +0       0       0       0       0
  2271 ;;Total ram usage:        2 bytes
  2272 ;; Hardware stack levels used: 1
  2273 ;; Hardware stack levels required when called: 7
  2274 ;; This function calls:
  2275 ;;		Nothing
  2276 ;; This function is called by:
  2277 ;;		_EUSART_ASYNC_Init
  2278 ;; This function uses a non-reentrant model
  2279 ;;
  2280                           
  2281                           	psect	text11
  2282   003124                     __ptext11:
  2283                           	callstack 0
  2284   003124                     _eusart_async_tx_configure:
  2285                           	callstack 20
  2286   003124                     
  2287                           ;MCAL_layer/EUSART/mcal_eusart.c: 205:     if(_eusart->tx_cfg.eusart_tx_enable == 0){
  2288   003124  0100               	movlb	0	; () banked
  2289   003126  EE20 F003          	lfsr	2,3
  2290   00312A  5180               	movf	eusart_async_tx_configure@_eusart& (0+255),w,b
  2291   00312C  26D9               	addwf	fsr2l,f,c
  2292   00312E  5181               	movf	(eusart_async_tx_configure@_eusart+1)& (0+255),w,b
  2293   003130  22DA               	addwfc	fsr2h,f,c
  2294   003132  BADF               	btfsc	indf2,5,c
  2295   003134  EF9E  F018         	goto	u8271
  2296   003138  EFA0  F018         	goto	u8270
  2297   00313C                     u8271:
  2298   00313C  EFA3  F018         	goto	l9256
  2299   003140                     u8270:
  2300   003140                     
  2301                           ; BSR set to: 0
  2302                           ;MCAL_layer/EUSART/mcal_eusart.c: 206:         (TXSTAbits.TXEN = 0);
  2303   003140  9AAC               	bcf	172,5,c	;volatile
  2304                           
  2305                           ;MCAL_layer/EUSART/mcal_eusart.c: 207:     }
  2306   003142  EFFB  F018         	goto	l682
  2307   003146                     l9256:
  2308                           
  2309                           ; BSR set to: 0
  2310   003146  EE20 F003          	lfsr	2,3
  2311   00314A  5180               	movf	eusart_async_tx_configure@_eusart& (0+255),w,b
  2312   00314C  26D9               	addwf	fsr2l,f,c
  2313   00314E  5181               	movf	(eusart_async_tx_configure@_eusart+1)& (0+255),w,b
  2314   003150  22DA               	addwfc	fsr2h,f,c
  2315   003152  AADF               	btfss	indf2,5,c
  2316   003154  EFAE  F018         	goto	u8281
  2317   003158  EFB0  F018         	goto	u8280
  2318   00315C                     u8281:
  2319   00315C  EFFB  F018         	goto	l682
  2320   003160                     u8280:
  2321   003160                     
  2322                           ; BSR set to: 0
  2323                           ;MCAL_layer/EUSART/mcal_eusart.c: 209:         (TXSTAbits.TXEN = 1);
  2324   003160  8AAC               	bsf	172,5,c	;volatile
  2325   003162                     
  2326                           ; BSR set to: 0
  2327                           ;MCAL_layer/EUSART/mcal_eusart.c: 211:         if(_eusart->tx_cfg.eusart_tx_interrupt_en
      +                          able == 0){
  2328   003162  EE20 F003          	lfsr	2,3
  2329   003166  5180               	movf	eusart_async_tx_configure@_eusart& (0+255),w,b
  2330   003168  26D9               	addwf	fsr2l,f,c
  2331   00316A  5181               	movf	(eusart_async_tx_configure@_eusart+1)& (0+255),w,b
  2332   00316C  22DA               	addwfc	fsr2h,f,c
  2333   00316E  BCDF               	btfsc	indf2,6,c
  2334   003170  EFBC  F018         	goto	u8291
  2335   003174  EFBE  F018         	goto	u8290
  2336   003178                     u8291:
  2337   003178  EFC1  F018         	goto	l9264
  2338   00317C                     u8290:
  2339   00317C                     
  2340                           ; BSR set to: 0
  2341                           ;MCAL_layer/EUSART/mcal_eusart.c: 212:             (PIE1bits.TXIE = 0);
  2342   00317C  989D               	bcf	157,4,c	;volatile
  2343                           
  2344                           ;MCAL_layer/EUSART/mcal_eusart.c: 213:         }
  2345   00317E  EFDB  F018         	goto	l9274
  2346   003182                     l9264:
  2347                           
  2348                           ; BSR set to: 0
  2349   003182  EE20 F003          	lfsr	2,3
  2350   003186  5180               	movf	eusart_async_tx_configure@_eusart& (0+255),w,b
  2351   003188  26D9               	addwf	fsr2l,f,c
  2352   00318A  5181               	movf	(eusart_async_tx_configure@_eusart+1)& (0+255),w,b
  2353   00318C  22DA               	addwfc	fsr2h,f,c
  2354   00318E  ACDF               	btfss	indf2,6,c
  2355   003190  EFCC  F018         	goto	u8301
  2356   003194  EFCE  F018         	goto	u8300
  2357   003198                     u8301:
  2358   003198  EFDB  F018         	goto	l9274
  2359   00319C                     u8300:
  2360   00319C                     
  2361                           ; BSR set to: 0
  2362                           ;MCAL_layer/EUSART/mcal_eusart.c: 217:             EUSART_ASYNC_TX_InterruptHandler = _e
      +                          usart->EUSART_TXDefaultInterruptHandler ;
  2363   00319C  EE20 F006          	lfsr	2,6
  2364   0031A0  5180               	movf	eusart_async_tx_configure@_eusart& (0+255),w,b
  2365   0031A2  26D9               	addwf	fsr2l,f,c
  2366   0031A4  5181               	movf	(eusart_async_tx_configure@_eusart+1)& (0+255),w,b
  2367   0031A6  22DA               	addwfc	fsr2h,f,c
  2368   0031A8  CFDE F067          	movff	postinc2,_EUSART_ASYNC_TX_InterruptHandler
  2369   0031AC  CFDD F068          	movff	postdec2,_EUSART_ASYNC_TX_InterruptHandler+1
  2370   0031B0                     
  2371                           ; BSR set to: 0
  2372                           ;MCAL_layer/EUSART/mcal_eusart.c: 232:             (INTCONbits.GIE = 1);
  2373   0031B0  8EF2               	bsf	242,7,c	;volatile
  2374   0031B2                     
  2375                           ; BSR set to: 0
  2376                           ;MCAL_layer/EUSART/mcal_eusart.c: 233:             (INTCONbits.PEIE = 1);
  2377   0031B2  8CF2               	bsf	242,6,c	;volatile
  2378   0031B4                     
  2379                           ; BSR set to: 0
  2380                           ;MCAL_layer/EUSART/mcal_eusart.c: 235:             (PIE1bits.TXIE = 1);
  2381   0031B4  889D               	bsf	157,4,c	;volatile
  2382   0031B6                     l9274:
  2383                           
  2384                           ; BSR set to: 0
  2385                           ;MCAL_layer/EUSART/mcal_eusart.c: 240:         if(_eusart->tx_cfg.eusart_tx_9bit_enable 
      +                          == 0){
  2386   0031B6  EE20 F003          	lfsr	2,3
  2387   0031BA  5180               	movf	eusart_async_tx_configure@_eusart& (0+255),w,b
  2388   0031BC  26D9               	addwf	fsr2l,f,c
  2389   0031BE  5181               	movf	(eusart_async_tx_configure@_eusart+1)& (0+255),w,b
  2390   0031C0  22DA               	addwfc	fsr2h,f,c
  2391   0031C2  BEDF               	btfsc	indf2,7,c
  2392   0031C4  EFE6  F018         	goto	u8311
  2393   0031C8  EFE8  F018         	goto	u8310
  2394   0031CC                     u8311:
  2395   0031CC  EFEB  F018         	goto	l9278
  2396   0031D0                     u8310:
  2397   0031D0                     
  2398                           ; BSR set to: 0
  2399                           ;MCAL_layer/EUSART/mcal_eusart.c: 241:             (TXSTAbits.TX9 = 0);
  2400   0031D0  9CAC               	bcf	172,6,c	;volatile
  2401                           
  2402                           ;MCAL_layer/EUSART/mcal_eusart.c: 242:         }
  2403   0031D2  EFFB  F018         	goto	l682
  2404   0031D6                     l9278:
  2405                           
  2406                           ; BSR set to: 0
  2407   0031D6  EE20 F003          	lfsr	2,3
  2408   0031DA  5180               	movf	eusart_async_tx_configure@_eusart& (0+255),w,b
  2409   0031DC  26D9               	addwf	fsr2l,f,c
  2410   0031DE  5181               	movf	(eusart_async_tx_configure@_eusart+1)& (0+255),w,b
  2411   0031E0  22DA               	addwfc	fsr2h,f,c
  2412   0031E2  AEDF               	btfss	indf2,7,c
  2413   0031E4  EFF6  F018         	goto	u8321
  2414   0031E8  EFF8  F018         	goto	u8320
  2415   0031EC                     u8321:
  2416   0031EC  EFFB  F018         	goto	l681
  2417   0031F0                     u8320:
  2418   0031F0                     
  2419                           ; BSR set to: 0
  2420                           ;MCAL_layer/EUSART/mcal_eusart.c: 244:             (TXSTAbits.TX9 = 1);
  2421   0031F0  8CAC               	bsf	172,6,c	;volatile
  2422                           
  2423                           ;MCAL_layer/EUSART/mcal_eusart.c: 245:         }
  2424   0031F2  EFFB  F018         	goto	l682
  2425   0031F6                     l681:
  2426   0031F6                     l682:
  2427                           
  2428                           ; BSR set to: 0
  2429   0031F6  0012               	return		;funcret
  2430   0031F8                     __end_of_eusart_async_tx_configure:
  2431                           	callstack 0
  2432                           
  2433 ;; *************** function _eusart_async_rx_configure *****************
  2434 ;; Defined at:
  2435 ;;		line 250 in file "MCAL_layer/EUSART/mcal_eusart.c"
  2436 ;; Parameters:    Size  Location     Type
  2437 ;;  _eusart         2    0[BANK0 ] PTR const struct .
  2438 ;;		 -> master_uart(14), 
  2439 ;; Auto vars:     Size  Location     Type
  2440 ;;		None
  2441 ;; Return value:  Size  Location     Type
  2442 ;;                  1    wreg      void 
  2443 ;; Registers used:
  2444 ;;		wreg, fsr2l, fsr2h, status,2, status,0
  2445 ;; Tracked objects:
  2446 ;;		On entry : 0/0
  2447 ;;		On exit  : 0/0
  2448 ;;		Unchanged: 0/0
  2449 ;; Data sizes:     COMRAM   BANK0   BANK1   BANK2   BANK3   BANK4   BANK5   BANK6   BANK7   BANK8   BANK9  BANK10  BANK1
      +1  BANK12  BANK13  BANK14  BANK15
  2450 ;;      Params:         0       2       0       0       0       0       0       0       0       0       0       0       
      +0       0       0       0       0
  2451 ;;      Locals:         0       0       0       0       0       0       0       0       0       0       0       0       
      +0       0       0       0       0
  2452 ;;      Temps:          0       0       0       0       0       0       0       0       0       0       0       0       
      +0       0       0       0       0
  2453 ;;      Totals:         0       2       0       0       0       0       0       0       0       0       0       0       
      +0       0       0       0       0
  2454 ;;Total ram usage:        2 bytes
  2455 ;; Hardware stack levels used: 1
  2456 ;; Hardware stack levels required when called: 7
  2457 ;; This function calls:
  2458 ;;		Nothing
  2459 ;; This function is called by:
  2460 ;;		_EUSART_ASYNC_Init
  2461 ;; This function uses a non-reentrant model
  2462 ;;
  2463                           
  2464                           	psect	text12
  2465   002B96                     __ptext12:
  2466                           	callstack 0
  2467   002B96                     _eusart_async_rx_configure:
  2468                           	callstack 20
  2469   002B96                     
  2470                           ;MCAL_layer/EUSART/mcal_eusart.c: 251:     if(_eusart->rx_cfg.eusart_rx_enable == 0){
  2471   002B96  0100               	movlb	0	; () banked
  2472   002B98  EE20 F004          	lfsr	2,4
  2473   002B9C  5180               	movf	eusart_async_rx_configure@_eusart& (0+255),w,b
  2474   002B9E  26D9               	addwf	fsr2l,f,c
  2475   002BA0  5181               	movf	(eusart_async_rx_configure@_eusart+1)& (0+255),w,b
  2476   002BA2  22DA               	addwfc	fsr2h,f,c
  2477   002BA4  BADF               	btfsc	indf2,5,c
  2478   002BA6  EFD7  F015         	goto	u8331
  2479   002BAA  EFD9  F015         	goto	u8330
  2480   002BAE                     u8331:
  2481   002BAE  EFDC  F015         	goto	l9286
  2482   002BB2                     u8330:
  2483   002BB2                     
  2484                           ; BSR set to: 0
  2485                           ;MCAL_layer/EUSART/mcal_eusart.c: 252:         (RCSTAbits.CREN = 0);
  2486   002BB2  98AB               	bcf	171,4,c	;volatile
  2487                           
  2488                           ;MCAL_layer/EUSART/mcal_eusart.c: 253:     }
  2489   002BB4  EF48  F016         	goto	l697
  2490   002BB8                     l9286:
  2491                           
  2492                           ; BSR set to: 0
  2493   002BB8  EE20 F004          	lfsr	2,4
  2494   002BBC  5180               	movf	eusart_async_rx_configure@_eusart& (0+255),w,b
  2495   002BBE  26D9               	addwf	fsr2l,f,c
  2496   002BC0  5181               	movf	(eusart_async_rx_configure@_eusart+1)& (0+255),w,b
  2497   002BC2  22DA               	addwfc	fsr2h,f,c
  2498   002BC4  AADF               	btfss	indf2,5,c
  2499   002BC6  EFE7  F015         	goto	u8341
  2500   002BCA  EFE9  F015         	goto	u8340
  2501   002BCE                     u8341:
  2502   002BCE  EF48  F016         	goto	l697
  2503   002BD2                     u8340:
  2504   002BD2                     
  2505                           ; BSR set to: 0
  2506                           ;MCAL_layer/EUSART/mcal_eusart.c: 255:         (RCSTAbits.CREN = 1);
  2507   002BD2  88AB               	bsf	171,4,c	;volatile
  2508   002BD4                     
  2509                           ; BSR set to: 0
  2510                           ;MCAL_layer/EUSART/mcal_eusart.c: 257:         if(_eusart->rx_cfg.eusart_rx_interrupt_en
      +                          able == 0){
  2511   002BD4  EE20 F004          	lfsr	2,4
  2512   002BD8  5180               	movf	eusart_async_rx_configure@_eusart& (0+255),w,b
  2513   002BDA  26D9               	addwf	fsr2l,f,c
  2514   002BDC  5181               	movf	(eusart_async_rx_configure@_eusart+1)& (0+255),w,b
  2515   002BDE  22DA               	addwfc	fsr2h,f,c
  2516   002BE0  BCDF               	btfsc	indf2,6,c
  2517   002BE2  EFF5  F015         	goto	u8351
  2518   002BE6  EFF7  F015         	goto	u8350
  2519   002BEA                     u8351:
  2520   002BEA  EFFA  F015         	goto	l9294
  2521   002BEE                     u8350:
  2522   002BEE                     
  2523                           ; BSR set to: 0
  2524                           ;MCAL_layer/EUSART/mcal_eusart.c: 258:             (PIE1bits.RCIE = 0);
  2525   002BEE  9A9D               	bcf	157,5,c	;volatile
  2526                           
  2527                           ;MCAL_layer/EUSART/mcal_eusart.c: 259:         }
  2528   002BF0  EF28  F016         	goto	l9304
  2529   002BF4                     l9294:
  2530                           
  2531                           ; BSR set to: 0
  2532   002BF4  EE20 F004          	lfsr	2,4
  2533   002BF8  5180               	movf	eusart_async_rx_configure@_eusart& (0+255),w,b
  2534   002BFA  26D9               	addwf	fsr2l,f,c
  2535   002BFC  5181               	movf	(eusart_async_rx_configure@_eusart+1)& (0+255),w,b
  2536   002BFE  22DA               	addwfc	fsr2h,f,c
  2537   002C00  ACDF               	btfss	indf2,6,c
  2538   002C02  EF05  F016         	goto	u8361
  2539   002C06  EF07  F016         	goto	u8360
  2540   002C0A                     u8361:
  2541   002C0A  EF28  F016         	goto	l9304
  2542   002C0E                     u8360:
  2543   002C0E                     
  2544                           ; BSR set to: 0
  2545                           ;MCAL_layer/EUSART/mcal_eusart.c: 263:             EUSART_ASYNC_RX_InterruptHandler = _e
      +                          usart->EUSART_RXDefaultInterruptHandler ;
  2546   002C0E  EE20 F008          	lfsr	2,8
  2547   002C12  5180               	movf	eusart_async_rx_configure@_eusart& (0+255),w,b
  2548   002C14  26D9               	addwf	fsr2l,f,c
  2549   002C16  5181               	movf	(eusart_async_rx_configure@_eusart+1)& (0+255),w,b
  2550   002C18  22DA               	addwfc	fsr2h,f,c
  2551   002C1A  CFDE F065          	movff	postinc2,_EUSART_ASYNC_RX_InterruptHandler
  2552   002C1E  CFDD F066          	movff	postdec2,_EUSART_ASYNC_RX_InterruptHandler+1
  2553                           
  2554                           ;MCAL_layer/EUSART/mcal_eusart.c: 264:             EUSART_ASYNC_OverRunErrorHandler = _e
      +                          usart->EUSART_OverRunErrorHandler ;
  2555   002C22  EE20 F00C          	lfsr	2,12
  2556   002C26  5180               	movf	eusart_async_rx_configure@_eusart& (0+255),w,b
  2557   002C28  26D9               	addwf	fsr2l,f,c
  2558   002C2A  5181               	movf	(eusart_async_rx_configure@_eusart+1)& (0+255),w,b
  2559   002C2C  22DA               	addwfc	fsr2h,f,c
  2560   002C2E  CFDE F061          	movff	postinc2,_EUSART_ASYNC_OverRunErrorHandler
  2561   002C32  CFDD F062          	movff	postdec2,_EUSART_ASYNC_OverRunErrorHandler+1
  2562                           
  2563                           ;MCAL_layer/EUSART/mcal_eusart.c: 265:             EUSART_ASYNC_FramingErrorHandler = _e
      +                          usart->EUSART_FramingErrorHandler ;
  2564   002C36  EE20 F00A          	lfsr	2,10
  2565   002C3A  5180               	movf	eusart_async_rx_configure@_eusart& (0+255),w,b
  2566   002C3C  26D9               	addwf	fsr2l,f,c
  2567   002C3E  5181               	movf	(eusart_async_rx_configure@_eusart+1)& (0+255),w,b
  2568   002C40  22DA               	addwfc	fsr2h,f,c
  2569   002C42  CFDE F063          	movff	postinc2,_EUSART_ASYNC_FramingErrorHandler
  2570   002C46  CFDD F064          	movff	postdec2,_EUSART_ASYNC_FramingErrorHandler+1
  2571   002C4A                     
  2572                           ; BSR set to: 0
  2573                           ;MCAL_layer/EUSART/mcal_eusart.c: 280:             (INTCONbits.GIE = 1);
  2574   002C4A  8EF2               	bsf	242,7,c	;volatile
  2575   002C4C                     
  2576                           ; BSR set to: 0
  2577                           ;MCAL_layer/EUSART/mcal_eusart.c: 281:             (INTCONbits.PEIE = 1);
  2578   002C4C  8CF2               	bsf	242,6,c	;volatile
  2579   002C4E                     
  2580                           ; BSR set to: 0
  2581                           ;MCAL_layer/EUSART/mcal_eusart.c: 283:             (PIE1bits.RCIE = 1);
  2582   002C4E  8A9D               	bsf	157,5,c	;volatile
  2583   002C50                     l9304:
  2584                           
  2585                           ; BSR set to: 0
  2586                           ;MCAL_layer/EUSART/mcal_eusart.c: 288:         if(_eusart->rx_cfg.eusart_rx_9bit_enable 
      +                          == 0){
  2587   002C50  EE20 F004          	lfsr	2,4
  2588   002C54  5180               	movf	eusart_async_rx_configure@_eusart& (0+255),w,b
  2589   002C56  26D9               	addwf	fsr2l,f,c
  2590   002C58  5181               	movf	(eusart_async_rx_configure@_eusart+1)& (0+255),w,b
  2591   002C5A  22DA               	addwfc	fsr2h,f,c
  2592   002C5C  BEDF               	btfsc	indf2,7,c
  2593   002C5E  EF33  F016         	goto	u8371
  2594   002C62  EF35  F016         	goto	u8370
  2595   002C66                     u8371:
  2596   002C66  EF38  F016         	goto	l9308
  2597   002C6A                     u8370:
  2598   002C6A                     
  2599                           ; BSR set to: 0
  2600                           ;MCAL_layer/EUSART/mcal_eusart.c: 289:             (RCSTAbits.RX9 = 0);
  2601   002C6A  9CAB               	bcf	171,6,c	;volatile
  2602                           
  2603                           ;MCAL_layer/EUSART/mcal_eusart.c: 290:         }
  2604   002C6C  EF48  F016         	goto	l697
  2605   002C70                     l9308:
  2606                           
  2607                           ; BSR set to: 0
  2608   002C70  EE20 F004          	lfsr	2,4
  2609   002C74  5180               	movf	eusart_async_rx_configure@_eusart& (0+255),w,b
  2610   002C76  26D9               	addwf	fsr2l,f,c
  2611   002C78  5181               	movf	(eusart_async_rx_configure@_eusart+1)& (0+255),w,b
  2612   002C7A  22DA               	addwfc	fsr2h,f,c
  2613   002C7C  AEDF               	btfss	indf2,7,c
  2614   002C7E  EF43  F016         	goto	u8381
  2615   002C82  EF45  F016         	goto	u8380
  2616   002C86                     u8381:
  2617   002C86  EF48  F016         	goto	l696
  2618   002C8A                     u8380:
  2619   002C8A                     
  2620                           ; BSR set to: 0
  2621                           ;MCAL_layer/EUSART/mcal_eusart.c: 292:             (RCSTAbits.RX9 = 1);
  2622   002C8A  8CAB               	bsf	171,6,c	;volatile
  2623                           
  2624                           ;MCAL_layer/EUSART/mcal_eusart.c: 293:         }
  2625   002C8C  EF48  F016         	goto	l697
  2626   002C90                     l696:
  2627   002C90                     l697:
  2628                           
  2629                           ; BSR set to: 0
  2630   002C90  0012               	return		;funcret
  2631   002C92                     __end_of_eusart_async_rx_configure:
  2632                           	callstack 0
  2633                           
  2634 ;; *************** function _eusart_async_baudrate_calculation *****************
  2635 ;; Defined at:
  2636 ;;		line 154 in file "MCAL_layer/EUSART/mcal_eusart.c"
  2637 ;; Parameters:    Size  Location     Type
  2638 ;;  _eusart         2   55[BANK0 ] PTR const struct .
  2639 ;;		 -> master_uart(14), 
  2640 ;; Auto vars:     Size  Location     Type
  2641 ;;  BRG_value       4    4[BANK1 ] float 
  2642 ;; Return value:  Size  Location     Type
  2643 ;;                  1    wreg      void 
  2644 ;; Registers used:
  2645 ;;		wreg, fsr2l, fsr2h, status,2, status,0, cstack
  2646 ;; Tracked objects:
  2647 ;;		On entry : 0/0
  2648 ;;		On exit  : 0/0
  2649 ;;		Unchanged: 0/0
  2650 ;; Data sizes:     COMRAM   BANK0   BANK1   BANK2   BANK3   BANK4   BANK5   BANK6   BANK7   BANK8   BANK9  BANK10  BANK1
      +1  BANK12  BANK13  BANK14  BANK15
  2651 ;;      Params:         0       2       0       0       0       0       0       0       0       0       0       0       
      +0       0       0       0       0
  2652 ;;      Locals:         0       0       8       0       0       0       0       0       0       0       0       0       
      +0       0       0       0       0
  2653 ;;      Temps:          0       2       0       0       0       0       0       0       0       0       0       0       
      +0       0       0       0       0
  2654 ;;      Totals:         0       4       8       0       0       0       0       0       0       0       0       0       
      +0       0       0       0       0
  2655 ;;Total ram usage:       12 bytes
  2656 ;; Hardware stack levels used: 1
  2657 ;; Hardware stack levels required when called: 8
  2658 ;; This function calls:
  2659 ;;		___fladd
  2660 ;;		___fldiv
  2661 ;;		___fltol
  2662 ;;		___xxtofl
  2663 ;; This function is called by:
  2664 ;;		_EUSART_ASYNC_Init
  2665 ;; This function uses a non-reentrant model
  2666 ;;
  2667                           
  2668                           	psect	text13
  2669   001014                     __ptext13:
  2670                           	callstack 0
  2671   001014                     _eusart_async_baudrate_calculation:
  2672                           	callstack 19
  2673   001014                     
  2674                           ;MCAL_layer/EUSART/mcal_eusart.c: 156:     switch (_eusart->baudrate_gen_mode){
  2675   001014  EF6E  F00A         	goto	l9244
  2676   001018                     l659:
  2677                           
  2678                           ; BSR set to: 0
  2679                           ;MCAL_layer/EUSART/mcal_eusart.c: 158:                 TXSTAbits. BRGH = 0 ;
  2680   001018  94AC               	bcf	172,2,c	;volatile
  2681                           
  2682                           ;MCAL_layer/EUSART/mcal_eusart.c: 159:                 BAUDCONbits.BRG16 = 0 ;
  2683   00101A  96B8               	bcf	184,3,c	;volatile
  2684                           
  2685                           ;MCAL_layer/EUSART/mcal_eusart.c: 160:                 TXSTAbits. SYNC = 0 ;
  2686   00101C  98AC               	bcf	172,4,c	;volatile
  2687   00101E                     
  2688                           ; BSR set to: 0
  2689                           ;MCAL_layer/EUSART/mcal_eusart.c: 161:                 BRG_value = ((8000000UL/(float)(_
      +                          eusart->baudrate))/64)-1 ;
  2690   00101E  C0B7  FFD9         	movff	eusart_async_baudrate_calculation@_eusart,fsr2l
  2691   001022  C0B8  FFDA         	movff	eusart_async_baudrate_calculation@_eusart+1,fsr2h
  2692   001026  CFDE F0B9          	movff	postinc2,??_eusart_async_baudrate_calculation
  2693   00102A  CFDD F0BA          	movff	postdec2,??_eusart_async_baudrate_calculation+1
  2694   00102E  C0B9  F080         	movff	??_eusart_async_baudrate_calculation,___xxtofl@val
  2695   001032  C0BA  F081         	movff	??_eusart_async_baudrate_calculation+1,___xxtofl@val+1
  2696   001036  6B82               	clrf	(___xxtofl@val+2)& (0+255),b
  2697   001038  6B83               	clrf	(___xxtofl@val+3)& (0+255),b
  2698   00103A  0E00               	movlw	0
  2699   00103C  EC65  F012         	call	___xxtofl
  2700   001040  C080  F092         	movff	?___xxtofl,___fldiv@a
  2701   001044  C081  F093         	movff	?___xxtofl+1,___fldiv@a+1
  2702   001048  C082  F094         	movff	?___xxtofl+2,___fldiv@a+2
  2703   00104C  C083  F095         	movff	?___xxtofl+3,___fldiv@a+3
  2704   001050  0E00               	movlw	0
  2705   001052  0100               	movlb	0	; () banked
  2706   001054  6F8E               	movwf	___fldiv@b& (0+255),b
  2707   001056  0E24               	movlw	36
  2708   001058  6F8F               	movwf	(___fldiv@b+1)& (0+255),b
  2709   00105A  0EF4               	movlw	244
  2710   00105C  6F90               	movwf	(___fldiv@b+2)& (0+255),b
  2711   00105E  0E4A               	movlw	74
  2712   001060  6F91               	movwf	(___fldiv@b+3)& (0+255),b
  2713   001062  EC11  F00F         	call	___fldiv	;wreg free
  2714   001066  C08E  F133         	movff	?___fldiv,_eusart_async_baudrate_calculation$5232
  2715   00106A  C08F  F134         	movff	?___fldiv+1,_eusart_async_baudrate_calculation$5232+1
  2716   00106E  C090  F135         	movff	?___fldiv+2,_eusart_async_baudrate_calculation$5232+2
  2717   001072  C091  F136         	movff	?___fldiv+3,_eusart_async_baudrate_calculation$5232+3
  2718   001076                     
  2719                           ;MCAL_layer/EUSART/mcal_eusart.c: 161:                 BRG_value = ((8000000UL/(float)(_
      +                          eusart->baudrate))/64)-1 ;
  2720   001076  0E00               	movlw	0
  2721   001078  0100               	movlb	0	; () banked
  2722   00107A  6F92               	movwf	___fldiv@a& (0+255),b
  2723   00107C  0E00               	movlw	0
  2724   00107E  6F93               	movwf	(___fldiv@a+1)& (0+255),b
  2725   001080  0E80               	movlw	128
  2726   001082  6F94               	movwf	(___fldiv@a+2)& (0+255),b
  2727   001084  0E42               	movlw	66
  2728   001086  6F95               	movwf	(___fldiv@a+3)& (0+255),b
  2729   001088  C133  F08E         	movff	_eusart_async_baudrate_calculation$5232,___fldiv@b
  2730   00108C  C134  F08F         	movff	_eusart_async_baudrate_calculation$5232+1,___fldiv@b+1
  2731   001090  C135  F090         	movff	_eusart_async_baudrate_calculation$5232+2,___fldiv@b+2
  2732   001094  C136  F091         	movff	_eusart_async_baudrate_calculation$5232+3,___fldiv@b+3
  2733   001098  EC11  F00F         	call	___fldiv	;wreg free
  2734   00109C  C08E  F0A7         	movff	?___fldiv,___fladd@b
  2735   0010A0  C08F  F0A8         	movff	?___fldiv+1,___fladd@b+1
  2736   0010A4  C090  F0A9         	movff	?___fldiv+2,___fladd@b+2
  2737   0010A8  C091  F0AA         	movff	?___fldiv+3,___fladd@b+3
  2738   0010AC  0E00               	movlw	0
  2739   0010AE  0100               	movlb	0	; () banked
  2740   0010B0  6FAB               	movwf	___fladd@a& (0+255),b
  2741   0010B2  0E00               	movlw	0
  2742   0010B4  6FAC               	movwf	(___fladd@a+1)& (0+255),b
  2743   0010B6  0E80               	movlw	128
  2744   0010B8  6FAD               	movwf	(___fladd@a+2)& (0+255),b
  2745   0010BA  0EBF               	movlw	191
  2746   0010BC  6FAE               	movwf	(___fladd@a+3)& (0+255),b
  2747   0010BE  EC9B  F00A         	call	___fladd	;wreg free
  2748   0010C2  C0A7  F137         	movff	?___fladd,eusart_async_baudrate_calculation@BRG_value
  2749   0010C6  C0A8  F138         	movff	?___fladd+1,eusart_async_baudrate_calculation@BRG_value+1
  2750   0010CA  C0A9  F139         	movff	?___fladd+2,eusart_async_baudrate_calculation@BRG_value+2
  2751   0010CE  C0AA  F13A         	movff	?___fladd+3,eusart_async_baudrate_calculation@BRG_value+3
  2752   0010D2                     l9204:
  2753                           
  2754                           ;MCAL_layer/EUSART/mcal_eusart.c: 162:                 SPBRG = (uint8)((uint32)BRG_value
      +                          ) ;
  2755   0010D2  C137  F080         	movff	eusart_async_baudrate_calculation@BRG_value,___fltol@f1
  2756   0010D6  C138  F081         	movff	eusart_async_baudrate_calculation@BRG_value+1,___fltol@f1+1
  2757   0010DA  C139  F082         	movff	eusart_async_baudrate_calculation@BRG_value+2,___fltol@f1+2
  2758   0010DE  C13A  F083         	movff	eusart_async_baudrate_calculation@BRG_value+3,___fltol@f1+3
  2759   0010E2  ECC4  F014         	call	___fltol	;wreg free
  2760   0010E6  0100               	movlb	0	; () banked
  2761   0010E8  5180               	movf	?___fltol& (0+255),w,b
  2762   0010EA  6EAF               	movwf	175,c	;volatile
  2763                           
  2764                           ;MCAL_layer/EUSART/mcal_eusart.c: 163:                 break ;
  2765   0010EC  EF9A  F00A         	goto	l667
  2766   0010F0                     l661:
  2767                           
  2768                           ; BSR set to: 0
  2769                           ;MCAL_layer/EUSART/mcal_eusart.c: 165:                 TXSTAbits. BRGH = 1 ;
  2770   0010F0  84AC               	bsf	172,2,c	;volatile
  2771                           
  2772                           ;MCAL_layer/EUSART/mcal_eusart.c: 166:                 BAUDCONbits.BRG16 = 0 ;
  2773   0010F2  96B8               	bcf	184,3,c	;volatile
  2774                           
  2775                           ;MCAL_layer/EUSART/mcal_eusart.c: 167:                 TXSTAbits. SYNC = 0 ;
  2776   0010F4  98AC               	bcf	172,4,c	;volatile
  2777   0010F6                     
  2778                           ; BSR set to: 0
  2779                           ;MCAL_layer/EUSART/mcal_eusart.c: 168:                 BRG_value = ((8000000UL/(float)(_
      +                          eusart->baudrate))/16)-1 ;
  2780   0010F6  C0B7  FFD9         	movff	eusart_async_baudrate_calculation@_eusart,fsr2l
  2781   0010FA  C0B8  FFDA         	movff	eusart_async_baudrate_calculation@_eusart+1,fsr2h
  2782   0010FE  CFDE F0B9          	movff	postinc2,??_eusart_async_baudrate_calculation
  2783   001102  CFDD F0BA          	movff	postdec2,??_eusart_async_baudrate_calculation+1
  2784   001106  C0B9  F080         	movff	??_eusart_async_baudrate_calculation,___xxtofl@val
  2785   00110A  C0BA  F081         	movff	??_eusart_async_baudrate_calculation+1,___xxtofl@val+1
  2786   00110E  6B82               	clrf	(___xxtofl@val+2)& (0+255),b
  2787   001110  6B83               	clrf	(___xxtofl@val+3)& (0+255),b
  2788   001112  0E00               	movlw	0
  2789   001114  EC65  F012         	call	___xxtofl
  2790   001118  C080  F092         	movff	?___xxtofl,___fldiv@a
  2791   00111C  C081  F093         	movff	?___xxtofl+1,___fldiv@a+1
  2792   001120  C082  F094         	movff	?___xxtofl+2,___fldiv@a+2
  2793   001124  C083  F095         	movff	?___xxtofl+3,___fldiv@a+3
  2794   001128  0E00               	movlw	0
  2795   00112A  0100               	movlb	0	; () banked
  2796   00112C  6F8E               	movwf	___fldiv@b& (0+255),b
  2797   00112E  0E24               	movlw	36
  2798   001130  6F8F               	movwf	(___fldiv@b+1)& (0+255),b
  2799   001132  0EF4               	movlw	244
  2800   001134  6F90               	movwf	(___fldiv@b+2)& (0+255),b
  2801   001136  0E4A               	movlw	74
  2802   001138  6F91               	movwf	(___fldiv@b+3)& (0+255),b
  2803   00113A  EC11  F00F         	call	___fldiv	;wreg free
  2804   00113E  C08E  F133         	movff	?___fldiv,_eusart_async_baudrate_calculation$5232
  2805   001142  C08F  F134         	movff	?___fldiv+1,_eusart_async_baudrate_calculation$5232+1
  2806   001146  C090  F135         	movff	?___fldiv+2,_eusart_async_baudrate_calculation$5232+2
  2807   00114A  C091  F136         	movff	?___fldiv+3,_eusart_async_baudrate_calculation$5232+3
  2808   00114E                     
  2809                           ;MCAL_layer/EUSART/mcal_eusart.c: 168:                 BRG_value = ((8000000UL/(float)(_
      +                          eusart->baudrate))/16)-1 ;
  2810   00114E  0E00               	movlw	0
  2811   001150  0100               	movlb	0	; () banked
  2812   001152  6F92               	movwf	___fldiv@a& (0+255),b
  2813   001154  0E00               	movlw	0
  2814   001156  6F93               	movwf	(___fldiv@a+1)& (0+255),b
  2815   001158  0E80               	movlw	128
  2816   00115A  6F94               	movwf	(___fldiv@a+2)& (0+255),b
  2817   00115C  0E41               	movlw	65
  2818   00115E  6F95               	movwf	(___fldiv@a+3)& (0+255),b
  2819   001160  C133  F08E         	movff	_eusart_async_baudrate_calculation$5232,___fldiv@b
  2820   001164  C134  F08F         	movff	_eusart_async_baudrate_calculation$5232+1,___fldiv@b+1
  2821   001168  C135  F090         	movff	_eusart_async_baudrate_calculation$5232+2,___fldiv@b+2
  2822   00116C  C136  F091         	movff	_eusart_async_baudrate_calculation$5232+3,___fldiv@b+3
  2823   001170  EC11  F00F         	call	___fldiv	;wreg free
  2824   001174  C08E  F0A7         	movff	?___fldiv,___fladd@b
  2825   001178  C08F  F0A8         	movff	?___fldiv+1,___fladd@b+1
  2826   00117C  C090  F0A9         	movff	?___fldiv+2,___fladd@b+2
  2827   001180  C091  F0AA         	movff	?___fldiv+3,___fladd@b+3
  2828   001184  0E00               	movlw	0
  2829   001186  0100               	movlb	0	; () banked
  2830   001188  6FAB               	movwf	___fladd@a& (0+255),b
  2831   00118A  0E00               	movlw	0
  2832   00118C  6FAC               	movwf	(___fladd@a+1)& (0+255),b
  2833   00118E  0E80               	movlw	128
  2834   001190  6FAD               	movwf	(___fladd@a+2)& (0+255),b
  2835   001192  0EBF               	movlw	191
  2836   001194  6FAE               	movwf	(___fladd@a+3)& (0+255),b
  2837   001196  EC9B  F00A         	call	___fladd	;wreg free
  2838   00119A  C0A7  F137         	movff	?___fladd,eusart_async_baudrate_calculation@BRG_value
  2839   00119E  C0A8  F138         	movff	?___fladd+1,eusart_async_baudrate_calculation@BRG_value+1
  2840   0011A2  C0A9  F139         	movff	?___fladd+2,eusart_async_baudrate_calculation@BRG_value+2
  2841   0011A6  C0AA  F13A         	movff	?___fladd+3,eusart_async_baudrate_calculation@BRG_value+3
  2842   0011AA  EF69  F008         	goto	l9204
  2843   0011AE                     l662:
  2844                           
  2845                           ; BSR set to: 0
  2846                           ;MCAL_layer/EUSART/mcal_eusart.c: 172:                 TXSTAbits. BRGH = 0 ;
  2847   0011AE  94AC               	bcf	172,2,c	;volatile
  2848                           
  2849                           ;MCAL_layer/EUSART/mcal_eusart.c: 173:                 BAUDCONbits.BRG16 = 1 ;
  2850   0011B0  86B8               	bsf	184,3,c	;volatile
  2851                           
  2852                           ;MCAL_layer/EUSART/mcal_eusart.c: 174:                 TXSTAbits. SYNC = 0 ;
  2853   0011B2  98AC               	bcf	172,4,c	;volatile
  2854   0011B4                     
  2855                           ; BSR set to: 0
  2856                           ;MCAL_layer/EUSART/mcal_eusart.c: 175:                 BRG_value = ((8000000UL/(float)(_
      +                          eusart->baudrate))/16)-1 ;
  2857   0011B4  C0B7  FFD9         	movff	eusart_async_baudrate_calculation@_eusart,fsr2l
  2858   0011B8  C0B8  FFDA         	movff	eusart_async_baudrate_calculation@_eusart+1,fsr2h
  2859   0011BC  CFDE F0B9          	movff	postinc2,??_eusart_async_baudrate_calculation
  2860   0011C0  CFDD F0BA          	movff	postdec2,??_eusart_async_baudrate_calculation+1
  2861   0011C4  C0B9  F080         	movff	??_eusart_async_baudrate_calculation,___xxtofl@val
  2862   0011C8  C0BA  F081         	movff	??_eusart_async_baudrate_calculation+1,___xxtofl@val+1
  2863   0011CC  6B82               	clrf	(___xxtofl@val+2)& (0+255),b
  2864   0011CE  6B83               	clrf	(___xxtofl@val+3)& (0+255),b
  2865   0011D0  0E00               	movlw	0
  2866   0011D2  EC65  F012         	call	___xxtofl
  2867   0011D6  C080  F092         	movff	?___xxtofl,___fldiv@a
  2868   0011DA  C081  F093         	movff	?___xxtofl+1,___fldiv@a+1
  2869   0011DE  C082  F094         	movff	?___xxtofl+2,___fldiv@a+2
  2870   0011E2  C083  F095         	movff	?___xxtofl+3,___fldiv@a+3
  2871   0011E6  0E00               	movlw	0
  2872   0011E8  0100               	movlb	0	; () banked
  2873   0011EA  6F8E               	movwf	___fldiv@b& (0+255),b
  2874   0011EC  0E24               	movlw	36
  2875   0011EE  6F8F               	movwf	(___fldiv@b+1)& (0+255),b
  2876   0011F0  0EF4               	movlw	244
  2877   0011F2  6F90               	movwf	(___fldiv@b+2)& (0+255),b
  2878   0011F4  0E4A               	movlw	74
  2879   0011F6  6F91               	movwf	(___fldiv@b+3)& (0+255),b
  2880   0011F8  EC11  F00F         	call	___fldiv	;wreg free
  2881   0011FC  C08E  F133         	movff	?___fldiv,_eusart_async_baudrate_calculation$5232
  2882   001200  C08F  F134         	movff	?___fldiv+1,_eusart_async_baudrate_calculation$5232+1
  2883   001204  C090  F135         	movff	?___fldiv+2,_eusart_async_baudrate_calculation$5232+2
  2884   001208  C091  F136         	movff	?___fldiv+3,_eusart_async_baudrate_calculation$5232+3
  2885   00120C                     
  2886                           ;MCAL_layer/EUSART/mcal_eusart.c: 175:                 BRG_value = ((8000000UL/(float)(_
      +                          eusart->baudrate))/16)-1 ;
  2887   00120C  0E00               	movlw	0
  2888   00120E  0100               	movlb	0	; () banked
  2889   001210  6F92               	movwf	___fldiv@a& (0+255),b
  2890   001212  0E00               	movlw	0
  2891   001214  6F93               	movwf	(___fldiv@a+1)& (0+255),b
  2892   001216  0E80               	movlw	128
  2893   001218  6F94               	movwf	(___fldiv@a+2)& (0+255),b
  2894   00121A  0E41               	movlw	65
  2895   00121C  6F95               	movwf	(___fldiv@a+3)& (0+255),b
  2896   00121E  C133  F08E         	movff	_eusart_async_baudrate_calculation$5232,___fldiv@b
  2897   001222  C134  F08F         	movff	_eusart_async_baudrate_calculation$5232+1,___fldiv@b+1
  2898   001226  C135  F090         	movff	_eusart_async_baudrate_calculation$5232+2,___fldiv@b+2
  2899   00122A  C136  F091         	movff	_eusart_async_baudrate_calculation$5232+3,___fldiv@b+3
  2900   00122E  EC11  F00F         	call	___fldiv	;wreg free
  2901   001232  C08E  F0A7         	movff	?___fldiv,___fladd@b
  2902   001236  C08F  F0A8         	movff	?___fldiv+1,___fladd@b+1
  2903   00123A  C090  F0A9         	movff	?___fldiv+2,___fladd@b+2
  2904   00123E  C091  F0AA         	movff	?___fldiv+3,___fladd@b+3
  2905   001242  0E00               	movlw	0
  2906   001244  0100               	movlb	0	; () banked
  2907   001246  6FAB               	movwf	___fladd@a& (0+255),b
  2908   001248  0E00               	movlw	0
  2909   00124A  6FAC               	movwf	(___fladd@a+1)& (0+255),b
  2910   00124C  0E80               	movlw	128
  2911   00124E  6FAD               	movwf	(___fladd@a+2)& (0+255),b
  2912   001250  0EBF               	movlw	191
  2913   001252  6FAE               	movwf	(___fladd@a+3)& (0+255),b
  2914   001254  EC9B  F00A         	call	___fladd	;wreg free
  2915   001258  C0A7  F137         	movff	?___fladd,eusart_async_baudrate_calculation@BRG_value
  2916   00125C  C0A8  F138         	movff	?___fladd+1,eusart_async_baudrate_calculation@BRG_value+1
  2917   001260  C0A9  F139         	movff	?___fladd+2,eusart_async_baudrate_calculation@BRG_value+2
  2918   001264  C0AA  F13A         	movff	?___fladd+3,eusart_async_baudrate_calculation@BRG_value+3
  2919   001268                     l9216:
  2920                           
  2921                           ;MCAL_layer/EUSART/mcal_eusart.c: 176:                 SPBRG = (uint8)((uint32)BRG_value
      +                          ) ;
  2922   001268  C137  F080         	movff	eusart_async_baudrate_calculation@BRG_value,___fltol@f1
  2923   00126C  C138  F081         	movff	eusart_async_baudrate_calculation@BRG_value+1,___fltol@f1+1
  2924   001270  C139  F082         	movff	eusart_async_baudrate_calculation@BRG_value+2,___fltol@f1+2
  2925   001274  C13A  F083         	movff	eusart_async_baudrate_calculation@BRG_value+3,___fltol@f1+3
  2926   001278  ECC4  F014         	call	___fltol	;wreg free
  2927   00127C  0100               	movlb	0	; () banked
  2928   00127E  5180               	movf	?___fltol& (0+255),w,b
  2929   001280  6EAF               	movwf	175,c	;volatile
  2930   001282                     
  2931                           ; BSR set to: 0
  2932                           ;MCAL_layer/EUSART/mcal_eusart.c: 177:                 SPBRGH = (uint8)(((uint32)BRG_val
      +                          ue)>>8) ;
  2933   001282  C137  F080         	movff	eusart_async_baudrate_calculation@BRG_value,___fltol@f1
  2934   001286  C138  F081         	movff	eusart_async_baudrate_calculation@BRG_value+1,___fltol@f1+1
  2935   00128A  C139  F082         	movff	eusart_async_baudrate_calculation@BRG_value+2,___fltol@f1+2
  2936   00128E  C13A  F083         	movff	eusart_async_baudrate_calculation@BRG_value+3,___fltol@f1+3
  2937   001292  ECC4  F014         	call	___fltol	;wreg free
  2938   001296  0100               	movlb	0	; () banked
  2939   001298  C081  F080         	movff	?___fltol+1,?___fltol
  2940   00129C  6B81               	clrf	(?___fltol+1)& (0+255),b
  2941   00129E  5180               	movf	?___fltol& (0+255),w,b
  2942   0012A0  6EB0               	movwf	176,c	;volatile
  2943                           
  2944                           ;MCAL_layer/EUSART/mcal_eusart.c: 178:                 break ;
  2945   0012A2  EF9A  F00A         	goto	l667
  2946   0012A6                     l663:
  2947                           
  2948                           ; BSR set to: 0
  2949                           ;MCAL_layer/EUSART/mcal_eusart.c: 180:                 TXSTAbits. BRGH = 1 ;
  2950   0012A6  84AC               	bsf	172,2,c	;volatile
  2951                           
  2952                           ;MCAL_layer/EUSART/mcal_eusart.c: 181:                 BAUDCONbits.BRG16 = 1 ;
  2953   0012A8  86B8               	bsf	184,3,c	;volatile
  2954                           
  2955                           ;MCAL_layer/EUSART/mcal_eusart.c: 182:                 TXSTAbits. SYNC = 0 ;
  2956   0012AA  98AC               	bcf	172,4,c	;volatile
  2957   0012AC                     
  2958                           ; BSR set to: 0
  2959                           ;MCAL_layer/EUSART/mcal_eusart.c: 183:                 BRG_value = ((8000000UL/(float)(_
      +                          eusart->baudrate))/4)-1 ;
  2960   0012AC  C0B7  FFD9         	movff	eusart_async_baudrate_calculation@_eusart,fsr2l
  2961   0012B0  C0B8  FFDA         	movff	eusart_async_baudrate_calculation@_eusart+1,fsr2h
  2962   0012B4  CFDE F0B9          	movff	postinc2,??_eusart_async_baudrate_calculation
  2963   0012B8  CFDD F0BA          	movff	postdec2,??_eusart_async_baudrate_calculation+1
  2964   0012BC  C0B9  F080         	movff	??_eusart_async_baudrate_calculation,___xxtofl@val
  2965   0012C0  C0BA  F081         	movff	??_eusart_async_baudrate_calculation+1,___xxtofl@val+1
  2966   0012C4  6B82               	clrf	(___xxtofl@val+2)& (0+255),b
  2967   0012C6  6B83               	clrf	(___xxtofl@val+3)& (0+255),b
  2968   0012C8  0E00               	movlw	0
  2969   0012CA  EC65  F012         	call	___xxtofl
  2970   0012CE  C080  F092         	movff	?___xxtofl,___fldiv@a
  2971   0012D2  C081  F093         	movff	?___xxtofl+1,___fldiv@a+1
  2972   0012D6  C082  F094         	movff	?___xxtofl+2,___fldiv@a+2
  2973   0012DA  C083  F095         	movff	?___xxtofl+3,___fldiv@a+3
  2974   0012DE  0E00               	movlw	0
  2975   0012E0  0100               	movlb	0	; () banked
  2976   0012E2  6F8E               	movwf	___fldiv@b& (0+255),b
  2977   0012E4  0E24               	movlw	36
  2978   0012E6  6F8F               	movwf	(___fldiv@b+1)& (0+255),b
  2979   0012E8  0EF4               	movlw	244
  2980   0012EA  6F90               	movwf	(___fldiv@b+2)& (0+255),b
  2981   0012EC  0E4A               	movlw	74
  2982   0012EE  6F91               	movwf	(___fldiv@b+3)& (0+255),b
  2983   0012F0  EC11  F00F         	call	___fldiv	;wreg free
  2984   0012F4  C08E  F133         	movff	?___fldiv,_eusart_async_baudrate_calculation$5232
  2985   0012F8  C08F  F134         	movff	?___fldiv+1,_eusart_async_baudrate_calculation$5232+1
  2986   0012FC  C090  F135         	movff	?___fldiv+2,_eusart_async_baudrate_calculation$5232+2
  2987   001300  C091  F136         	movff	?___fldiv+3,_eusart_async_baudrate_calculation$5232+3
  2988   001304                     
  2989                           ;MCAL_layer/EUSART/mcal_eusart.c: 183:                 BRG_value = ((8000000UL/(float)(_
      +                          eusart->baudrate))/4)-1 ;
  2990   001304  0E00               	movlw	0
  2991   001306  0100               	movlb	0	; () banked
  2992   001308  6F92               	movwf	___fldiv@a& (0+255),b
  2993   00130A  0E00               	movlw	0
  2994   00130C  6F93               	movwf	(___fldiv@a+1)& (0+255),b
  2995   00130E  0E80               	movlw	128
  2996   001310  6F94               	movwf	(___fldiv@a+2)& (0+255),b
  2997   001312  0E40               	movlw	64
  2998   001314  6F95               	movwf	(___fldiv@a+3)& (0+255),b
  2999   001316  C133  F08E         	movff	_eusart_async_baudrate_calculation$5232,___fldiv@b
  3000   00131A  C134  F08F         	movff	_eusart_async_baudrate_calculation$5232+1,___fldiv@b+1
  3001   00131E  C135  F090         	movff	_eusart_async_baudrate_calculation$5232+2,___fldiv@b+2
  3002   001322  C136  F091         	movff	_eusart_async_baudrate_calculation$5232+3,___fldiv@b+3
  3003   001326  EC11  F00F         	call	___fldiv	;wreg free
  3004   00132A  C08E  F0A7         	movff	?___fldiv,___fladd@b
  3005   00132E  C08F  F0A8         	movff	?___fldiv+1,___fladd@b+1
  3006   001332  C090  F0A9         	movff	?___fldiv+2,___fladd@b+2
  3007   001336  C091  F0AA         	movff	?___fldiv+3,___fladd@b+3
  3008   00133A  0E00               	movlw	0
  3009   00133C  0100               	movlb	0	; () banked
  3010   00133E  6FAB               	movwf	___fladd@a& (0+255),b
  3011   001340  0E00               	movlw	0
  3012   001342  6FAC               	movwf	(___fladd@a+1)& (0+255),b
  3013   001344  0E80               	movlw	128
  3014   001346  6FAD               	movwf	(___fladd@a+2)& (0+255),b
  3015   001348  0EBF               	movlw	191
  3016   00134A  6FAE               	movwf	(___fladd@a+3)& (0+255),b
  3017   00134C  EC9B  F00A         	call	___fladd	;wreg free
  3018   001350  C0A7  F137         	movff	?___fladd,eusart_async_baudrate_calculation@BRG_value
  3019   001354  C0A8  F138         	movff	?___fladd+1,eusart_async_baudrate_calculation@BRG_value+1
  3020   001358  C0A9  F139         	movff	?___fladd+2,eusart_async_baudrate_calculation@BRG_value+2
  3021   00135C  C0AA  F13A         	movff	?___fladd+3,eusart_async_baudrate_calculation@BRG_value+3
  3022   001360  EF34  F009         	goto	l9216
  3023   001364                     l664:
  3024                           
  3025                           ; BSR set to: 0
  3026                           ;MCAL_layer/EUSART/mcal_eusart.c: 188:                 BAUDCONbits.BRG16 = 0 ;
  3027   001364  96B8               	bcf	184,3,c	;volatile
  3028                           
  3029                           ;MCAL_layer/EUSART/mcal_eusart.c: 189:                 TXSTAbits. SYNC = 1 ;
  3030   001366  88AC               	bsf	172,4,c	;volatile
  3031   001368                     
  3032                           ; BSR set to: 0
  3033                           ;MCAL_layer/EUSART/mcal_eusart.c: 190:                 BRG_value = ((8000000UL/(float)(_
      +                          eusart->baudrate))/4)-1 ;
  3034   001368  C0B7  FFD9         	movff	eusart_async_baudrate_calculation@_eusart,fsr2l
  3035   00136C  C0B8  FFDA         	movff	eusart_async_baudrate_calculation@_eusart+1,fsr2h
  3036   001370  CFDE F0B9          	movff	postinc2,??_eusart_async_baudrate_calculation
  3037   001374  CFDD F0BA          	movff	postdec2,??_eusart_async_baudrate_calculation+1
  3038   001378  C0B9  F080         	movff	??_eusart_async_baudrate_calculation,___xxtofl@val
  3039   00137C  C0BA  F081         	movff	??_eusart_async_baudrate_calculation+1,___xxtofl@val+1
  3040   001380  6B82               	clrf	(___xxtofl@val+2)& (0+255),b
  3041   001382  6B83               	clrf	(___xxtofl@val+3)& (0+255),b
  3042   001384  0E00               	movlw	0
  3043   001386  EC65  F012         	call	___xxtofl
  3044   00138A  C080  F092         	movff	?___xxtofl,___fldiv@a
  3045   00138E  C081  F093         	movff	?___xxtofl+1,___fldiv@a+1
  3046   001392  C082  F094         	movff	?___xxtofl+2,___fldiv@a+2
  3047   001396  C083  F095         	movff	?___xxtofl+3,___fldiv@a+3
  3048   00139A  0E00               	movlw	0
  3049   00139C  0100               	movlb	0	; () banked
  3050   00139E  6F8E               	movwf	___fldiv@b& (0+255),b
  3051   0013A0  0E24               	movlw	36
  3052   0013A2  6F8F               	movwf	(___fldiv@b+1)& (0+255),b
  3053   0013A4  0EF4               	movlw	244
  3054   0013A6  6F90               	movwf	(___fldiv@b+2)& (0+255),b
  3055   0013A8  0E4A               	movlw	74
  3056   0013AA  6F91               	movwf	(___fldiv@b+3)& (0+255),b
  3057   0013AC  EC11  F00F         	call	___fldiv	;wreg free
  3058   0013B0  C08E  F133         	movff	?___fldiv,_eusart_async_baudrate_calculation$5232
  3059   0013B4  C08F  F134         	movff	?___fldiv+1,_eusart_async_baudrate_calculation$5232+1
  3060   0013B8  C090  F135         	movff	?___fldiv+2,_eusart_async_baudrate_calculation$5232+2
  3061   0013BC  C091  F136         	movff	?___fldiv+3,_eusart_async_baudrate_calculation$5232+3
  3062   0013C0                     
  3063                           ;MCAL_layer/EUSART/mcal_eusart.c: 190:                 BRG_value = ((8000000UL/(float)(_
      +                          eusart->baudrate))/4)-1 ;
  3064   0013C0  0E00               	movlw	0
  3065   0013C2  0100               	movlb	0	; () banked
  3066   0013C4  6F92               	movwf	___fldiv@a& (0+255),b
  3067   0013C6  0E00               	movlw	0
  3068   0013C8  6F93               	movwf	(___fldiv@a+1)& (0+255),b
  3069   0013CA  0E80               	movlw	128
  3070   0013CC  6F94               	movwf	(___fldiv@a+2)& (0+255),b
  3071   0013CE  0E40               	movlw	64
  3072   0013D0  6F95               	movwf	(___fldiv@a+3)& (0+255),b
  3073   0013D2  C133  F08E         	movff	_eusart_async_baudrate_calculation$5232,___fldiv@b
  3074   0013D6  C134  F08F         	movff	_eusart_async_baudrate_calculation$5232+1,___fldiv@b+1
  3075   0013DA  C135  F090         	movff	_eusart_async_baudrate_calculation$5232+2,___fldiv@b+2
  3076   0013DE  C136  F091         	movff	_eusart_async_baudrate_calculation$5232+3,___fldiv@b+3
  3077   0013E2  EC11  F00F         	call	___fldiv	;wreg free
  3078   0013E6  C08E  F0A7         	movff	?___fldiv,___fladd@b
  3079   0013EA  C08F  F0A8         	movff	?___fldiv+1,___fladd@b+1
  3080   0013EE  C090  F0A9         	movff	?___fldiv+2,___fladd@b+2
  3081   0013F2  C091  F0AA         	movff	?___fldiv+3,___fladd@b+3
  3082   0013F6  0E00               	movlw	0
  3083   0013F8  0100               	movlb	0	; () banked
  3084   0013FA  6FAB               	movwf	___fladd@a& (0+255),b
  3085   0013FC  0E00               	movlw	0
  3086   0013FE  6FAC               	movwf	(___fladd@a+1)& (0+255),b
  3087   001400  0E80               	movlw	128
  3088   001402  6FAD               	movwf	(___fladd@a+2)& (0+255),b
  3089   001404  0EBF               	movlw	191
  3090   001406  6FAE               	movwf	(___fladd@a+3)& (0+255),b
  3091   001408  EC9B  F00A         	call	___fladd	;wreg free
  3092   00140C  C0A7  F137         	movff	?___fladd,eusart_async_baudrate_calculation@BRG_value
  3093   001410  C0A8  F138         	movff	?___fladd+1,eusart_async_baudrate_calculation@BRG_value+1
  3094   001414  C0A9  F139         	movff	?___fladd+2,eusart_async_baudrate_calculation@BRG_value+2
  3095   001418  C0AA  F13A         	movff	?___fladd+3,eusart_async_baudrate_calculation@BRG_value+3
  3096   00141C  EF34  F009         	goto	l9216
  3097   001420                     l665:
  3098                           
  3099                           ; BSR set to: 0
  3100                           ;MCAL_layer/EUSART/mcal_eusart.c: 195:                 BAUDCONbits.BRG16 = 1 ;
  3101   001420  86B8               	bsf	184,3,c	;volatile
  3102                           
  3103                           ;MCAL_layer/EUSART/mcal_eusart.c: 196:                 TXSTAbits. SYNC = 1 ;
  3104   001422  88AC               	bsf	172,4,c	;volatile
  3105   001424                     
  3106                           ; BSR set to: 0
  3107                           ;MCAL_layer/EUSART/mcal_eusart.c: 197:                 BRG_value = ((8000000UL/(float)(_
      +                          eusart->baudrate))/4)-1 ;
  3108   001424  C0B7  FFD9         	movff	eusart_async_baudrate_calculation@_eusart,fsr2l
  3109   001428  C0B8  FFDA         	movff	eusart_async_baudrate_calculation@_eusart+1,fsr2h
  3110   00142C  CFDE F0B9          	movff	postinc2,??_eusart_async_baudrate_calculation
  3111   001430  CFDD F0BA          	movff	postdec2,??_eusart_async_baudrate_calculation+1
  3112   001434  C0B9  F080         	movff	??_eusart_async_baudrate_calculation,___xxtofl@val
  3113   001438  C0BA  F081         	movff	??_eusart_async_baudrate_calculation+1,___xxtofl@val+1
  3114   00143C  6B82               	clrf	(___xxtofl@val+2)& (0+255),b
  3115   00143E  6B83               	clrf	(___xxtofl@val+3)& (0+255),b
  3116   001440  0E00               	movlw	0
  3117   001442  EC65  F012         	call	___xxtofl
  3118   001446  C080  F092         	movff	?___xxtofl,___fldiv@a
  3119   00144A  C081  F093         	movff	?___xxtofl+1,___fldiv@a+1
  3120   00144E  C082  F094         	movff	?___xxtofl+2,___fldiv@a+2
  3121   001452  C083  F095         	movff	?___xxtofl+3,___fldiv@a+3
  3122   001456  0E00               	movlw	0
  3123   001458  0100               	movlb	0	; () banked
  3124   00145A  6F8E               	movwf	___fldiv@b& (0+255),b
  3125   00145C  0E24               	movlw	36
  3126   00145E  6F8F               	movwf	(___fldiv@b+1)& (0+255),b
  3127   001460  0EF4               	movlw	244
  3128   001462  6F90               	movwf	(___fldiv@b+2)& (0+255),b
  3129   001464  0E4A               	movlw	74
  3130   001466  6F91               	movwf	(___fldiv@b+3)& (0+255),b
  3131   001468  EC11  F00F         	call	___fldiv	;wreg free
  3132   00146C  C08E  F133         	movff	?___fldiv,_eusart_async_baudrate_calculation$5232
  3133   001470  C08F  F134         	movff	?___fldiv+1,_eusart_async_baudrate_calculation$5232+1
  3134   001474  C090  F135         	movff	?___fldiv+2,_eusart_async_baudrate_calculation$5232+2
  3135   001478  C091  F136         	movff	?___fldiv+3,_eusart_async_baudrate_calculation$5232+3
  3136   00147C                     
  3137                           ;MCAL_layer/EUSART/mcal_eusart.c: 197:                 BRG_value = ((8000000UL/(float)(_
      +                          eusart->baudrate))/4)-1 ;
  3138   00147C  0E00               	movlw	0
  3139   00147E  0100               	movlb	0	; () banked
  3140   001480  6F92               	movwf	___fldiv@a& (0+255),b
  3141   001482  0E00               	movlw	0
  3142   001484  6F93               	movwf	(___fldiv@a+1)& (0+255),b
  3143   001486  0E80               	movlw	128
  3144   001488  6F94               	movwf	(___fldiv@a+2)& (0+255),b
  3145   00148A  0E40               	movlw	64
  3146   00148C  6F95               	movwf	(___fldiv@a+3)& (0+255),b
  3147   00148E  C133  F08E         	movff	_eusart_async_baudrate_calculation$5232,___fldiv@b
  3148   001492  C134  F08F         	movff	_eusart_async_baudrate_calculation$5232+1,___fldiv@b+1
  3149   001496  C135  F090         	movff	_eusart_async_baudrate_calculation$5232+2,___fldiv@b+2
  3150   00149A  C136  F091         	movff	_eusart_async_baudrate_calculation$5232+3,___fldiv@b+3
  3151   00149E  EC11  F00F         	call	___fldiv	;wreg free
  3152   0014A2  C08E  F0A7         	movff	?___fldiv,___fladd@b
  3153   0014A6  C08F  F0A8         	movff	?___fldiv+1,___fladd@b+1
  3154   0014AA  C090  F0A9         	movff	?___fldiv+2,___fladd@b+2
  3155   0014AE  C091  F0AA         	movff	?___fldiv+3,___fladd@b+3
  3156   0014B2  0E00               	movlw	0
  3157   0014B4  0100               	movlb	0	; () banked
  3158   0014B6  6FAB               	movwf	___fladd@a& (0+255),b
  3159   0014B8  0E00               	movlw	0
  3160   0014BA  6FAC               	movwf	(___fladd@a+1)& (0+255),b
  3161   0014BC  0E80               	movlw	128
  3162   0014BE  6FAD               	movwf	(___fladd@a+2)& (0+255),b
  3163   0014C0  0EBF               	movlw	191
  3164   0014C2  6FAE               	movwf	(___fladd@a+3)& (0+255),b
  3165   0014C4  EC9B  F00A         	call	___fladd	;wreg free
  3166   0014C8  C0A7  F137         	movff	?___fladd,eusart_async_baudrate_calculation@BRG_value
  3167   0014CC  C0A8  F138         	movff	?___fladd+1,eusart_async_baudrate_calculation@BRG_value+1
  3168   0014D0  C0A9  F139         	movff	?___fladd+2,eusart_async_baudrate_calculation@BRG_value+2
  3169   0014D4  C0AA  F13A         	movff	?___fladd+3,eusart_async_baudrate_calculation@BRG_value+3
  3170   0014D8  EF34  F009         	goto	l9216
  3171   0014DC                     l9244:
  3172   0014DC  0100               	movlb	0	; () banked
  3173   0014DE  EE20 F002          	lfsr	2,2
  3174   0014E2  51B7               	movf	eusart_async_baudrate_calculation@_eusart& (0+255),w,b
  3175   0014E4  26D9               	addwf	fsr2l,f,c
  3176   0014E6  51B8               	movf	(eusart_async_baudrate_calculation@_eusart+1)& (0+255),w,b
  3177   0014E8  22DA               	addwfc	fsr2h,f,c
  3178   0014EA  50DF               	movf	indf2,w,c
  3179   0014EC  6FB9               	movwf	??_eusart_async_baudrate_calculation& (0+255),b
  3180   0014EE  6BBA               	clrf	(??_eusart_async_baudrate_calculation+1)& (0+255),b
  3181                           
  3182                           ; Switch on 2 bytes has been partitioned into a top level switch of size 1, and 1 sub-sw
      +                          itches
  3183                           ; Switch size 1, requested type "simple"
  3184                           ; Number of cases is 1, Range of values is 0 to 0
  3185                           ; switch strategies available:
  3186                           ; Name         Instructions Cycles
  3187                           ; simple_byte            4     3 (average)
  3188                           ;	Chosen strategy is simple_byte
  3189   0014F0  51BA               	movf	(??_eusart_async_baudrate_calculation+1)& (0+255),w,b
  3190   0014F2  0A00               	xorlw	0	; case 0
  3191   0014F4  B4D8               	btfsc	status,2,c
  3192   0014F6  EF7F  F00A         	goto	l10478
  3193   0014FA  EF9A  F00A         	goto	l667
  3194   0014FE                     l10478:
  3195                           
  3196                           ; BSR set to: 0
  3197                           ; Switch size 1, requested type "simple"
  3198                           ; Number of cases is 6, Range of values is 0 to 5
  3199                           ; switch strategies available:
  3200                           ; Name         Instructions Cycles
  3201                           ; simple_byte           19    10 (average)
  3202                           ;	Chosen strategy is simple_byte
  3203   0014FE  51B9               	movf	??_eusart_async_baudrate_calculation& (0+255),w,b
  3204   001500  0A00               	xorlw	0	; case 0
  3205   001502  B4D8               	btfsc	status,2,c
  3206   001504  EF0C  F008         	goto	l659
  3207   001508  0A01               	xorlw	1	; case 1
  3208   00150A  B4D8               	btfsc	status,2,c
  3209   00150C  EF78  F008         	goto	l661
  3210   001510  0A03               	xorlw	3	; case 2
  3211   001512  B4D8               	btfsc	status,2,c
  3212   001514  EFD7  F008         	goto	l662
  3213   001518  0A01               	xorlw	1	; case 3
  3214   00151A  B4D8               	btfsc	status,2,c
  3215   00151C  EF53  F009         	goto	l663
  3216   001520  0A07               	xorlw	7	; case 4
  3217   001522  B4D8               	btfsc	status,2,c
  3218   001524  EFB2  F009         	goto	l664
  3219   001528  0A01               	xorlw	1	; case 5
  3220   00152A  B4D8               	btfsc	status,2,c
  3221   00152C  EF10  F00A         	goto	l665
  3222   001530  EF9A  F00A         	goto	l667
  3223   001534                     l667:
  3224                           
  3225                           ; BSR set to: 0
  3226   001534  0012               	return		;funcret
  3227   001536                     __end_of_eusart_async_baudrate_calculation:
  3228                           	callstack 0
  3229                           
  3230 ;; *************** function ___xxtofl *****************
  3231 ;; Defined at:
  3232 ;;		line 10 in file "C:\Program Files\Microchip\xc8\v2.46\pic\sources\c99\common\xxtofl.c"
  3233 ;; Parameters:    Size  Location     Type
  3234 ;;  sign            1    wreg     unsigned char 
  3235 ;;  val             4    0[BANK0 ] long 
  3236 ;; Auto vars:     Size  Location     Type
  3237 ;;  sign            1    8[BANK0 ] unsigned char 
  3238 ;;  arg             4   10[BANK0 ] unsigned long 
  3239 ;;  exp             1    9[BANK0 ] unsigned char 
  3240 ;; Return value:  Size  Location     Type
  3241 ;;                  4    0[BANK0 ] unsigned char 
  3242 ;; Registers used:
  3243 ;;		wreg, status,2, status,0
  3244 ;; Tracked objects:
  3245 ;;		On entry : 0/0
  3246 ;;		On exit  : 0/0
  3247 ;;		Unchanged: 0/0
  3248 ;; Data sizes:     COMRAM   BANK0   BANK1   BANK2   BANK3   BANK4   BANK5   BANK6   BANK7   BANK8   BANK9  BANK10  BANK1
      +1  BANK12  BANK13  BANK14  BANK15
  3249 ;;      Params:         0       4       0       0       0       0       0       0       0       0       0       0       
      +0       0       0       0       0
  3250 ;;      Locals:         0       6       0       0       0       0       0       0       0       0       0       0       
      +0       0       0       0       0
  3251 ;;      Temps:          0       4       0       0       0       0       0       0       0       0       0       0       
      +0       0       0       0       0
  3252 ;;      Totals:         0      14       0       0       0       0       0       0       0       0       0       0       
      +0       0       0       0       0
  3253 ;;Total ram usage:       14 bytes
  3254 ;; Hardware stack levels used: 1
  3255 ;; Hardware stack levels required when called: 7
  3256 ;; This function calls:
  3257 ;;		Nothing
  3258 ;; This function is called by:
  3259 ;;		_LM35_GetTempCelsius
  3260 ;;		_eusart_async_baudrate_calculation
  3261 ;;		_CCP_Init
  3262 ;;		_CCP_PWMSetDuty
  3263 ;;		_mssp_i2c_mode_master_clock_configurations
  3264 ;; This function uses a non-reentrant model
  3265 ;;
  3266                           
  3267                           	psect	text14
  3268   0024CA                     __ptext14:
  3269                           	callstack 0
  3270   0024CA                     ___xxtofl:
  3271                           	callstack 19
  3272                           
  3273                           ; BSR set to: 0
  3274                           ;incstack = 0
  3275                           ;___xxtofl@sign stored from wreg
  3276   0024CA  0100               	movlb	0	; () banked
  3277   0024CC  6F88               	movwf	___xxtofl@sign& (0+255),b
  3278   0024CE  0100               	movlb	0	; () banked
  3279   0024D0  5188               	movf	___xxtofl@sign& (0+255),w,b
  3280   0024D2  B4D8               	btfsc	status,2,c
  3281   0024D4  EF6E  F012         	goto	u8121
  3282   0024D8  EF70  F012         	goto	u8120
  3283   0024DC                     u8121:
  3284   0024DC  EF92  F012         	goto	l2377
  3285   0024E0                     u8120:
  3286   0024E0                     
  3287                           ; BSR set to: 0
  3288   0024E0  BF83               	btfsc	(___xxtofl@val+3)& (0+255),7,b
  3289   0024E2  EF77  F012         	goto	u8130
  3290   0024E6  EF75  F012         	goto	u8131
  3291   0024EA                     u8131:
  3292   0024EA  EF92  F012         	goto	l2377
  3293   0024EE                     u8130:
  3294   0024EE                     
  3295                           ; BSR set to: 0
  3296   0024EE  C080  F084         	movff	___xxtofl@val,??___xxtofl
  3297   0024F2  C081  F085         	movff	___xxtofl@val+1,??___xxtofl+1
  3298   0024F6  C082  F086         	movff	___xxtofl@val+2,??___xxtofl+2
  3299   0024FA  C083  F087         	movff	___xxtofl@val+3,??___xxtofl+3
  3300   0024FE  1F84               	comf	??___xxtofl& (0+255),f,b
  3301   002500  1F85               	comf	(??___xxtofl+1)& (0+255),f,b
  3302   002502  1F86               	comf	(??___xxtofl+2)& (0+255),f,b
  3303   002504  1F87               	comf	(??___xxtofl+3)& (0+255),f,b
  3304   002506  2B84               	incf	??___xxtofl& (0+255),f,b
  3305   002508  0E00               	movlw	0
  3306   00250A  2385               	addwfc	(??___xxtofl+1)& (0+255),f,b
  3307   00250C  2386               	addwfc	(??___xxtofl+2)& (0+255),f,b
  3308   00250E  2387               	addwfc	(??___xxtofl+3)& (0+255),f,b
  3309   002510  C084  F08A         	movff	??___xxtofl,___xxtofl@arg
  3310   002514  C085  F08B         	movff	??___xxtofl+1,___xxtofl@arg+1
  3311   002518  C086  F08C         	movff	??___xxtofl+2,___xxtofl@arg+2
  3312   00251C  C087  F08D         	movff	??___xxtofl+3,___xxtofl@arg+3
  3313   002520  EF9A  F012         	goto	l9108
  3314   002524                     l2377:
  3315                           
  3316                           ; BSR set to: 0
  3317   002524  C080  F08A         	movff	___xxtofl@val,___xxtofl@arg
  3318   002528  C081  F08B         	movff	___xxtofl@val+1,___xxtofl@arg+1
  3319   00252C  C082  F08C         	movff	___xxtofl@val+2,___xxtofl@arg+2
  3320   002530  C083  F08D         	movff	___xxtofl@val+3,___xxtofl@arg+3
  3321   002534                     l9108:
  3322                           
  3323                           ; BSR set to: 0
  3324   002534  5180               	movf	___xxtofl@val& (0+255),w,b
  3325   002536  1181               	iorwf	(___xxtofl@val+1)& (0+255),w,b
  3326   002538  1182               	iorwf	(___xxtofl@val+2)& (0+255),w,b
  3327   00253A  1183               	iorwf	(___xxtofl@val+3)& (0+255),w,b
  3328   00253C  A4D8               	btfss	status,2,c
  3329   00253E  EFA3  F012         	goto	u8141
  3330   002542  EFA5  F012         	goto	u8140
  3331   002546                     u8141:
  3332   002546  EFAF  F012         	goto	l9114
  3333   00254A                     u8140:
  3334   00254A                     
  3335                           ; BSR set to: 0
  3336   00254A  0E00               	movlw	0
  3337   00254C  6F80               	movwf	?___xxtofl& (0+255),b
  3338   00254E  0E00               	movlw	0
  3339   002550  6F81               	movwf	(?___xxtofl+1)& (0+255),b
  3340   002552  0E00               	movlw	0
  3341   002554  6F82               	movwf	(?___xxtofl+2)& (0+255),b
  3342   002556  0E00               	movlw	0
  3343   002558  6F83               	movwf	(?___xxtofl+3)& (0+255),b
  3344   00255A  EF40  F013         	goto	l2380
  3345   00255E                     l9114:
  3346                           
  3347                           ; BSR set to: 0
  3348   00255E  0E96               	movlw	150
  3349   002560  6F89               	movwf	___xxtofl@exp& (0+255),b
  3350   002562  EFB9  F012         	goto	l9118
  3351   002566                     l9116:
  3352                           
  3353                           ; BSR set to: 0
  3354   002566  2B89               	incf	___xxtofl@exp& (0+255),f,b
  3355   002568  90D8               	bcf	status,0,c
  3356   00256A  338D               	rrcf	(___xxtofl@arg+3)& (0+255),f,b
  3357   00256C  338C               	rrcf	(___xxtofl@arg+2)& (0+255),f,b
  3358   00256E  338B               	rrcf	(___xxtofl@arg+1)& (0+255),f,b
  3359   002570  338A               	rrcf	___xxtofl@arg& (0+255),f,b
  3360   002572                     l9118:
  3361                           
  3362                           ; BSR set to: 0
  3363   002572  0E00               	movlw	0
  3364   002574  158A               	andwf	___xxtofl@arg& (0+255),w,b
  3365   002576  6F84               	movwf	??___xxtofl& (0+255),b
  3366   002578  0E00               	movlw	0
  3367   00257A  158B               	andwf	(___xxtofl@arg+1)& (0+255),w,b
  3368   00257C  6F85               	movwf	(??___xxtofl+1)& (0+255),b
  3369   00257E  0E00               	movlw	0
  3370   002580  158C               	andwf	(___xxtofl@arg+2)& (0+255),w,b
  3371   002582  6F86               	movwf	(??___xxtofl+2)& (0+255),b
  3372   002584  0EFE               	movlw	254
  3373   002586  158D               	andwf	(___xxtofl@arg+3)& (0+255),w,b
  3374   002588  6F87               	movwf	(??___xxtofl+3)& (0+255),b
  3375   00258A  5184               	movf	??___xxtofl& (0+255),w,b
  3376   00258C  1185               	iorwf	(??___xxtofl+1)& (0+255),w,b
  3377   00258E  1186               	iorwf	(??___xxtofl+2)& (0+255),w,b
  3378   002590  1187               	iorwf	(??___xxtofl+3)& (0+255),w,b
  3379   002592  A4D8               	btfss	status,2,c
  3380   002594  EFCE  F012         	goto	u8151
  3381   002598  EFD0  F012         	goto	u8150
  3382   00259C                     u8151:
  3383   00259C  EFB3  F012         	goto	l9116
  3384   0025A0                     u8150:
  3385   0025A0  EFDE  F012         	goto	l2384
  3386   0025A4                     l9120:
  3387                           
  3388                           ; BSR set to: 0
  3389   0025A4  2B89               	incf	___xxtofl@exp& (0+255),f,b
  3390   0025A6                     
  3391                           ; BSR set to: 0
  3392   0025A6  0E01               	movlw	1
  3393   0025A8  278A               	addwf	___xxtofl@arg& (0+255),f,b
  3394   0025AA  0E00               	movlw	0
  3395   0025AC  238B               	addwfc	(___xxtofl@arg+1)& (0+255),f,b
  3396   0025AE  238C               	addwfc	(___xxtofl@arg+2)& (0+255),f,b
  3397   0025B0  238D               	addwfc	(___xxtofl@arg+3)& (0+255),f,b
  3398   0025B2                     
  3399                           ; BSR set to: 0
  3400   0025B2  90D8               	bcf	status,0,c
  3401   0025B4  338D               	rrcf	(___xxtofl@arg+3)& (0+255),f,b
  3402   0025B6  338C               	rrcf	(___xxtofl@arg+2)& (0+255),f,b
  3403   0025B8  338B               	rrcf	(___xxtofl@arg+1)& (0+255),f,b
  3404   0025BA  338A               	rrcf	___xxtofl@arg& (0+255),f,b
  3405   0025BC                     l2384:
  3406                           
  3407                           ; BSR set to: 0
  3408   0025BC  0E00               	movlw	0
  3409   0025BE  158A               	andwf	___xxtofl@arg& (0+255),w,b
  3410   0025C0  6F84               	movwf	??___xxtofl& (0+255),b
  3411   0025C2  0E00               	movlw	0
  3412   0025C4  158B               	andwf	(___xxtofl@arg+1)& (0+255),w,b
  3413   0025C6  6F85               	movwf	(??___xxtofl+1)& (0+255),b
  3414   0025C8  0E00               	movlw	0
  3415   0025CA  158C               	andwf	(___xxtofl@arg+2)& (0+255),w,b
  3416   0025CC  6F86               	movwf	(??___xxtofl+2)& (0+255),b
  3417   0025CE  0EFF               	movlw	255
  3418   0025D0  158D               	andwf	(___xxtofl@arg+3)& (0+255),w,b
  3419   0025D2  6F87               	movwf	(??___xxtofl+3)& (0+255),b
  3420   0025D4  5184               	movf	??___xxtofl& (0+255),w,b
  3421   0025D6  1185               	iorwf	(??___xxtofl+1)& (0+255),w,b
  3422   0025D8  1186               	iorwf	(??___xxtofl+2)& (0+255),w,b
  3423   0025DA  1187               	iorwf	(??___xxtofl+3)& (0+255),w,b
  3424   0025DC  A4D8               	btfss	status,2,c
  3425   0025DE  EFF3  F012         	goto	u8161
  3426   0025E2  EFF5  F012         	goto	u8160
  3427   0025E6                     u8161:
  3428   0025E6  EFD2  F012         	goto	l9120
  3429   0025EA                     u8160:
  3430   0025EA  EFFD  F012         	goto	l9128
  3431   0025EE                     l9126:
  3432                           
  3433                           ; BSR set to: 0
  3434   0025EE  0789               	decf	___xxtofl@exp& (0+255),f,b
  3435   0025F0  90D8               	bcf	status,0,c
  3436   0025F2  378A               	rlcf	___xxtofl@arg& (0+255),f,b
  3437   0025F4  378B               	rlcf	(___xxtofl@arg+1)& (0+255),f,b
  3438   0025F6  378C               	rlcf	(___xxtofl@arg+2)& (0+255),f,b
  3439   0025F8  378D               	rlcf	(___xxtofl@arg+3)& (0+255),f,b
  3440   0025FA                     l9128:
  3441                           
  3442                           ; BSR set to: 0
  3443   0025FA  BF8C               	btfsc	(___xxtofl@arg+2)& (0+255),7,b
  3444   0025FC  EF02  F013         	goto	u8171
  3445   002600  EF04  F013         	goto	u8170
  3446   002604                     u8171:
  3447   002604  EF0C  F013         	goto	l2391
  3448   002608                     u8170:
  3449   002608                     
  3450                           ; BSR set to: 0
  3451   002608  0E02               	movlw	2
  3452   00260A  6189               	cpfslt	___xxtofl@exp& (0+255),b
  3453   00260C  EF0A  F013         	goto	u8181
  3454   002610  EF0C  F013         	goto	u8180
  3455   002614                     u8181:
  3456   002614  EFF7  F012         	goto	l9126
  3457   002618                     u8180:
  3458   002618                     l2391:
  3459                           
  3460                           ; BSR set to: 0
  3461   002618  B189               	btfsc	___xxtofl@exp& (0+255),0,b
  3462   00261A  EF11  F013         	goto	u8191
  3463   00261E  EF13  F013         	goto	u8190
  3464   002622                     u8191:
  3465   002622  EF14  F013         	goto	l9134
  3466   002626                     u8190:
  3467   002626                     
  3468                           ; BSR set to: 0
  3469   002626  9F8C               	bcf	(___xxtofl@arg+2)& (0+255),7,b
  3470   002628                     l9134:
  3471                           
  3472                           ; BSR set to: 0
  3473   002628  90D8               	bcf	status,0,c
  3474   00262A  3389               	rrcf	___xxtofl@exp& (0+255),f,b
  3475   00262C                     
  3476                           ; BSR set to: 0
  3477   00262C  C089  F084         	movff	___xxtofl@exp,??___xxtofl
  3478   002630  6B85               	clrf	(??___xxtofl+1)& (0+255),b
  3479   002632  6B86               	clrf	(??___xxtofl+2)& (0+255),b
  3480   002634  6B87               	clrf	(??___xxtofl+3)& (0+255),b
  3481   002636  C084  F087         	movff	??___xxtofl,??___xxtofl+3
  3482   00263A  6B86               	clrf	(??___xxtofl+2)& (0+255),b
  3483   00263C  6B85               	clrf	(??___xxtofl+1)& (0+255),b
  3484   00263E  6B84               	clrf	??___xxtofl& (0+255),b
  3485   002640  5184               	movf	??___xxtofl& (0+255),w,b
  3486   002642  138A               	iorwf	___xxtofl@arg& (0+255),f,b
  3487   002644  5185               	movf	(??___xxtofl+1)& (0+255),w,b
  3488   002646  138B               	iorwf	(___xxtofl@arg+1)& (0+255),f,b
  3489   002648  5186               	movf	(??___xxtofl+2)& (0+255),w,b
  3490   00264A  138C               	iorwf	(___xxtofl@arg+2)& (0+255),f,b
  3491   00264C  5187               	movf	(??___xxtofl+3)& (0+255),w,b
  3492   00264E  138D               	iorwf	(___xxtofl@arg+3)& (0+255),f,b
  3493   002650                     
  3494                           ; BSR set to: 0
  3495   002650  5188               	movf	___xxtofl@sign& (0+255),w,b
  3496   002652  B4D8               	btfsc	status,2,c
  3497   002654  EF2E  F013         	goto	u8201
  3498   002658  EF30  F013         	goto	u8200
  3499   00265C                     u8201:
  3500   00265C  EF38  F013         	goto	l9144
  3501   002660                     u8200:
  3502   002660                     
  3503                           ; BSR set to: 0
  3504   002660  BF83               	btfsc	(___xxtofl@val+3)& (0+255),7,b
  3505   002662  EF37  F013         	goto	u8210
  3506   002666  EF35  F013         	goto	u8211
  3507   00266A                     u8211:
  3508   00266A  EF38  F013         	goto	l9144
  3509   00266E                     u8210:
  3510   00266E                     
  3511                           ; BSR set to: 0
  3512   00266E  8F8D               	bsf	(___xxtofl@arg+3)& (0+255),7,b
  3513   002670                     l9144:
  3514                           
  3515                           ; BSR set to: 0
  3516   002670  C08A  F080         	movff	___xxtofl@arg,?___xxtofl
  3517   002674  C08B  F081         	movff	___xxtofl@arg+1,?___xxtofl+1
  3518   002678  C08C  F082         	movff	___xxtofl@arg+2,?___xxtofl+2
  3519   00267C  C08D  F083         	movff	___xxtofl@arg+3,?___xxtofl+3
  3520   002680                     l2380:
  3521                           
  3522                           ; BSR set to: 0
  3523   002680  0012               	return		;funcret
  3524   002682                     __end_of___xxtofl:
  3525                           	callstack 0
  3526                           
  3527 ;; *************** function ___fltol *****************
  3528 ;; Defined at:
  3529 ;;		line 43 in file "C:\Program Files\Microchip\xc8\v2.46\pic\sources\c99\common\fltol.c"
  3530 ;; Parameters:    Size  Location     Type
  3531 ;;  f1              4    0[BANK0 ] unsigned char 
  3532 ;; Auto vars:     Size  Location     Type
  3533 ;;  exp1            1    9[BANK0 ] unsigned char 
  3534 ;;  sign1           1    8[BANK0 ] unsigned char 
  3535 ;; Return value:  Size  Location     Type
  3536 ;;                  4    0[BANK0 ] long 
  3537 ;; Registers used:
  3538 ;;		wreg, status,2, status,0
  3539 ;; Tracked objects:
  3540 ;;		On entry : 0/0
  3541 ;;		On exit  : 0/0
  3542 ;;		Unchanged: 0/0
  3543 ;; Data sizes:     COMRAM   BANK0   BANK1   BANK2   BANK3   BANK4   BANK5   BANK6   BANK7   BANK8   BANK9  BANK10  BANK1
      +1  BANK12  BANK13  BANK14  BANK15
  3544 ;;      Params:         0       4       0       0       0       0       0       0       0       0       0       0       
      +0       0       0       0       0
  3545 ;;      Locals:         0       2       0       0       0       0       0       0       0       0       0       0       
      +0       0       0       0       0
  3546 ;;      Temps:          0       4       0       0       0       0       0       0       0       0       0       0       
      +0       0       0       0       0
  3547 ;;      Totals:         0      10       0       0       0       0       0       0       0       0       0       0       
      +0       0       0       0       0
  3548 ;;Total ram usage:       10 bytes
  3549 ;; Hardware stack levels used: 1
  3550 ;; Hardware stack levels required when called: 7
  3551 ;; This function calls:
  3552 ;;		Nothing
  3553 ;; This function is called by:
  3554 ;;		_eusart_async_baudrate_calculation
  3555 ;;		_CCP_Init
  3556 ;;		_CCP_PWMSetDuty
  3557 ;;		_mssp_i2c_mode_master_clock_configurations
  3558 ;; This function uses a non-reentrant model
  3559 ;;
  3560                           
  3561                           	psect	text15
  3562   002988                     __ptext15:
  3563                           	callstack 0
  3564   002988                     ___fltol:
  3565                           	callstack 19
  3566   002988  0100               	movlb	0	; () banked
  3567   00298A  3582               	rlcf	(___fltol@f1+2)& (0+255),w,b
  3568   00298C  3583               	rlcf	(___fltol@f1+3)& (0+255),w,b
  3569   00298E  6F89               	movwf	___fltol@exp1& (0+255),b
  3570   002990  5189               	movf	___fltol@exp1& (0+255),w,b
  3571   002992  A4D8               	btfss	status,2,c
  3572   002994  EFCE  F014         	goto	u8051
  3573   002998  EFD0  F014         	goto	u8050
  3574   00299C                     u8051:
  3575   00299C  EFDA  F014         	goto	l9064
  3576   0029A0                     u8050:
  3577   0029A0                     l9060:
  3578                           
  3579                           ; BSR set to: 0
  3580   0029A0  0E00               	movlw	0
  3581   0029A2  6F80               	movwf	?___fltol& (0+255),b
  3582   0029A4  0E00               	movlw	0
  3583   0029A6  6F81               	movwf	(?___fltol+1)& (0+255),b
  3584   0029A8  0E00               	movlw	0
  3585   0029AA  6F82               	movwf	(?___fltol+2)& (0+255),b
  3586   0029AC  0E00               	movlw	0
  3587   0029AE  6F83               	movwf	(?___fltol+3)& (0+255),b
  3588   0029B0  EF47  F015         	goto	l2019
  3589   0029B4                     l9064:
  3590                           
  3591                           ; BSR set to: 0
  3592   0029B4  C080  F084         	movff	___fltol@f1,??___fltol
  3593   0029B8  C081  F085         	movff	___fltol@f1+1,??___fltol+1
  3594   0029BC  C082  F086         	movff	___fltol@f1+2,??___fltol+2
  3595   0029C0  C083  F087         	movff	___fltol@f1+3,??___fltol+3
  3596   0029C4  0E20               	movlw	32
  3597   0029C6  EFEA  F014         	goto	u8060
  3598   0029CA                     u8065:
  3599   0029CA  90D8               	bcf	status,0,c
  3600   0029CC  3387               	rrcf	(??___fltol+3)& (0+255),f,b
  3601   0029CE  3386               	rrcf	(??___fltol+2)& (0+255),f,b
  3602   0029D0  3385               	rrcf	(??___fltol+1)& (0+255),f,b
  3603   0029D2  3384               	rrcf	??___fltol& (0+255),f,b
  3604   0029D4                     u8060:
  3605   0029D4  2EE8               	decfsz	wreg,f,c
  3606   0029D6  EFE5  F014         	goto	u8065
  3607   0029DA  5184               	movf	??___fltol& (0+255),w,b
  3608   0029DC  6F88               	movwf	___fltol@sign1& (0+255),b
  3609   0029DE                     
  3610                           ; BSR set to: 0
  3611   0029DE  8F82               	bsf	(___fltol@f1+2)& (0+255),7,b
  3612   0029E0                     
  3613                           ; BSR set to: 0
  3614   0029E0  0EFF               	movlw	255
  3615   0029E2  1780               	andwf	___fltol@f1& (0+255),f,b
  3616   0029E4  0EFF               	movlw	255
  3617   0029E6  1781               	andwf	(___fltol@f1+1)& (0+255),f,b
  3618   0029E8  0EFF               	movlw	255
  3619   0029EA  1782               	andwf	(___fltol@f1+2)& (0+255),f,b
  3620   0029EC  0E00               	movlw	0
  3621   0029EE  1783               	andwf	(___fltol@f1+3)& (0+255),f,b
  3622   0029F0                     
  3623                           ; BSR set to: 0
  3624   0029F0  0E96               	movlw	150
  3625   0029F2  5F89               	subwf	___fltol@exp1& (0+255),f,b
  3626   0029F4                     
  3627                           ; BSR set to: 0
  3628   0029F4  BF89               	btfsc	___fltol@exp1& (0+255),7,b
  3629   0029F6  EF01  F015         	goto	u8070
  3630   0029FA  EFFF  F014         	goto	u8071
  3631   0029FE                     u8071:
  3632   0029FE  EF17  F015         	goto	l9084
  3633   002A02                     u8070:
  3634   002A02                     
  3635                           ; BSR set to: 0
  3636   002A02  5189               	movf	___fltol@exp1& (0+255),w,b
  3637   002A04  0A80               	xorlw	128
  3638   002A06  0F97               	addlw	151
  3639   002A08  B0D8               	btfsc	status,0,c
  3640   002A0A  EF09  F015         	goto	u8081
  3641   002A0E  EF0B  F015         	goto	u8080
  3642   002A12                     u8081:
  3643   002A12  EF0D  F015         	goto	l9080
  3644   002A16                     u8080:
  3645   002A16  EFD0  F014         	goto	l9060
  3646   002A1A                     l9080:
  3647                           
  3648                           ; BSR set to: 0
  3649   002A1A  90D8               	bcf	status,0,c
  3650   002A1C  3383               	rrcf	(___fltol@f1+3)& (0+255),f,b
  3651   002A1E  3382               	rrcf	(___fltol@f1+2)& (0+255),f,b
  3652   002A20  3381               	rrcf	(___fltol@f1+1)& (0+255),f,b
  3653   002A22  3380               	rrcf	___fltol@f1& (0+255),f,b
  3654   002A24                     
  3655                           ; BSR set to: 0
  3656   002A24  3F89               	incfsz	___fltol@exp1& (0+255),f,b
  3657   002A26  EF0D  F015         	goto	l9080
  3658   002A2A  EF2F  F015         	goto	l9094
  3659   002A2E                     l9084:
  3660                           
  3661                           ; BSR set to: 0
  3662   002A2E  0E1F               	movlw	31
  3663   002A30  6589               	cpfsgt	___fltol@exp1& (0+255),b
  3664   002A32  EF1D  F015         	goto	u8091
  3665   002A36  EF1F  F015         	goto	u8090
  3666   002A3A                     u8091:
  3667   002A3A  EF27  F015         	goto	l9092
  3668   002A3E                     u8090:
  3669   002A3E  EFD0  F014         	goto	l9060
  3670   002A42                     l9090:
  3671                           
  3672                           ; BSR set to: 0
  3673   002A42  90D8               	bcf	status,0,c
  3674   002A44  3780               	rlcf	___fltol@f1& (0+255),f,b
  3675   002A46  3781               	rlcf	(___fltol@f1+1)& (0+255),f,b
  3676   002A48  3782               	rlcf	(___fltol@f1+2)& (0+255),f,b
  3677   002A4A  3783               	rlcf	(___fltol@f1+3)& (0+255),f,b
  3678   002A4C  0789               	decf	___fltol@exp1& (0+255),f,b
  3679   002A4E                     l9092:
  3680                           
  3681                           ; BSR set to: 0
  3682   002A4E  5189               	movf	___fltol@exp1& (0+255),w,b
  3683   002A50  A4D8               	btfss	status,2,c
  3684   002A52  EF2D  F015         	goto	u8101
  3685   002A56  EF2F  F015         	goto	u8100
  3686   002A5A                     u8101:
  3687   002A5A  EF21  F015         	goto	l9090
  3688   002A5E                     u8100:
  3689   002A5E                     l9094:
  3690                           
  3691                           ; BSR set to: 0
  3692   002A5E  5188               	movf	___fltol@sign1& (0+255),w,b
  3693   002A60  B4D8               	btfsc	status,2,c
  3694   002A62  EF35  F015         	goto	u8111
  3695   002A66  EF37  F015         	goto	u8110
  3696   002A6A                     u8111:
  3697   002A6A  EF3F  F015         	goto	l9098
  3698   002A6E                     u8110:
  3699   002A6E                     
  3700                           ; BSR set to: 0
  3701   002A6E  1F83               	comf	(___fltol@f1+3)& (0+255),f,b
  3702   002A70  1F82               	comf	(___fltol@f1+2)& (0+255),f,b
  3703   002A72  1F81               	comf	(___fltol@f1+1)& (0+255),f,b
  3704   002A74  6D80               	negf	___fltol@f1& (0+255),b
  3705   002A76  0E00               	movlw	0
  3706   002A78  2381               	addwfc	(___fltol@f1+1)& (0+255),f,b
  3707   002A7A  2382               	addwfc	(___fltol@f1+2)& (0+255),f,b
  3708   002A7C  2383               	addwfc	(___fltol@f1+3)& (0+255),f,b
  3709   002A7E                     l9098:
  3710                           
  3711                           ; BSR set to: 0
  3712   002A7E  C080  F080         	movff	___fltol@f1,?___fltol
  3713   002A82  C081  F081         	movff	___fltol@f1+1,?___fltol+1
  3714   002A86  C082  F082         	movff	___fltol@f1+2,?___fltol+2
  3715   002A8A  C083  F083         	movff	___fltol@f1+3,?___fltol+3
  3716   002A8E                     l2019:
  3717                           
  3718                           ; BSR set to: 0
  3719   002A8E  0012               	return		;funcret
  3720   002A90                     __end_of___fltol:
  3721                           	callstack 0
  3722                           
  3723 ;; *************** function ___fldiv *****************
  3724 ;; Defined at:
  3725 ;;		line 11 in file "C:\Program Files\Microchip\xc8\v2.46\pic\sources\c99\common\sprcdiv.c"
  3726 ;; Parameters:    Size  Location     Type
  3727 ;;  b               4   14[BANK0 ] long 
  3728 ;;  a               4   18[BANK0 ] long 
  3729 ;; Auto vars:     Size  Location     Type
  3730 ;;  grs             4   33[BANK0 ] unsigned long 
  3731 ;;  rem             4   26[BANK0 ] unsigned long 
  3732 ;;  new_exp         2   31[BANK0 ] short 
  3733 ;;  aexp            1   38[BANK0 ] unsigned char 
  3734 ;;  bexp            1   37[BANK0 ] unsigned char 
  3735 ;;  sign            1   30[BANK0 ] unsigned char 
  3736 ;; Return value:  Size  Location     Type
  3737 ;;                  4   14[BANK0 ] unsigned char 
  3738 ;; Registers used:
  3739 ;;		wreg, status,2, status,0
  3740 ;; Tracked objects:
  3741 ;;		On entry : 0/0
  3742 ;;		On exit  : 0/0
  3743 ;;		Unchanged: 0/0
  3744 ;; Data sizes:     COMRAM   BANK0   BANK1   BANK2   BANK3   BANK4   BANK5   BANK6   BANK7   BANK8   BANK9  BANK10  BANK1
      +1  BANK12  BANK13  BANK14  BANK15
  3745 ;;      Params:         0       8       0       0       0       0       0       0       0       0       0       0       
      +0       0       0       0       0
  3746 ;;      Locals:         0      13       0       0       0       0       0       0       0       0       0       0       
      +0       0       0       0       0
  3747 ;;      Temps:          0       4       0       0       0       0       0       0       0       0       0       0       
      +0       0       0       0       0
  3748 ;;      Totals:         0      25       0       0       0       0       0       0       0       0       0       0       
      +0       0       0       0       0
  3749 ;;Total ram usage:       25 bytes
  3750 ;; Hardware stack levels used: 1
  3751 ;; Hardware stack levels required when called: 7
  3752 ;; This function calls:
  3753 ;;		Nothing
  3754 ;; This function is called by:
  3755 ;;		_eusart_async_baudrate_calculation
  3756 ;;		_CCP_Init
  3757 ;;		_CCP_PWMSetDuty
  3758 ;;		_mssp_i2c_mode_master_clock_configurations
  3759 ;; This function uses a non-reentrant model
  3760 ;;
  3761                           
  3762                           	psect	text16
  3763   001E22                     __ptext16:
  3764                           	callstack 0
  3765   001E22                     ___fldiv:
  3766                           	callstack 19
  3767   001E22  0100               	movlb	0	; () banked
  3768   001E24  5191               	movf	(___fldiv@b+3)& (0+255),w,b
  3769   001E26  0B80               	andlw	128
  3770   001E28  6F9E               	movwf	___fldiv@sign& (0+255),b
  3771   001E2A  5191               	movf	(___fldiv@b+3)& (0+255),w,b
  3772   001E2C  2591               	addwf	(___fldiv@b+3)& (0+255),w,b
  3773   001E2E  6FA5               	movwf	___fldiv@bexp& (0+255),b
  3774   001E30                     
  3775                           ; BSR set to: 0
  3776   001E30  AF90               	btfss	(___fldiv@b+2)& (0+255),7,b
  3777   001E32  EF1D  F00F         	goto	u7821
  3778   001E36  EF1F  F00F         	goto	u7820
  3779   001E3A                     u7821:
  3780   001E3A  EF20  F00F         	goto	l8926
  3781   001E3E                     u7820:
  3782   001E3E                     
  3783                           ; BSR set to: 0
  3784   001E3E  81A5               	bsf	___fldiv@bexp& (0+255),0,b
  3785   001E40                     l8926:
  3786                           
  3787                           ; BSR set to: 0
  3788   001E40  51A5               	movf	___fldiv@bexp& (0+255),w,b
  3789   001E42  B4D8               	btfsc	status,2,c
  3790   001E44  EF26  F00F         	goto	u7831
  3791   001E48  EF28  F00F         	goto	u7830
  3792   001E4C                     u7831:
  3793   001E4C  EF3D  F00F         	goto	l8936
  3794   001E50                     u7830:
  3795   001E50                     
  3796                           ; BSR set to: 0
  3797   001E50  29A5               	incf	___fldiv@bexp& (0+255),w,b
  3798   001E52  A4D8               	btfss	status,2,c
  3799   001E54  EF2E  F00F         	goto	u7841
  3800   001E58  EF30  F00F         	goto	u7840
  3801   001E5C                     u7841:
  3802   001E5C  EF38  F00F         	goto	l8932
  3803   001E60                     u7840:
  3804   001E60                     
  3805                           ; BSR set to: 0
  3806   001E60  0E00               	movlw	0
  3807   001E62  6F8E               	movwf	___fldiv@b& (0+255),b
  3808   001E64  0E00               	movlw	0
  3809   001E66  6F8F               	movwf	(___fldiv@b+1)& (0+255),b
  3810   001E68  0E00               	movlw	0
  3811   001E6A  6F90               	movwf	(___fldiv@b+2)& (0+255),b
  3812   001E6C  0E00               	movlw	0
  3813   001E6E  6F91               	movwf	(___fldiv@b+3)& (0+255),b
  3814   001E70                     l8932:
  3815                           
  3816                           ; BSR set to: 0
  3817   001E70  8F90               	bsf	(___fldiv@b+2)& (0+255),7,b
  3818   001E72                     
  3819                           ; BSR set to: 0
  3820   001E72  0E00               	movlw	0
  3821   001E74  6F91               	movwf	(___fldiv@b+3)& (0+255),b
  3822   001E76  EF45  F00F         	goto	l8938
  3823   001E7A                     l8936:
  3824                           
  3825                           ; BSR set to: 0
  3826   001E7A  0E00               	movlw	0
  3827   001E7C  6F8E               	movwf	___fldiv@b& (0+255),b
  3828   001E7E  0E00               	movlw	0
  3829   001E80  6F8F               	movwf	(___fldiv@b+1)& (0+255),b
  3830   001E82  0E00               	movlw	0
  3831   001E84  6F90               	movwf	(___fldiv@b+2)& (0+255),b
  3832   001E86  0E00               	movlw	0
  3833   001E88  6F91               	movwf	(___fldiv@b+3)& (0+255),b
  3834   001E8A                     l8938:
  3835                           
  3836                           ; BSR set to: 0
  3837   001E8A  5195               	movf	(___fldiv@a+3)& (0+255),w,b
  3838   001E8C  0B80               	andlw	128
  3839   001E8E  1B9E               	xorwf	___fldiv@sign& (0+255),f,b
  3840   001E90                     
  3841                           ; BSR set to: 0
  3842   001E90  5195               	movf	(___fldiv@a+3)& (0+255),w,b
  3843   001E92  2595               	addwf	(___fldiv@a+3)& (0+255),w,b
  3844   001E94  6FA6               	movwf	___fldiv@aexp& (0+255),b
  3845   001E96                     
  3846                           ; BSR set to: 0
  3847   001E96  AF94               	btfss	(___fldiv@a+2)& (0+255),7,b
  3848   001E98  EF50  F00F         	goto	u7851
  3849   001E9C  EF52  F00F         	goto	u7850
  3850   001EA0                     u7851:
  3851   001EA0  EF53  F00F         	goto	l8946
  3852   001EA4                     u7850:
  3853   001EA4                     
  3854                           ; BSR set to: 0
  3855   001EA4  81A6               	bsf	___fldiv@aexp& (0+255),0,b
  3856   001EA6                     l8946:
  3857                           
  3858                           ; BSR set to: 0
  3859   001EA6  51A6               	movf	___fldiv@aexp& (0+255),w,b
  3860   001EA8  B4D8               	btfsc	status,2,c
  3861   001EAA  EF59  F00F         	goto	u7861
  3862   001EAE  EF5B  F00F         	goto	u7860
  3863   001EB2                     u7861:
  3864   001EB2  EF70  F00F         	goto	l8956
  3865   001EB6                     u7860:
  3866   001EB6                     
  3867                           ; BSR set to: 0
  3868   001EB6  29A6               	incf	___fldiv@aexp& (0+255),w,b
  3869   001EB8  A4D8               	btfss	status,2,c
  3870   001EBA  EF61  F00F         	goto	u7871
  3871   001EBE  EF63  F00F         	goto	u7870
  3872   001EC2                     u7871:
  3873   001EC2  EF6B  F00F         	goto	l8952
  3874   001EC6                     u7870:
  3875   001EC6                     
  3876                           ; BSR set to: 0
  3877   001EC6  0E00               	movlw	0
  3878   001EC8  6F92               	movwf	___fldiv@a& (0+255),b
  3879   001ECA  0E00               	movlw	0
  3880   001ECC  6F93               	movwf	(___fldiv@a+1)& (0+255),b
  3881   001ECE  0E00               	movlw	0
  3882   001ED0  6F94               	movwf	(___fldiv@a+2)& (0+255),b
  3883   001ED2  0E00               	movlw	0
  3884   001ED4  6F95               	movwf	(___fldiv@a+3)& (0+255),b
  3885   001ED6                     l8952:
  3886                           
  3887                           ; BSR set to: 0
  3888   001ED6  8F94               	bsf	(___fldiv@a+2)& (0+255),7,b
  3889   001ED8                     
  3890                           ; BSR set to: 0
  3891   001ED8  0E00               	movlw	0
  3892   001EDA  6F95               	movwf	(___fldiv@a+3)& (0+255),b
  3893   001EDC  EF78  F00F         	goto	l8958
  3894   001EE0                     l8956:
  3895                           
  3896                           ; BSR set to: 0
  3897   001EE0  0E00               	movlw	0
  3898   001EE2  6F92               	movwf	___fldiv@a& (0+255),b
  3899   001EE4  0E00               	movlw	0
  3900   001EE6  6F93               	movwf	(___fldiv@a+1)& (0+255),b
  3901   001EE8  0E00               	movlw	0
  3902   001EEA  6F94               	movwf	(___fldiv@a+2)& (0+255),b
  3903   001EEC  0E00               	movlw	0
  3904   001EEE  6F95               	movwf	(___fldiv@a+3)& (0+255),b
  3905   001EF0                     l8958:
  3906                           
  3907                           ; BSR set to: 0
  3908   001EF0  5192               	movf	___fldiv@a& (0+255),w,b
  3909   001EF2  1193               	iorwf	(___fldiv@a+1)& (0+255),w,b
  3910   001EF4  1194               	iorwf	(___fldiv@a+2)& (0+255),w,b
  3911   001EF6  1195               	iorwf	(___fldiv@a+3)& (0+255),w,b
  3912   001EF8  A4D8               	btfss	status,2,c
  3913   001EFA  EF81  F00F         	goto	u7881
  3914   001EFE  EF83  F00F         	goto	u7880
  3915   001F02                     u7881:
  3916   001F02  EF9B  F00F         	goto	l8970
  3917   001F06                     u7880:
  3918   001F06                     
  3919                           ; BSR set to: 0
  3920   001F06  0E00               	movlw	0
  3921   001F08  6F8E               	movwf	___fldiv@b& (0+255),b
  3922   001F0A  0E00               	movlw	0
  3923   001F0C  6F8F               	movwf	(___fldiv@b+1)& (0+255),b
  3924   001F0E  0E00               	movlw	0
  3925   001F10  6F90               	movwf	(___fldiv@b+2)& (0+255),b
  3926   001F12  0E00               	movlw	0
  3927   001F14  6F91               	movwf	(___fldiv@b+3)& (0+255),b
  3928   001F16                     
  3929                           ; BSR set to: 0
  3930   001F16  0E80               	movlw	128
  3931   001F18  1390               	iorwf	(___fldiv@b+2)& (0+255),f,b
  3932   001F1A  0E7F               	movlw	127
  3933   001F1C  1391               	iorwf	(___fldiv@b+3)& (0+255),f,b
  3934   001F1E                     l8964:
  3935                           
  3936                           ; BSR set to: 0
  3937   001F1E  519E               	movf	___fldiv@sign& (0+255),w,b
  3938   001F20  1391               	iorwf	(___fldiv@b+3)& (0+255),f,b
  3939   001F22                     
  3940                           ; BSR set to: 0
  3941   001F22  C08E  F08E         	movff	___fldiv@b,?___fldiv
  3942   001F26  C08F  F08F         	movff	___fldiv@b+1,?___fldiv+1
  3943   001F2A  C090  F090         	movff	___fldiv@b+2,?___fldiv+2
  3944   001F2E  C091  F091         	movff	___fldiv@b+3,?___fldiv+3
  3945   001F32  EFDE  F010         	goto	l2304
  3946   001F36                     l8970:
  3947                           
  3948                           ; BSR set to: 0
  3949   001F36  51A5               	movf	___fldiv@bexp& (0+255),w,b
  3950   001F38  A4D8               	btfss	status,2,c
  3951   001F3A  EFA1  F00F         	goto	u7891
  3952   001F3E  EFA3  F00F         	goto	u7890
  3953   001F42                     u7891:
  3954   001F42  EFAD  F00F         	goto	l8978
  3955   001F46                     u7890:
  3956   001F46                     
  3957                           ; BSR set to: 0
  3958   001F46  0E00               	movlw	0
  3959   001F48  6F8E               	movwf	?___fldiv& (0+255),b
  3960   001F4A  0E00               	movlw	0
  3961   001F4C  6F8F               	movwf	(?___fldiv+1)& (0+255),b
  3962   001F4E  0E00               	movlw	0
  3963   001F50  6F90               	movwf	(?___fldiv+2)& (0+255),b
  3964   001F52  0E00               	movlw	0
  3965   001F54  6F91               	movwf	(?___fldiv+3)& (0+255),b
  3966   001F56  EFDE  F010         	goto	l2304
  3967   001F5A                     l8978:
  3968                           
  3969                           ; BSR set to: 0
  3970   001F5A  51A6               	movf	___fldiv@aexp& (0+255),w,b
  3971   001F5C  C0A5  F096         	movff	___fldiv@bexp,??___fldiv
  3972   001F60  6B97               	clrf	(??___fldiv+1)& (0+255),b
  3973   001F62  5F96               	subwf	??___fldiv& (0+255),f,b
  3974   001F64  0E00               	movlw	0
  3975   001F66  5B97               	subwfb	(??___fldiv+1)& (0+255),f,b
  3976   001F68  0E7F               	movlw	127
  3977   001F6A  2596               	addwf	??___fldiv& (0+255),w,b
  3978   001F6C  6F9F               	movwf	___fldiv@new_exp& (0+255),b
  3979   001F6E  0E00               	movlw	0
  3980   001F70  2197               	addwfc	(??___fldiv+1)& (0+255),w,b
  3981   001F72  6FA0               	movwf	(___fldiv@new_exp+1)& (0+255),b
  3982   001F74                     
  3983                           ; BSR set to: 0
  3984   001F74  C08E  F09A         	movff	___fldiv@b,___fldiv@rem
  3985   001F78  C08F  F09B         	movff	___fldiv@b+1,___fldiv@rem+1
  3986   001F7C  C090  F09C         	movff	___fldiv@b+2,___fldiv@rem+2
  3987   001F80  C091  F09D         	movff	___fldiv@b+3,___fldiv@rem+3
  3988   001F84                     
  3989                           ; BSR set to: 0
  3990   001F84  0E00               	movlw	0
  3991   001F86  6F8E               	movwf	___fldiv@b& (0+255),b
  3992   001F88  0E00               	movlw	0
  3993   001F8A  6F8F               	movwf	(___fldiv@b+1)& (0+255),b
  3994   001F8C  0E00               	movlw	0
  3995   001F8E  6F90               	movwf	(___fldiv@b+2)& (0+255),b
  3996   001F90  0E00               	movlw	0
  3997   001F92  6F91               	movwf	(___fldiv@b+3)& (0+255),b
  3998   001F94                     
  3999                           ; BSR set to: 0
  4000   001F94  0E00               	movlw	0
  4001   001F96  6FA1               	movwf	___fldiv@grs& (0+255),b
  4002   001F98  0E00               	movlw	0
  4003   001F9A  6FA2               	movwf	(___fldiv@grs+1)& (0+255),b
  4004   001F9C  0E00               	movlw	0
  4005   001F9E  6FA3               	movwf	(___fldiv@grs+2)& (0+255),b
  4006   001FA0  0E00               	movlw	0
  4007   001FA2  6FA4               	movwf	(___fldiv@grs+3)& (0+255),b
  4008   001FA4                     
  4009                           ; BSR set to: 0
  4010   001FA4  0E00               	movlw	0
  4011   001FA6  6FA6               	movwf	___fldiv@aexp& (0+255),b
  4012   001FA8  EF0E  F010         	goto	l2306
  4013   001FAC                     l8988:
  4014                           
  4015                           ; BSR set to: 0
  4016   001FAC  51A6               	movf	___fldiv@aexp& (0+255),w,b
  4017   001FAE  B4D8               	btfsc	status,2,c
  4018   001FB0  EFDC  F00F         	goto	u7901
  4019   001FB4  EFDE  F00F         	goto	u7900
  4020   001FB8                     u7901:
  4021   001FB8  EFF5  F00F         	goto	l8996
  4022   001FBC                     u7900:
  4023   001FBC                     
  4024                           ; BSR set to: 0
  4025   001FBC  90D8               	bcf	status,0,c
  4026   001FBE  379A               	rlcf	___fldiv@rem& (0+255),f,b
  4027   001FC0  379B               	rlcf	(___fldiv@rem+1)& (0+255),f,b
  4028   001FC2  379C               	rlcf	(___fldiv@rem+2)& (0+255),f,b
  4029   001FC4  379D               	rlcf	(___fldiv@rem+3)& (0+255),f,b
  4030   001FC6  90D8               	bcf	status,0,c
  4031   001FC8  378E               	rlcf	___fldiv@b& (0+255),f,b
  4032   001FCA  378F               	rlcf	(___fldiv@b+1)& (0+255),f,b
  4033   001FCC  3790               	rlcf	(___fldiv@b+2)& (0+255),f,b
  4034   001FCE  3791               	rlcf	(___fldiv@b+3)& (0+255),f,b
  4035   001FD0                     
  4036                           ; BSR set to: 0
  4037   001FD0  AFA4               	btfss	(___fldiv@grs+3)& (0+255),7,b
  4038   001FD2  EFED  F00F         	goto	u7911
  4039   001FD6  EFEF  F00F         	goto	u7910
  4040   001FDA                     u7911:
  4041   001FDA  EFF0  F00F         	goto	l2309
  4042   001FDE                     u7910:
  4043   001FDE                     
  4044                           ; BSR set to: 0
  4045   001FDE  818E               	bsf	___fldiv@b& (0+255),0,b
  4046   001FE0                     l2309:
  4047                           
  4048                           ; BSR set to: 0
  4049   001FE0  90D8               	bcf	status,0,c
  4050   001FE2  37A1               	rlcf	___fldiv@grs& (0+255),f,b
  4051   001FE4  37A2               	rlcf	(___fldiv@grs+1)& (0+255),f,b
  4052   001FE6  37A3               	rlcf	(___fldiv@grs+2)& (0+255),f,b
  4053   001FE8  37A4               	rlcf	(___fldiv@grs+3)& (0+255),f,b
  4054   001FEA                     l8996:
  4055                           
  4056                           ; BSR set to: 0
  4057   001FEA  5192               	movf	___fldiv@a& (0+255),w,b
  4058   001FEC  5D9A               	subwf	___fldiv@rem& (0+255),w,b
  4059   001FEE  5193               	movf	(___fldiv@a+1)& (0+255),w,b
  4060   001FF0  599B               	subwfb	(___fldiv@rem+1)& (0+255),w,b
  4061   001FF2  5194               	movf	(___fldiv@a+2)& (0+255),w,b
  4062   001FF4  599C               	subwfb	(___fldiv@rem+2)& (0+255),w,b
  4063   001FF6  5195               	movf	(___fldiv@a+3)& (0+255),w,b
  4064   001FF8  599D               	subwfb	(___fldiv@rem+3)& (0+255),w,b
  4065   001FFA  A0D8               	btfss	status,0,c
  4066   001FFC  EF02  F010         	goto	u7921
  4067   002000  EF04  F010         	goto	u7920
  4068   002004                     u7921:
  4069   002004  EF0D  F010         	goto	l9002
  4070   002008                     u7920:
  4071   002008                     
  4072                           ; BSR set to: 0
  4073   002008  8DA4               	bsf	(___fldiv@grs+3)& (0+255),6,b
  4074   00200A                     
  4075                           ; BSR set to: 0
  4076   00200A  5192               	movf	___fldiv@a& (0+255),w,b
  4077   00200C  5F9A               	subwf	___fldiv@rem& (0+255),f,b
  4078   00200E  5193               	movf	(___fldiv@a+1)& (0+255),w,b
  4079   002010  5B9B               	subwfb	(___fldiv@rem+1)& (0+255),f,b
  4080   002012  5194               	movf	(___fldiv@a+2)& (0+255),w,b
  4081   002014  5B9C               	subwfb	(___fldiv@rem+2)& (0+255),f,b
  4082   002016  5195               	movf	(___fldiv@a+3)& (0+255),w,b
  4083   002018  5B9D               	subwfb	(___fldiv@rem+3)& (0+255),f,b
  4084   00201A                     l9002:
  4085                           
  4086                           ; BSR set to: 0
  4087   00201A  2BA6               	incf	___fldiv@aexp& (0+255),f,b
  4088   00201C                     l2306:
  4089                           
  4090                           ; BSR set to: 0
  4091   00201C  0E19               	movlw	25
  4092   00201E  65A6               	cpfsgt	___fldiv@aexp& (0+255),b
  4093   002020  EF14  F010         	goto	u7931
  4094   002024  EF16  F010         	goto	u7930
  4095   002028                     u7931:
  4096   002028  EFD6  F00F         	goto	l8988
  4097   00202C                     u7930:
  4098   00202C                     
  4099                           ; BSR set to: 0
  4100   00202C  519A               	movf	___fldiv@rem& (0+255),w,b
  4101   00202E  119B               	iorwf	(___fldiv@rem+1)& (0+255),w,b
  4102   002030  119C               	iorwf	(___fldiv@rem+2)& (0+255),w,b
  4103   002032  119D               	iorwf	(___fldiv@rem+3)& (0+255),w,b
  4104   002034  B4D8               	btfsc	status,2,c
  4105   002036  EF1F  F010         	goto	u7941
  4106   00203A  EF21  F010         	goto	u7940
  4107   00203E                     u7941:
  4108   00203E  EF39  F010         	goto	l9014
  4109   002042                     u7940:
  4110   002042                     
  4111                           ; BSR set to: 0
  4112   002042  81A1               	bsf	___fldiv@grs& (0+255),0,b
  4113   002044  EF39  F010         	goto	l9014
  4114   002048                     l9008:
  4115                           
  4116                           ; BSR set to: 0
  4117   002048  90D8               	bcf	status,0,c
  4118   00204A  378E               	rlcf	___fldiv@b& (0+255),f,b
  4119   00204C  378F               	rlcf	(___fldiv@b+1)& (0+255),f,b
  4120   00204E  3790               	rlcf	(___fldiv@b+2)& (0+255),f,b
  4121   002050  3791               	rlcf	(___fldiv@b+3)& (0+255),f,b
  4122   002052                     
  4123                           ; BSR set to: 0
  4124   002052  AFA4               	btfss	(___fldiv@grs+3)& (0+255),7,b
  4125   002054  EF2E  F010         	goto	u7951
  4126   002058  EF30  F010         	goto	u7950
  4127   00205C                     u7951:
  4128   00205C  EF31  F010         	goto	l2315
  4129   002060                     u7950:
  4130   002060                     
  4131                           ; BSR set to: 0
  4132   002060  818E               	bsf	___fldiv@b& (0+255),0,b
  4133   002062                     l2315:
  4134                           
  4135                           ; BSR set to: 0
  4136   002062  90D8               	bcf	status,0,c
  4137   002064  37A1               	rlcf	___fldiv@grs& (0+255),f,b
  4138   002066  37A2               	rlcf	(___fldiv@grs+1)& (0+255),f,b
  4139   002068  37A3               	rlcf	(___fldiv@grs+2)& (0+255),f,b
  4140   00206A  37A4               	rlcf	(___fldiv@grs+3)& (0+255),f,b
  4141   00206C  079F               	decf	___fldiv@new_exp& (0+255),f,b
  4142   00206E  A0D8               	btfss	status,0,c
  4143   002070  07A0               	decf	(___fldiv@new_exp+1)& (0+255),f,b
  4144   002072                     l9014:
  4145                           
  4146                           ; BSR set to: 0
  4147   002072  AF90               	btfss	(___fldiv@b+2)& (0+255),7,b
  4148   002074  EF3E  F010         	goto	u7961
  4149   002078  EF40  F010         	goto	u7960
  4150   00207C                     u7961:
  4151   00207C  EF24  F010         	goto	l9008
  4152   002080                     u7960:
  4153   002080                     
  4154                           ; BSR set to: 0
  4155   002080  0E00               	movlw	0
  4156   002082  6FA6               	movwf	___fldiv@aexp& (0+255),b
  4157   002084                     
  4158                           ; BSR set to: 0
  4159   002084  AFA4               	btfss	(___fldiv@grs+3)& (0+255),7,b
  4160   002086  EF47  F010         	goto	u7971
  4161   00208A  EF49  F010         	goto	u7970
  4162   00208E                     u7971:
  4163   00208E  EF6D  F010         	goto	l2317
  4164   002092                     u7970:
  4165   002092                     
  4166                           ; BSR set to: 0
  4167   002092  0EFF               	movlw	255
  4168   002094  15A1               	andwf	___fldiv@grs& (0+255),w,b
  4169   002096  6F96               	movwf	??___fldiv& (0+255),b
  4170   002098  0EFF               	movlw	255
  4171   00209A  15A2               	andwf	(___fldiv@grs+1)& (0+255),w,b
  4172   00209C  6F97               	movwf	(??___fldiv+1)& (0+255),b
  4173   00209E  0EFF               	movlw	255
  4174   0020A0  15A3               	andwf	(___fldiv@grs+2)& (0+255),w,b
  4175   0020A2  6F98               	movwf	(??___fldiv+2)& (0+255),b
  4176   0020A4  0E7F               	movlw	127
  4177   0020A6  15A4               	andwf	(___fldiv@grs+3)& (0+255),w,b
  4178   0020A8  6F99               	movwf	(??___fldiv+3)& (0+255),b
  4179   0020AA  5196               	movf	??___fldiv& (0+255),w,b
  4180   0020AC  1197               	iorwf	(??___fldiv+1)& (0+255),w,b
  4181   0020AE  1198               	iorwf	(??___fldiv+2)& (0+255),w,b
  4182   0020B0  1199               	iorwf	(??___fldiv+3)& (0+255),w,b
  4183   0020B2  B4D8               	btfsc	status,2,c
  4184   0020B4  EF5E  F010         	goto	u7981
  4185   0020B8  EF60  F010         	goto	u7980
  4186   0020BC                     u7981:
  4187   0020BC  EF64  F010         	goto	l2318
  4188   0020C0                     u7980:
  4189   0020C0                     l9022:
  4190                           
  4191                           ; BSR set to: 0
  4192   0020C0  0E01               	movlw	1
  4193   0020C2  6FA6               	movwf	___fldiv@aexp& (0+255),b
  4194   0020C4  EF6D  F010         	goto	l2317
  4195   0020C8                     l2318:
  4196                           
  4197                           ; BSR set to: 0
  4198   0020C8  A18E               	btfss	___fldiv@b& (0+255),0,b
  4199   0020CA  EF69  F010         	goto	u7991
  4200   0020CE  EF6B  F010         	goto	u7990
  4201   0020D2                     u7991:
  4202   0020D2  EF6D  F010         	goto	l2317
  4203   0020D6                     u7990:
  4204   0020D6  EF60  F010         	goto	l9022
  4205   0020DA                     l2317:
  4206                           
  4207                           ; BSR set to: 0
  4208   0020DA  51A6               	movf	___fldiv@aexp& (0+255),w,b
  4209   0020DC  B4D8               	btfsc	status,2,c
  4210   0020DE  EF73  F010         	goto	u8001
  4211   0020E2  EF75  F010         	goto	u8000
  4212   0020E6                     u8001:
  4213   0020E6  EF99  F010         	goto	l9034
  4214   0020EA                     u8000:
  4215   0020EA                     
  4216                           ; BSR set to: 0
  4217   0020EA  0E01               	movlw	1
  4218   0020EC  278E               	addwf	___fldiv@b& (0+255),f,b
  4219   0020EE  0E00               	movlw	0
  4220   0020F0  238F               	addwfc	(___fldiv@b+1)& (0+255),f,b
  4221   0020F2  2390               	addwfc	(___fldiv@b+2)& (0+255),f,b
  4222   0020F4  2391               	addwfc	(___fldiv@b+3)& (0+255),f,b
  4223   0020F6                     
  4224                           ; BSR set to: 0
  4225   0020F6  A191               	btfss	(___fldiv@b+3)& (0+255),0,b
  4226   0020F8  EF80  F010         	goto	u8011
  4227   0020FC  EF82  F010         	goto	u8010
  4228   002100                     u8011:
  4229   002100  EF99  F010         	goto	l9034
  4230   002104                     u8010:
  4231   002104                     
  4232                           ; BSR set to: 0
  4233   002104  C08E  F096         	movff	___fldiv@b,??___fldiv
  4234   002108  C08F  F097         	movff	___fldiv@b+1,??___fldiv+1
  4235   00210C  C090  F098         	movff	___fldiv@b+2,??___fldiv+2
  4236   002110  C091  F099         	movff	___fldiv@b+3,??___fldiv+3
  4237   002114  3599               	rlcf	(??___fldiv+3)& (0+255),w,b
  4238   002116  3399               	rrcf	(??___fldiv+3)& (0+255),f,b
  4239   002118  3398               	rrcf	(??___fldiv+2)& (0+255),f,b
  4240   00211A  3397               	rrcf	(??___fldiv+1)& (0+255),f,b
  4241   00211C  3396               	rrcf	??___fldiv& (0+255),f,b
  4242   00211E  C096  F08E         	movff	??___fldiv,___fldiv@b
  4243   002122  C097  F08F         	movff	??___fldiv+1,___fldiv@b+1
  4244   002126  C098  F090         	movff	??___fldiv+2,___fldiv@b+2
  4245   00212A  C099  F091         	movff	??___fldiv+3,___fldiv@b+3
  4246   00212E                     
  4247                           ; BSR set to: 0
  4248   00212E  4B9F               	infsnz	___fldiv@new_exp& (0+255),f,b
  4249   002130  2BA0               	incf	(___fldiv@new_exp+1)& (0+255),f,b
  4250   002132                     l9034:
  4251                           
  4252                           ; BSR set to: 0
  4253   002132  BFA0               	btfsc	(___fldiv@new_exp+1)& (0+255),7,b
  4254   002134  EFA4  F010         	goto	u8021
  4255   002138  51A0               	movf	(___fldiv@new_exp+1)& (0+255),w,b
  4256   00213A  E108               	bnz	u8020
  4257   00213C  299F               	incf	___fldiv@new_exp& (0+255),w,b
  4258   00213E  A0D8               	btfss	status,0,c
  4259   002140  EFA4  F010         	goto	u8021
  4260   002144  EFA6  F010         	goto	u8020
  4261   002148                     u8021:
  4262   002148  EFB1  F010         	goto	l9038
  4263   00214C                     u8020:
  4264   00214C                     
  4265                           ; BSR set to: 0
  4266   00214C  0E00               	movlw	0
  4267   00214E  6FA0               	movwf	(___fldiv@new_exp+1)& (0+255),b
  4268   002150  699F               	setf	___fldiv@new_exp& (0+255),b
  4269   002152  0E00               	movlw	0
  4270   002154  6F8E               	movwf	___fldiv@b& (0+255),b
  4271   002156  0E00               	movlw	0
  4272   002158  6F8F               	movwf	(___fldiv@b+1)& (0+255),b
  4273   00215A  0E00               	movlw	0
  4274   00215C  6F90               	movwf	(___fldiv@b+2)& (0+255),b
  4275   00215E  0E00               	movlw	0
  4276   002160  6F91               	movwf	(___fldiv@b+3)& (0+255),b
  4277   002162                     l9038:
  4278                           
  4279                           ; BSR set to: 0
  4280   002162  BFA0               	btfsc	(___fldiv@new_exp+1)& (0+255),7,b
  4281   002164  EFBE  F010         	goto	u8030
  4282   002168  51A0               	movf	(___fldiv@new_exp+1)& (0+255),w,b
  4283   00216A  E106               	bnz	u8031
  4284   00216C  059F               	decf	___fldiv@new_exp& (0+255),w,b
  4285   00216E  B0D8               	btfsc	status,0,c
  4286   002170  EFBC  F010         	goto	u8031
  4287   002174  EFBE  F010         	goto	u8030
  4288   002178                     u8031:
  4289   002178  EFCC  F010         	goto	l9042
  4290   00217C                     u8030:
  4291   00217C                     
  4292                           ; BSR set to: 0
  4293   00217C  0E00               	movlw	0
  4294   00217E  6FA0               	movwf	(___fldiv@new_exp+1)& (0+255),b
  4295   002180  0E00               	movlw	0
  4296   002182  6F9F               	movwf	___fldiv@new_exp& (0+255),b
  4297   002184  0E00               	movlw	0
  4298   002186  6F8E               	movwf	___fldiv@b& (0+255),b
  4299   002188  0E00               	movlw	0
  4300   00218A  6F8F               	movwf	(___fldiv@b+1)& (0+255),b
  4301   00218C  0E00               	movlw	0
  4302   00218E  6F90               	movwf	(___fldiv@b+2)& (0+255),b
  4303   002190  0E00               	movlw	0
  4304   002192  6F91               	movwf	(___fldiv@b+3)& (0+255),b
  4305   002194  0E00               	movlw	0
  4306   002196  6F9E               	movwf	___fldiv@sign& (0+255),b
  4307   002198                     l9042:
  4308                           
  4309                           ; BSR set to: 0
  4310   002198  C09F  F0A5         	movff	___fldiv@new_exp,___fldiv@bexp
  4311   00219C                     
  4312                           ; BSR set to: 0
  4313   00219C  A1A5               	btfss	___fldiv@bexp& (0+255),0,b
  4314   00219E  EFD3  F010         	goto	u8041
  4315   0021A2  EFD5  F010         	goto	u8040
  4316   0021A6                     u8041:
  4317   0021A6  EFD8  F010         	goto	l9048
  4318   0021AA                     u8040:
  4319   0021AA                     
  4320                           ; BSR set to: 0
  4321   0021AA  8F90               	bsf	(___fldiv@b+2)& (0+255),7,b
  4322   0021AC  EFD9  F010         	goto	l9050
  4323   0021B0                     l9048:
  4324                           
  4325                           ; BSR set to: 0
  4326   0021B0  9F90               	bcf	(___fldiv@b+2)& (0+255),7,b
  4327   0021B2                     l9050:
  4328                           
  4329                           ; BSR set to: 0
  4330   0021B2  90D8               	bcf	status,0,c
  4331   0021B4  31A5               	rrcf	___fldiv@bexp& (0+255),w,b
  4332   0021B6  6F91               	movwf	(___fldiv@b+3)& (0+255),b
  4333   0021B8  EF8F  F00F         	goto	l8964
  4334   0021BC                     l2304:
  4335                           
  4336                           ; BSR set to: 0
  4337   0021BC  0012               	return		;funcret
  4338   0021BE                     __end_of___fldiv:
  4339                           	callstack 0
  4340                           
  4341 ;; *************** function ___fladd *****************
  4342 ;; Defined at:
  4343 ;;		line 10 in file "C:\Program Files\Microchip\xc8\v2.46\pic\sources\c99\common\sprcadd.c"
  4344 ;; Parameters:    Size  Location     Type
  4345 ;;  b               4   39[BANK0 ] unsigned char 
  4346 ;;  a               4   43[BANK0 ] unsigned char 
  4347 ;; Auto vars:     Size  Location     Type
  4348 ;;  grs             1   54[BANK0 ] unsigned char 
  4349 ;;  bexp            1   53[BANK0 ] unsigned char 
  4350 ;;  aexp            1   52[BANK0 ] unsigned char 
  4351 ;;  signs           1   51[BANK0 ] unsigned char 
  4352 ;; Return value:  Size  Location     Type
  4353 ;;                  4   39[BANK0 ] unsigned char 
  4354 ;; Registers used:
  4355 ;;		wreg, status,2, status,0
  4356 ;; Tracked objects:
  4357 ;;		On entry : 0/0
  4358 ;;		On exit  : 0/0
  4359 ;;		Unchanged: 0/0
  4360 ;; Data sizes:     COMRAM   BANK0   BANK1   BANK2   BANK3   BANK4   BANK5   BANK6   BANK7   BANK8   BANK9  BANK10  BANK1
      +1  BANK12  BANK13  BANK14  BANK15
  4361 ;;      Params:         0       8       0       0       0       0       0       0       0       0       0       0       
      +0       0       0       0       0
  4362 ;;      Locals:         0       4       0       0       0       0       0       0       0       0       0       0       
      +0       0       0       0       0
  4363 ;;      Temps:          0       4       0       0       0       0       0       0       0       0       0       0       
      +0       0       0       0       0
  4364 ;;      Totals:         0      16       0       0       0       0       0       0       0       0       0       0       
      +0       0       0       0       0
  4365 ;;Total ram usage:       16 bytes
  4366 ;; Hardware stack levels used: 1
  4367 ;; Hardware stack levels required when called: 7
  4368 ;; This function calls:
  4369 ;;		Nothing
  4370 ;; This function is called by:
  4371 ;;		_eusart_async_baudrate_calculation
  4372 ;;		_CCP_Init
  4373 ;;		_CCP_PWMSetDuty
  4374 ;;		_mssp_i2c_mode_master_clock_configurations
  4375 ;; This function uses a non-reentrant model
  4376 ;;
  4377                           
  4378                           	psect	text17
  4379   001536                     __ptext17:
  4380                           	callstack 0
  4381   001536                     ___fladd:
  4382                           	callstack 19
  4383   001536  0100               	movlb	0	; () banked
  4384   001538  51AA               	movf	(___fladd@b+3)& (0+255),w,b
  4385   00153A  0B80               	andlw	128
  4386   00153C  6FB3               	movwf	___fladd@signs& (0+255),b
  4387   00153E  51AA               	movf	(___fladd@b+3)& (0+255),w,b
  4388   001540  25AA               	addwf	(___fladd@b+3)& (0+255),w,b
  4389   001542  6FB5               	movwf	___fladd@bexp& (0+255),b
  4390   001544                     
  4391                           ; BSR set to: 0
  4392   001544  AFA9               	btfss	(___fladd@b+2)& (0+255),7,b
  4393   001546  EFA7  F00A         	goto	u7431
  4394   00154A  EFA9  F00A         	goto	u7430
  4395   00154E                     u7431:
  4396   00154E  EFAA  F00A         	goto	l8724
  4397   001552                     u7430:
  4398   001552                     
  4399                           ; BSR set to: 0
  4400   001552  81B5               	bsf	___fladd@bexp& (0+255),0,b
  4401   001554                     l8724:
  4402                           
  4403                           ; BSR set to: 0
  4404   001554  51B5               	movf	___fladd@bexp& (0+255),w,b
  4405   001556  B4D8               	btfsc	status,2,c
  4406   001558  EFB0  F00A         	goto	u7441
  4407   00155C  EFB2  F00A         	goto	u7440
  4408   001560                     u7441:
  4409   001560  EFC7  F00A         	goto	l8734
  4410   001564                     u7440:
  4411   001564                     
  4412                           ; BSR set to: 0
  4413   001564  29B5               	incf	___fladd@bexp& (0+255),w,b
  4414   001566  A4D8               	btfss	status,2,c
  4415   001568  EFB8  F00A         	goto	u7451
  4416   00156C  EFBA  F00A         	goto	u7450
  4417   001570                     u7451:
  4418   001570  EFC2  F00A         	goto	l8730
  4419   001574                     u7450:
  4420   001574                     
  4421                           ; BSR set to: 0
  4422   001574  0E00               	movlw	0
  4423   001576  6FA7               	movwf	___fladd@b& (0+255),b
  4424   001578  0E00               	movlw	0
  4425   00157A  6FA8               	movwf	(___fladd@b+1)& (0+255),b
  4426   00157C  0E00               	movlw	0
  4427   00157E  6FA9               	movwf	(___fladd@b+2)& (0+255),b
  4428   001580  0E00               	movlw	0
  4429   001582  6FAA               	movwf	(___fladd@b+3)& (0+255),b
  4430   001584                     l8730:
  4431                           
  4432                           ; BSR set to: 0
  4433   001584  8FA9               	bsf	(___fladd@b+2)& (0+255),7,b
  4434   001586                     
  4435                           ; BSR set to: 0
  4436   001586  0E00               	movlw	0
  4437   001588  6FAA               	movwf	(___fladd@b+3)& (0+255),b
  4438   00158A  EFCF  F00A         	goto	l8736
  4439   00158E                     l8734:
  4440                           
  4441                           ; BSR set to: 0
  4442   00158E  0E00               	movlw	0
  4443   001590  6FA7               	movwf	___fladd@b& (0+255),b
  4444   001592  0E00               	movlw	0
  4445   001594  6FA8               	movwf	(___fladd@b+1)& (0+255),b
  4446   001596  0E00               	movlw	0
  4447   001598  6FA9               	movwf	(___fladd@b+2)& (0+255),b
  4448   00159A  0E00               	movlw	0
  4449   00159C  6FAA               	movwf	(___fladd@b+3)& (0+255),b
  4450   00159E                     l8736:
  4451                           
  4452                           ; BSR set to: 0
  4453   00159E  51AE               	movf	(___fladd@a+3)& (0+255),w,b
  4454   0015A0  0B80               	andlw	128
  4455   0015A2  6FB4               	movwf	___fladd@aexp& (0+255),b
  4456   0015A4                     
  4457                           ; BSR set to: 0
  4458   0015A4  51B3               	movf	___fladd@signs& (0+255),w,b
  4459   0015A6  19B4               	xorwf	___fladd@aexp& (0+255),w,b
  4460   0015A8  B4D8               	btfsc	status,2,c
  4461   0015AA  EFD9  F00A         	goto	u7461
  4462   0015AE  EFDB  F00A         	goto	u7460
  4463   0015B2                     u7461:
  4464   0015B2  EFDC  F00A         	goto	l8742
  4465   0015B6                     u7460:
  4466   0015B6                     
  4467                           ; BSR set to: 0
  4468   0015B6  8DB3               	bsf	___fladd@signs& (0+255),6,b
  4469   0015B8                     l8742:
  4470                           
  4471                           ; BSR set to: 0
  4472   0015B8  51AE               	movf	(___fladd@a+3)& (0+255),w,b
  4473   0015BA  25AE               	addwf	(___fladd@a+3)& (0+255),w,b
  4474   0015BC  6FB4               	movwf	___fladd@aexp& (0+255),b
  4475   0015BE                     
  4476                           ; BSR set to: 0
  4477   0015BE  AFAD               	btfss	(___fladd@a+2)& (0+255),7,b
  4478   0015C0  EFE4  F00A         	goto	u7471
  4479   0015C4  EFE6  F00A         	goto	u7470
  4480   0015C8                     u7471:
  4481   0015C8  EFE7  F00A         	goto	l8748
  4482   0015CC                     u7470:
  4483   0015CC                     
  4484                           ; BSR set to: 0
  4485   0015CC  81B4               	bsf	___fladd@aexp& (0+255),0,b
  4486   0015CE                     l8748:
  4487                           
  4488                           ; BSR set to: 0
  4489   0015CE  51B4               	movf	___fladd@aexp& (0+255),w,b
  4490   0015D0  B4D8               	btfsc	status,2,c
  4491   0015D2  EFED  F00A         	goto	u7481
  4492   0015D6  EFEF  F00A         	goto	u7480
  4493   0015DA                     u7481:
  4494   0015DA  EF04  F00B         	goto	l8758
  4495   0015DE                     u7480:
  4496   0015DE                     
  4497                           ; BSR set to: 0
  4498   0015DE  29B4               	incf	___fladd@aexp& (0+255),w,b
  4499   0015E0  A4D8               	btfss	status,2,c
  4500   0015E2  EFF5  F00A         	goto	u7491
  4501   0015E6  EFF7  F00A         	goto	u7490
  4502   0015EA                     u7491:
  4503   0015EA  EFFF  F00A         	goto	l8754
  4504   0015EE                     u7490:
  4505   0015EE                     
  4506                           ; BSR set to: 0
  4507   0015EE  0E00               	movlw	0
  4508   0015F0  6FAB               	movwf	___fladd@a& (0+255),b
  4509   0015F2  0E00               	movlw	0
  4510   0015F4  6FAC               	movwf	(___fladd@a+1)& (0+255),b
  4511   0015F6  0E00               	movlw	0
  4512   0015F8  6FAD               	movwf	(___fladd@a+2)& (0+255),b
  4513   0015FA  0E00               	movlw	0
  4514   0015FC  6FAE               	movwf	(___fladd@a+3)& (0+255),b
  4515   0015FE                     l8754:
  4516                           
  4517                           ; BSR set to: 0
  4518   0015FE  8FAD               	bsf	(___fladd@a+2)& (0+255),7,b
  4519   001600                     
  4520                           ; BSR set to: 0
  4521   001600  0E00               	movlw	0
  4522   001602  6FAE               	movwf	(___fladd@a+3)& (0+255),b
  4523   001604  EF0C  F00B         	goto	l8760
  4524   001608                     l8758:
  4525                           
  4526                           ; BSR set to: 0
  4527   001608  0E00               	movlw	0
  4528   00160A  6FAB               	movwf	___fladd@a& (0+255),b
  4529   00160C  0E00               	movlw	0
  4530   00160E  6FAC               	movwf	(___fladd@a+1)& (0+255),b
  4531   001610  0E00               	movlw	0
  4532   001612  6FAD               	movwf	(___fladd@a+2)& (0+255),b
  4533   001614  0E00               	movlw	0
  4534   001616  6FAE               	movwf	(___fladd@a+3)& (0+255),b
  4535   001618                     l8760:
  4536                           
  4537                           ; BSR set to: 0
  4538   001618  51B5               	movf	___fladd@bexp& (0+255),w,b
  4539   00161A  5DB4               	subwf	___fladd@aexp& (0+255),w,b
  4540   00161C  B0D8               	btfsc	status,0,c
  4541   00161E  EF13  F00B         	goto	u7501
  4542   001622  EF15  F00B         	goto	u7500
  4543   001626                     u7501:
  4544   001626  EF3C  F00B         	goto	l8796
  4545   00162A                     u7500:
  4546   00162A                     
  4547                           ; BSR set to: 0
  4548   00162A  ADB3               	btfss	___fladd@signs& (0+255),6,b
  4549   00162C  EF1A  F00B         	goto	u7511
  4550   001630  EF1C  F00B         	goto	u7510
  4551   001634                     u7511:
  4552   001634  EF1E  F00B         	goto	l8766
  4553   001638                     u7510:
  4554   001638                     
  4555                           ; BSR set to: 0
  4556   001638  0E80               	movlw	128
  4557   00163A  1BB3               	xorwf	___fladd@signs& (0+255),f,b
  4558   00163C                     l8766:
  4559                           
  4560                           ; BSR set to: 0
  4561   00163C  C0B5  F0B6         	movff	___fladd@bexp,___fladd@grs
  4562   001640                     
  4563                           ; BSR set to: 0
  4564   001640  C0B4  F0B5         	movff	___fladd@aexp,___fladd@bexp
  4565   001644                     
  4566                           ; BSR set to: 0
  4567   001644  C0B6  F0B4         	movff	___fladd@grs,___fladd@aexp
  4568   001648                     
  4569                           ; BSR set to: 0
  4570   001648  C0A7  F0B6         	movff	___fladd@b,___fladd@grs
  4571   00164C                     
  4572                           ; BSR set to: 0
  4573   00164C  C0AB  F0A7         	movff	___fladd@a,___fladd@b
  4574   001650                     
  4575                           ; BSR set to: 0
  4576   001650  C0B6  F0AB         	movff	___fladd@grs,___fladd@a
  4577   001654                     
  4578                           ; BSR set to: 0
  4579   001654  C0A8  F0B6         	movff	___fladd@b+1,___fladd@grs
  4580   001658                     
  4581                           ; BSR set to: 0
  4582   001658  C0AC  F0A8         	movff	___fladd@a+1,___fladd@b+1
  4583   00165C                     
  4584                           ; BSR set to: 0
  4585   00165C  C0B6  F0AC         	movff	___fladd@grs,___fladd@a+1
  4586   001660                     
  4587                           ; BSR set to: 0
  4588   001660  C0A9  F0B6         	movff	___fladd@b+2,___fladd@grs
  4589   001664                     
  4590                           ; BSR set to: 0
  4591   001664  C0AD  F0A9         	movff	___fladd@a+2,___fladd@b+2
  4592   001668                     
  4593                           ; BSR set to: 0
  4594   001668  C0B6  F0AD         	movff	___fladd@grs,___fladd@a+2
  4595   00166C                     
  4596                           ; BSR set to: 0
  4597   00166C  C0AA  F0B6         	movff	___fladd@b+3,___fladd@grs
  4598   001670                     
  4599                           ; BSR set to: 0
  4600   001670  C0AE  F0AA         	movff	___fladd@a+3,___fladd@b+3
  4601   001674                     
  4602                           ; BSR set to: 0
  4603   001674  C0B6  F0AE         	movff	___fladd@grs,___fladd@a+3
  4604   001678                     l8796:
  4605                           
  4606                           ; BSR set to: 0
  4607   001678  0E00               	movlw	0
  4608   00167A  6FB6               	movwf	___fladd@grs& (0+255),b
  4609   00167C                     
  4610                           ; BSR set to: 0
  4611   00167C  51B5               	movf	___fladd@bexp& (0+255),w,b
  4612   00167E  C0B4  F0AF         	movff	___fladd@aexp,??___fladd
  4613   001682  6BB0               	clrf	(??___fladd+1)& (0+255),b
  4614   001684  5FAF               	subwf	??___fladd& (0+255),f,b
  4615   001686  0E00               	movlw	0
  4616   001688  5BB0               	subwfb	(??___fladd+1)& (0+255),f,b
  4617   00168A  BFB0               	btfsc	(??___fladd+1)& (0+255),7,b
  4618   00168C  EF51  F00B         	goto	u7521
  4619   001690  51B0               	movf	(??___fladd+1)& (0+255),w,b
  4620   001692  E109               	bnz	u7520
  4621   001694  0E1A               	movlw	26
  4622   001696  5DAF               	subwf	??___fladd& (0+255),w,b
  4623   001698  A0D8               	btfss	status,0,c
  4624   00169A  EF51  F00B         	goto	u7521
  4625   00169E  EF53  F00B         	goto	u7520
  4626   0016A2                     u7521:
  4627   0016A2  EF8A  F00B         	goto	l2251
  4628   0016A6                     u7520:
  4629   0016A6                     
  4630                           ; BSR set to: 0
  4631   0016A6  51A7               	movf	___fladd@b& (0+255),w,b
  4632   0016A8  11A8               	iorwf	(___fladd@b+1)& (0+255),w,b
  4633   0016AA  11A9               	iorwf	(___fladd@b+2)& (0+255),w,b
  4634   0016AC  11AA               	iorwf	(___fladd@b+3)& (0+255),w,b
  4635   0016AE  A4D8               	btfss	status,2,c
  4636   0016B0  EF5C  F00B         	goto	u7531
  4637   0016B4  EF5F  F00B         	goto	u7530
  4638   0016B8                     u7531:
  4639   0016B8  0E01               	movlw	1
  4640   0016BA  EF60  F00B         	goto	u7540
  4641   0016BE                     u7530:
  4642   0016BE  0E00               	movlw	0
  4643   0016C0                     u7540:
  4644   0016C0  6FB6               	movwf	___fladd@grs& (0+255),b
  4645   0016C2                     
  4646                           ; BSR set to: 0
  4647   0016C2  0E00               	movlw	0
  4648   0016C4  6FA7               	movwf	___fladd@b& (0+255),b
  4649   0016C6  0E00               	movlw	0
  4650   0016C8  6FA8               	movwf	(___fladd@b+1)& (0+255),b
  4651   0016CA  0E00               	movlw	0
  4652   0016CC  6FA9               	movwf	(___fladd@b+2)& (0+255),b
  4653   0016CE  0E00               	movlw	0
  4654   0016D0  6FAA               	movwf	(___fladd@b+3)& (0+255),b
  4655   0016D2                     
  4656                           ; BSR set to: 0
  4657   0016D2  C0B4  F0B5         	movff	___fladd@aexp,___fladd@bexp
  4658   0016D6  EF93  F00B         	goto	l2250
  4659   0016DA                     l2252:
  4660                           
  4661                           ; BSR set to: 0
  4662   0016DA  A1B6               	btfss	___fladd@grs& (0+255),0,b
  4663   0016DC  EF72  F00B         	goto	u7551
  4664   0016E0  EF74  F00B         	goto	u7550
  4665   0016E4                     u7551:
  4666   0016E4  EF7A  F00B         	goto	l8808
  4667   0016E8                     u7550:
  4668   0016E8                     
  4669                           ; BSR set to: 0
  4670   0016E8  90D8               	bcf	status,0,c
  4671   0016EA  31B6               	rrcf	___fladd@grs& (0+255),w,b
  4672   0016EC  0901               	iorlw	1
  4673   0016EE  6FB6               	movwf	___fladd@grs& (0+255),b
  4674   0016F0  EF7C  F00B         	goto	l8810
  4675   0016F4                     l8808:
  4676                           
  4677                           ; BSR set to: 0
  4678   0016F4  90D8               	bcf	status,0,c
  4679   0016F6  33B6               	rrcf	___fladd@grs& (0+255),f,b
  4680   0016F8                     l8810:
  4681                           
  4682                           ; BSR set to: 0
  4683   0016F8  A1A7               	btfss	___fladd@b& (0+255),0,b
  4684   0016FA  EF81  F00B         	goto	u7561
  4685   0016FE  EF83  F00B         	goto	u7560
  4686   001702                     u7561:
  4687   001702  EF84  F00B         	goto	l8814
  4688   001706                     u7560:
  4689   001706                     
  4690                           ; BSR set to: 0
  4691   001706  8FB6               	bsf	___fladd@grs& (0+255),7,b
  4692   001708                     l8814:
  4693                           
  4694                           ; BSR set to: 0
  4695   001708  35AA               	rlcf	(___fladd@b+3)& (0+255),w,b
  4696   00170A  33AA               	rrcf	(___fladd@b+3)& (0+255),f,b
  4697   00170C  33A9               	rrcf	(___fladd@b+2)& (0+255),f,b
  4698   00170E  33A8               	rrcf	(___fladd@b+1)& (0+255),f,b
  4699   001710  33A7               	rrcf	___fladd@b& (0+255),f,b
  4700   001712                     
  4701                           ; BSR set to: 0
  4702   001712  2BB5               	incf	___fladd@bexp& (0+255),f,b
  4703   001714                     l2251:
  4704                           
  4705                           ; BSR set to: 0
  4706   001714  51B4               	movf	___fladd@aexp& (0+255),w,b
  4707   001716  5DB5               	subwf	___fladd@bexp& (0+255),w,b
  4708   001718  A0D8               	btfss	status,0,c
  4709   00171A  EF91  F00B         	goto	u7571
  4710   00171E  EF93  F00B         	goto	u7570
  4711   001722                     u7571:
  4712   001722  EF6D  F00B         	goto	l2252
  4713   001726                     u7570:
  4714   001726                     l2250:
  4715                           
  4716                           ; BSR set to: 0
  4717   001726  BDB3               	btfsc	___fladd@signs& (0+255),6,b
  4718   001728  EF98  F00B         	goto	u7581
  4719   00172C  EF9A  F00B         	goto	u7580
  4720   001730                     u7581:
  4721   001730  EFDA  F00B         	goto	l8842
  4722   001734                     u7580:
  4723   001734                     
  4724                           ; BSR set to: 0
  4725   001734  51B5               	movf	___fladd@bexp& (0+255),w,b
  4726   001736  A4D8               	btfss	status,2,c
  4727   001738  EFA0  F00B         	goto	u7591
  4728   00173C  EFA2  F00B         	goto	u7590
  4729   001740                     u7591:
  4730   001740  EFAC  F00B         	goto	l8824
  4731   001744                     u7590:
  4732   001744                     
  4733                           ; BSR set to: 0
  4734   001744  0E00               	movlw	0
  4735   001746  6FA7               	movwf	?___fladd& (0+255),b
  4736   001748  0E00               	movlw	0
  4737   00174A  6FA8               	movwf	(?___fladd+1)& (0+255),b
  4738   00174C  0E00               	movlw	0
  4739   00174E  6FA9               	movwf	(?___fladd+2)& (0+255),b
  4740   001750  0E00               	movlw	0
  4741   001752  6FAA               	movwf	(?___fladd+3)& (0+255),b
  4742   001754  EFFB  F00C         	goto	l2259
  4743   001758                     l8824:
  4744                           
  4745                           ; BSR set to: 0
  4746   001758  51AB               	movf	___fladd@a& (0+255),w,b
  4747   00175A  27A7               	addwf	___fladd@b& (0+255),f,b
  4748   00175C  51AC               	movf	(___fladd@a+1)& (0+255),w,b
  4749   00175E  23A8               	addwfc	(___fladd@b+1)& (0+255),f,b
  4750   001760  51AD               	movf	(___fladd@a+2)& (0+255),w,b
  4751   001762  23A9               	addwfc	(___fladd@b+2)& (0+255),f,b
  4752   001764  51AE               	movf	(___fladd@a+3)& (0+255),w,b
  4753   001766  23AA               	addwfc	(___fladd@b+3)& (0+255),f,b
  4754   001768                     
  4755                           ; BSR set to: 0
  4756   001768  A1AA               	btfss	(___fladd@b+3)& (0+255),0,b
  4757   00176A  EFB9  F00B         	goto	u7601
  4758   00176E  EFBB  F00B         	goto	u7600
  4759   001772                     u7601:
  4760   001772  EF67  F00C         	goto	l8878
  4761   001776                     u7600:
  4762   001776                     
  4763                           ; BSR set to: 0
  4764   001776  A1B6               	btfss	___fladd@grs& (0+255),0,b
  4765   001778  EFC0  F00B         	goto	u7611
  4766   00177C  EFC2  F00B         	goto	u7610
  4767   001780                     u7611:
  4768   001780  EFC8  F00B         	goto	l8832
  4769   001784                     u7610:
  4770   001784                     
  4771                           ; BSR set to: 0
  4772   001784  90D8               	bcf	status,0,c
  4773   001786  31B6               	rrcf	___fladd@grs& (0+255),w,b
  4774   001788  0901               	iorlw	1
  4775   00178A  6FB6               	movwf	___fladd@grs& (0+255),b
  4776   00178C  EFCA  F00B         	goto	l8834
  4777   001790                     l8832:
  4778                           
  4779                           ; BSR set to: 0
  4780   001790  90D8               	bcf	status,0,c
  4781   001792  33B6               	rrcf	___fladd@grs& (0+255),f,b
  4782   001794                     l8834:
  4783                           
  4784                           ; BSR set to: 0
  4785   001794  A1A7               	btfss	___fladd@b& (0+255),0,b
  4786   001796  EFCF  F00B         	goto	u7621
  4787   00179A  EFD1  F00B         	goto	u7620
  4788   00179E                     u7621:
  4789   00179E  EFD2  F00B         	goto	l8838
  4790   0017A2                     u7620:
  4791   0017A2                     
  4792                           ; BSR set to: 0
  4793   0017A2  8FB6               	bsf	___fladd@grs& (0+255),7,b
  4794   0017A4                     l8838:
  4795                           
  4796                           ; BSR set to: 0
  4797   0017A4  35AA               	rlcf	(___fladd@b+3)& (0+255),w,b
  4798   0017A6  33AA               	rrcf	(___fladd@b+3)& (0+255),f,b
  4799   0017A8  33A9               	rrcf	(___fladd@b+2)& (0+255),f,b
  4800   0017AA  33A8               	rrcf	(___fladd@b+1)& (0+255),f,b
  4801   0017AC  33A7               	rrcf	___fladd@b& (0+255),f,b
  4802   0017AE                     
  4803                           ; BSR set to: 0
  4804   0017AE  2BB5               	incf	___fladd@bexp& (0+255),f,b
  4805   0017B0  EF67  F00C         	goto	l8878
  4806   0017B4                     l8842:
  4807                           
  4808                           ; BSR set to: 0
  4809   0017B4  51AB               	movf	___fladd@a& (0+255),w,b
  4810   0017B6  5DA7               	subwf	___fladd@b& (0+255),w,b
  4811   0017B8  51AC               	movf	(___fladd@a+1)& (0+255),w,b
  4812   0017BA  59A8               	subwfb	(___fladd@b+1)& (0+255),w,b
  4813   0017BC  51AD               	movf	(___fladd@a+2)& (0+255),w,b
  4814   0017BE  59A9               	subwfb	(___fladd@b+2)& (0+255),w,b
  4815   0017C0  51AA               	movf	(___fladd@b+3)& (0+255),w,b
  4816   0017C2  0A80               	xorlw	128
  4817   0017C4  6FAF               	movwf	??___fladd& (0+255),b
  4818   0017C6  51AE               	movf	(___fladd@a+3)& (0+255),w,b
  4819   0017C8  0A80               	xorlw	128
  4820   0017CA  59AF               	subwfb	??___fladd& (0+255),w,b
  4821   0017CC  B0D8               	btfsc	status,0,c
  4822   0017CE  EFEB  F00B         	goto	u7631
  4823   0017D2  EFED  F00B         	goto	u7630
  4824   0017D6                     u7631:
  4825   0017D6  EF18  F00C         	goto	l8852
  4826   0017DA                     u7630:
  4827   0017DA                     
  4828                           ; BSR set to: 0
  4829   0017DA  51A7               	movf	___fladd@b& (0+255),w,b
  4830   0017DC  5DAB               	subwf	___fladd@a& (0+255),w,b
  4831   0017DE  6FAF               	movwf	??___fladd& (0+255),b
  4832   0017E0  51A8               	movf	(___fladd@b+1)& (0+255),w,b
  4833   0017E2  59AC               	subwfb	(___fladd@a+1)& (0+255),w,b
  4834   0017E4  6FB0               	movwf	(??___fladd+1)& (0+255),b
  4835   0017E6  51A9               	movf	(___fladd@b+2)& (0+255),w,b
  4836   0017E8  59AD               	subwfb	(___fladd@a+2)& (0+255),w,b
  4837   0017EA  6FB1               	movwf	(??___fladd+2)& (0+255),b
  4838   0017EC  51AA               	movf	(___fladd@b+3)& (0+255),w,b
  4839   0017EE  59AE               	subwfb	(___fladd@a+3)& (0+255),w,b
  4840   0017F0  6FB2               	movwf	(??___fladd+3)& (0+255),b
  4841   0017F2  0EFF               	movlw	255
  4842   0017F4  25AF               	addwf	??___fladd& (0+255),w,b
  4843   0017F6  6FA7               	movwf	___fladd@b& (0+255),b
  4844   0017F8  0EFF               	movlw	255
  4845   0017FA  21B0               	addwfc	(??___fladd+1)& (0+255),w,b
  4846   0017FC  6FA8               	movwf	(___fladd@b+1)& (0+255),b
  4847   0017FE  0EFF               	movlw	255
  4848   001800  21B1               	addwfc	(??___fladd+2)& (0+255),w,b
  4849   001802  6FA9               	movwf	(___fladd@b+2)& (0+255),b
  4850   001804  0EFF               	movlw	255
  4851   001806  21B2               	addwfc	(??___fladd+3)& (0+255),w,b
  4852   001808  6FAA               	movwf	(___fladd@b+3)& (0+255),b
  4853   00180A  0E80               	movlw	128
  4854   00180C  1BB3               	xorwf	___fladd@signs& (0+255),f,b
  4855   00180E                     
  4856                           ; BSR set to: 0
  4857   00180E  6DB6               	negf	___fladd@grs& (0+255),b
  4858   001810                     
  4859                           ; BSR set to: 0
  4860   001810  51B6               	movf	___fladd@grs& (0+255),w,b
  4861   001812  A4D8               	btfss	status,2,c
  4862   001814  EF0E  F00C         	goto	u7641
  4863   001818  EF10  F00C         	goto	u7640
  4864   00181C                     u7641:
  4865   00181C  EF20  F00C         	goto	l2267
  4866   001820                     u7640:
  4867   001820                     
  4868                           ; BSR set to: 0
  4869   001820  0E01               	movlw	1
  4870   001822  27A7               	addwf	___fladd@b& (0+255),f,b
  4871   001824  0E00               	movlw	0
  4872   001826  23A8               	addwfc	(___fladd@b+1)& (0+255),f,b
  4873   001828  23A9               	addwfc	(___fladd@b+2)& (0+255),f,b
  4874   00182A  23AA               	addwfc	(___fladd@b+3)& (0+255),f,b
  4875   00182C  EF20  F00C         	goto	l2267
  4876   001830                     l8852:
  4877                           
  4878                           ; BSR set to: 0
  4879   001830  51AB               	movf	___fladd@a& (0+255),w,b
  4880   001832  5FA7               	subwf	___fladd@b& (0+255),f,b
  4881   001834  51AC               	movf	(___fladd@a+1)& (0+255),w,b
  4882   001836  5BA8               	subwfb	(___fladd@b+1)& (0+255),f,b
  4883   001838  51AD               	movf	(___fladd@a+2)& (0+255),w,b
  4884   00183A  5BA9               	subwfb	(___fladd@b+2)& (0+255),f,b
  4885   00183C  51AE               	movf	(___fladd@a+3)& (0+255),w,b
  4886   00183E  5BAA               	subwfb	(___fladd@b+3)& (0+255),f,b
  4887   001840                     l2267:
  4888                           
  4889                           ; BSR set to: 0
  4890   001840  51A7               	movf	___fladd@b& (0+255),w,b
  4891   001842  11A8               	iorwf	(___fladd@b+1)& (0+255),w,b
  4892   001844  11A9               	iorwf	(___fladd@b+2)& (0+255),w,b
  4893   001846  11AA               	iorwf	(___fladd@b+3)& (0+255),w,b
  4894   001848  A4D8               	btfss	status,2,c
  4895   00184A  EF29  F00C         	goto	u7651
  4896   00184E  EF2B  F00C         	goto	u7650
  4897   001852                     u7651:
  4898   001852  EF60  F00C         	goto	l8876
  4899   001856                     u7650:
  4900   001856                     
  4901                           ; BSR set to: 0
  4902   001856  51B6               	movf	___fladd@grs& (0+255),w,b
  4903   001858  A4D8               	btfss	status,2,c
  4904   00185A  EF31  F00C         	goto	u7661
  4905   00185E  EF33  F00C         	goto	u7660
  4906   001862                     u7661:
  4907   001862  EF60  F00C         	goto	l8876
  4908   001866                     u7660:
  4909   001866                     
  4910                           ; BSR set to: 0
  4911   001866  0E00               	movlw	0
  4912   001868  6FA7               	movwf	?___fladd& (0+255),b
  4913   00186A  0E00               	movlw	0
  4914   00186C  6FA8               	movwf	(?___fladd+1)& (0+255),b
  4915   00186E  0E00               	movlw	0
  4916   001870  6FA9               	movwf	(?___fladd+2)& (0+255),b
  4917   001872  0E00               	movlw	0
  4918   001874  6FAA               	movwf	(?___fladd+3)& (0+255),b
  4919   001876  EFFB  F00C         	goto	l2259
  4920   00187A                     l8860:
  4921                           
  4922                           ; BSR set to: 0
  4923   00187A  90D8               	bcf	status,0,c
  4924   00187C  37A7               	rlcf	___fladd@b& (0+255),f,b
  4925   00187E  37A8               	rlcf	(___fladd@b+1)& (0+255),f,b
  4926   001880  37A9               	rlcf	(___fladd@b+2)& (0+255),f,b
  4927   001882  37AA               	rlcf	(___fladd@b+3)& (0+255),f,b
  4928   001884                     
  4929                           ; BSR set to: 0
  4930   001884  AFB6               	btfss	___fladd@grs& (0+255),7,b
  4931   001886  EF47  F00C         	goto	u7671
  4932   00188A  EF49  F00C         	goto	u7670
  4933   00188E                     u7671:
  4934   00188E  EF4A  F00C         	goto	l8866
  4935   001892                     u7670:
  4936   001892                     
  4937                           ; BSR set to: 0
  4938   001892  81A7               	bsf	___fladd@b& (0+255),0,b
  4939   001894                     l8866:
  4940                           
  4941                           ; BSR set to: 0
  4942   001894  A1B6               	btfss	___fladd@grs& (0+255),0,b
  4943   001896  EF4F  F00C         	goto	u7681
  4944   00189A  EF51  F00C         	goto	u7680
  4945   00189E                     u7681:
  4946   00189E  EF55  F00C         	goto	l8870
  4947   0018A2                     u7680:
  4948   0018A2                     
  4949                           ; BSR set to: 0
  4950   0018A2  80D8               	bsf	status,0,c
  4951   0018A4  37B6               	rlcf	___fladd@grs& (0+255),f,b
  4952   0018A6  EF57  F00C         	goto	l8872
  4953   0018AA                     l8870:
  4954                           
  4955                           ; BSR set to: 0
  4956   0018AA  90D8               	bcf	status,0,c
  4957   0018AC  37B6               	rlcf	___fladd@grs& (0+255),f,b
  4958   0018AE                     l8872:
  4959                           
  4960                           ; BSR set to: 0
  4961   0018AE  51B5               	movf	___fladd@bexp& (0+255),w,b
  4962   0018B0  B4D8               	btfsc	status,2,c
  4963   0018B2  EF5D  F00C         	goto	u7691
  4964   0018B6  EF5F  F00C         	goto	u7690
  4965   0018BA                     u7691:
  4966   0018BA  EF60  F00C         	goto	l8876
  4967   0018BE                     u7690:
  4968   0018BE                     
  4969                           ; BSR set to: 0
  4970   0018BE  07B5               	decf	___fladd@bexp& (0+255),f,b
  4971   0018C0                     l8876:
  4972                           
  4973                           ; BSR set to: 0
  4974   0018C0  AFA9               	btfss	(___fladd@b+2)& (0+255),7,b
  4975   0018C2  EF65  F00C         	goto	u7701
  4976   0018C6  EF67  F00C         	goto	u7700
  4977   0018CA                     u7701:
  4978   0018CA  EF3D  F00C         	goto	l8860
  4979   0018CE                     u7700:
  4980   0018CE                     l8878:
  4981                           
  4982                           ; BSR set to: 0
  4983   0018CE  0E00               	movlw	0
  4984   0018D0  6FB4               	movwf	___fladd@aexp& (0+255),b
  4985   0018D2                     
  4986                           ; BSR set to: 0
  4987   0018D2  AFB6               	btfss	___fladd@grs& (0+255),7,b
  4988   0018D4  EF6E  F00C         	goto	u7711
  4989   0018D8  EF70  F00C         	goto	u7710
  4990   0018DC                     u7711:
  4991   0018DC  EF88  F00C         	goto	l2276
  4992   0018E0                     u7710:
  4993   0018E0                     
  4994                           ; BSR set to: 0
  4995   0018E0  C0B6  F0AF         	movff	___fladd@grs,??___fladd
  4996   0018E4  0E7F               	movlw	127
  4997   0018E6  17AF               	andwf	??___fladd& (0+255),f,b
  4998   0018E8  B4D8               	btfsc	status,2,c
  4999   0018EA  EF79  F00C         	goto	u7721
  5000   0018EE  EF7B  F00C         	goto	u7720
  5001   0018F2                     u7721:
  5002   0018F2  EF7F  F00C         	goto	l2277
  5003   0018F6                     u7720:
  5004   0018F6                     l8884:
  5005                           
  5006                           ; BSR set to: 0
  5007   0018F6  0E01               	movlw	1
  5008   0018F8  6FB4               	movwf	___fladd@aexp& (0+255),b
  5009   0018FA  EF88  F00C         	goto	l2276
  5010   0018FE                     l2277:
  5011                           
  5012                           ; BSR set to: 0
  5013   0018FE  A1A7               	btfss	___fladd@b& (0+255),0,b
  5014   001900  EF84  F00C         	goto	u7731
  5015   001904  EF86  F00C         	goto	u7730
  5016   001908                     u7731:
  5017   001908  EF88  F00C         	goto	l2276
  5018   00190C                     u7730:
  5019   00190C  EF7B  F00C         	goto	l8884
  5020   001910                     l2276:
  5021                           
  5022                           ; BSR set to: 0
  5023   001910  51B4               	movf	___fladd@aexp& (0+255),w,b
  5024   001912  B4D8               	btfsc	status,2,c
  5025   001914  EF8E  F00C         	goto	u7741
  5026   001918  EF90  F00C         	goto	u7740
  5027   00191C                     u7741:
  5028   00191C  EFBB  F00C         	goto	l8896
  5029   001920                     u7740:
  5030   001920                     
  5031                           ; BSR set to: 0
  5032   001920  0E01               	movlw	1
  5033   001922  27A7               	addwf	___fladd@b& (0+255),f,b
  5034   001924  0E00               	movlw	0
  5035   001926  23A8               	addwfc	(___fladd@b+1)& (0+255),f,b
  5036   001928  23A9               	addwfc	(___fladd@b+2)& (0+255),f,b
  5037   00192A  23AA               	addwfc	(___fladd@b+3)& (0+255),f,b
  5038   00192C                     
  5039                           ; BSR set to: 0
  5040   00192C  A1AA               	btfss	(___fladd@b+3)& (0+255),0,b
  5041   00192E  EF9B  F00C         	goto	u7751
  5042   001932  EF9D  F00C         	goto	u7750
  5043   001936                     u7751:
  5044   001936  EFBB  F00C         	goto	l8896
  5045   00193A                     u7750:
  5046   00193A                     
  5047                           ; BSR set to: 0
  5048   00193A  C0A7  F0AF         	movff	___fladd@b,??___fladd
  5049   00193E  C0A8  F0B0         	movff	___fladd@b+1,??___fladd+1
  5050   001942  C0A9  F0B1         	movff	___fladd@b+2,??___fladd+2
  5051   001946  C0AA  F0B2         	movff	___fladd@b+3,??___fladd+3
  5052   00194A  35B2               	rlcf	(??___fladd+3)& (0+255),w,b
  5053   00194C  33B2               	rrcf	(??___fladd+3)& (0+255),f,b
  5054   00194E  33B1               	rrcf	(??___fladd+2)& (0+255),f,b
  5055   001950  33B0               	rrcf	(??___fladd+1)& (0+255),f,b
  5056   001952  33AF               	rrcf	??___fladd& (0+255),f,b
  5057   001954  C0AF  F0A7         	movff	??___fladd,___fladd@b
  5058   001958  C0B0  F0A8         	movff	??___fladd+1,___fladd@b+1
  5059   00195C  C0B1  F0A9         	movff	??___fladd+2,___fladd@b+2
  5060   001960  C0B2  F0AA         	movff	??___fladd+3,___fladd@b+3
  5061   001964  29B5               	incf	___fladd@bexp& (0+255),w,b
  5062   001966  B4D8               	btfsc	status,2,c
  5063   001968  EFB8  F00C         	goto	u7761
  5064   00196C  EFBA  F00C         	goto	u7760
  5065   001970                     u7761:
  5066   001970  EFBB  F00C         	goto	l8896
  5067   001974                     u7760:
  5068   001974                     
  5069                           ; BSR set to: 0
  5070   001974  2BB5               	incf	___fladd@bexp& (0+255),f,b
  5071   001976                     l8896:
  5072                           
  5073                           ; BSR set to: 0
  5074   001976  29B5               	incf	___fladd@bexp& (0+255),w,b
  5075   001978  B4D8               	btfsc	status,2,c
  5076   00197A  EFC1  F00C         	goto	u7771
  5077   00197E  EFC3  F00C         	goto	u7770
  5078   001982                     u7771:
  5079   001982  EFCB  F00C         	goto	l8900
  5080   001986                     u7770:
  5081   001986                     
  5082                           ; BSR set to: 0
  5083   001986  51B5               	movf	___fladd@bexp& (0+255),w,b
  5084   001988  A4D8               	btfss	status,2,c
  5085   00198A  EFC9  F00C         	goto	u7781
  5086   00198E  EFCB  F00C         	goto	u7780
  5087   001992                     u7781:
  5088   001992  EFDD  F00C         	goto	l8904
  5089   001996                     u7780:
  5090   001996                     l8900:
  5091                           
  5092                           ; BSR set to: 0
  5093   001996  0E00               	movlw	0
  5094   001998  6FA7               	movwf	___fladd@b& (0+255),b
  5095   00199A  0E00               	movlw	0
  5096   00199C  6FA8               	movwf	(___fladd@b+1)& (0+255),b
  5097   00199E  0E00               	movlw	0
  5098   0019A0  6FA9               	movwf	(___fladd@b+2)& (0+255),b
  5099   0019A2  0E00               	movlw	0
  5100   0019A4  6FAA               	movwf	(___fladd@b+3)& (0+255),b
  5101   0019A6  51B5               	movf	___fladd@bexp& (0+255),w,b
  5102   0019A8  A4D8               	btfss	status,2,c
  5103   0019AA  EFD9  F00C         	goto	u7791
  5104   0019AE  EFDB  F00C         	goto	u7790
  5105   0019B2                     u7791:
  5106   0019B2  EFDD  F00C         	goto	l8904
  5107   0019B6                     u7790:
  5108   0019B6                     
  5109                           ; BSR set to: 0
  5110   0019B6  0E00               	movlw	0
  5111   0019B8  6FB3               	movwf	___fladd@signs& (0+255),b
  5112   0019BA                     l8904:
  5113                           
  5114                           ; BSR set to: 0
  5115   0019BA  A1B5               	btfss	___fladd@bexp& (0+255),0,b
  5116   0019BC  EFE2  F00C         	goto	u7801
  5117   0019C0  EFE4  F00C         	goto	u7800
  5118   0019C4                     u7801:
  5119   0019C4  EFE7  F00C         	goto	l8908
  5120   0019C8                     u7800:
  5121   0019C8                     
  5122                           ; BSR set to: 0
  5123   0019C8  8FA9               	bsf	(___fladd@b+2)& (0+255),7,b
  5124   0019CA  EFE8  F00C         	goto	l8910
  5125   0019CE                     l8908:
  5126                           
  5127                           ; BSR set to: 0
  5128   0019CE  9FA9               	bcf	(___fladd@b+2)& (0+255),7,b
  5129   0019D0                     l8910:
  5130                           
  5131                           ; BSR set to: 0
  5132   0019D0  90D8               	bcf	status,0,c
  5133   0019D2  31B5               	rrcf	___fladd@bexp& (0+255),w,b
  5134   0019D4  6FAA               	movwf	(___fladd@b+3)& (0+255),b
  5135   0019D6                     
  5136                           ; BSR set to: 0
  5137   0019D6  AFB3               	btfss	___fladd@signs& (0+255),7,b
  5138   0019D8  EFF0  F00C         	goto	u7811
  5139   0019DC  EFF2  F00C         	goto	u7810
  5140   0019E0                     u7811:
  5141   0019E0  EFF3  F00C         	goto	l8916
  5142   0019E4                     u7810:
  5143   0019E4                     
  5144                           ; BSR set to: 0
  5145   0019E4  8FAA               	bsf	(___fladd@b+3)& (0+255),7,b
  5146   0019E6                     l8916:
  5147                           
  5148                           ; BSR set to: 0
  5149   0019E6  C0A7  F0A7         	movff	___fladd@b,?___fladd
  5150   0019EA  C0A8  F0A8         	movff	___fladd@b+1,?___fladd+1
  5151   0019EE  C0A9  F0A9         	movff	___fladd@b+2,?___fladd+2
  5152   0019F2  C0AA  F0AA         	movff	___fladd@b+3,?___fladd+3
  5153   0019F6                     l2259:
  5154                           
  5155                           ; BSR set to: 0
  5156   0019F6  0012               	return		;funcret
  5157   0019F8                     __end_of___fladd:
  5158                           	callstack 0
  5159                           
  5160 ;; *************** function _ecu_layer_initialize *****************
  5161 ;; Defined at:
  5162 ;;		line 9 in file "ECU_layer/ecu_layer_init.c"
  5163 ;; Parameters:    Size  Location     Type
  5164 ;;		None
  5165 ;; Auto vars:     Size  Location     Type
  5166 ;;		None
  5167 ;; Return value:  Size  Location     Type
  5168 ;;                  1    wreg      void 
  5169 ;; Registers used:
  5170 ;;		wreg, fsr2l, fsr2h, status,2, status,0, prodl, prodh, cstack
  5171 ;; Tracked objects:
  5172 ;;		On entry : 0/0
  5173 ;;		On exit  : 0/0
  5174 ;;		Unchanged: 0/0
  5175 ;; Data sizes:     COMRAM   BANK0   BANK1   BANK2   BANK3   BANK4   BANK5   BANK6   BANK7   BANK8   BANK9  BANK10  BANK1
      +1  BANK12  BANK13  BANK14  BANK15
  5176 ;;      Params:         0       0       0       0       0       0       0       0       0       0       0       0       
      +0       0       0       0       0
  5177 ;;      Locals:         0       0       0       0       0       0       0       0       0       0       0       0       
      +0       0       0       0       0
  5178 ;;      Temps:          0       0       0       0       0       0       0       0       0       0       0       0       
      +0       0       0       0       0
  5179 ;;      Totals:         0       0       0       0       0       0       0       0       0       0       0       0       
      +0       0       0       0       0
  5180 ;;Total ram usage:        0 bytes
  5181 ;; Hardware stack levels used: 1
  5182 ;; Hardware stack levels required when called: 10
  5183 ;; This function calls:
  5184 ;;		_LM35_Init
  5185 ;;		_led_initialize
  5186 ;; This function is called by:
  5187 ;;		_application_init
  5188 ;; This function uses a non-reentrant model
  5189 ;;
  5190                           
  5191                           	psect	text18
  5192   003A48                     __ptext18:
  5193                           	callstack 0
  5194   003A48                     _ecu_layer_initialize:
  5195                           	callstack 19
  5196   003A48                     
  5197                           ;ECU_layer/ecu_layer_init.c: 11:     led_initialize(&reseption_light);
  5198   003A48  0EE3               	movlw	low _reseption_light
  5199   003A4A  0100               	movlb	0	; () banked
  5200   003A4C  6F8A               	movwf	led_initialize@led& (0+255),b
  5201   003A4E  ECB0  F01C         	call	_led_initialize	;wreg free
  5202                           
  5203                           ;ECU_layer/ecu_layer_init.c: 12:     led_initialize(&reseption_AC);
  5204   003A52  0EE0               	movlw	low _reseption_AC
  5205   003A54  0100               	movlb	0	; () banked
  5206   003A56  6F8A               	movwf	led_initialize@led& (0+255),b
  5207   003A58  ECB0  F01C         	call	_led_initialize	;wreg free
  5208                           
  5209                           ;ECU_layer/ecu_layer_init.c: 13:     led_initialize(&reseption_TV);
  5210   003A5C  0EDD               	movlw	low _reseption_TV
  5211   003A5E  0100               	movlb	0	; () banked
  5212   003A60  6F8A               	movwf	led_initialize@led& (0+255),b
  5213   003A62  ECB0  F01C         	call	_led_initialize	;wreg free
  5214                           
  5215                           ;ECU_layer/ecu_layer_init.c: 15:     led_initialize(&room_1_light);
  5216   003A66  0EDA               	movlw	low _room_1_light
  5217   003A68  0100               	movlb	0	; () banked
  5218   003A6A  6F8A               	movwf	led_initialize@led& (0+255),b
  5219   003A6C  ECB0  F01C         	call	_led_initialize	;wreg free
  5220                           
  5221                           ;ECU_layer/ecu_layer_init.c: 16:     led_initialize(&room_1_AC);
  5222   003A70  0ED7               	movlw	low _room_1_AC
  5223   003A72  0100               	movlb	0	; () banked
  5224   003A74  6F8A               	movwf	led_initialize@led& (0+255),b
  5225   003A76  ECB0  F01C         	call	_led_initialize	;wreg free
  5226                           
  5227                           ;ECU_layer/ecu_layer_init.c: 18:     led_initialize(&room_2_light);
  5228   003A7A  0ED4               	movlw	low _room_2_light
  5229   003A7C  0100               	movlb	0	; () banked
  5230   003A7E  6F8A               	movwf	led_initialize@led& (0+255),b
  5231   003A80  ECB0  F01C         	call	_led_initialize	;wreg free
  5232                           
  5233                           ;ECU_layer/ecu_layer_init.c: 19:     led_initialize(&room_2_AC);
  5234   003A84  0ED1               	movlw	low _room_2_AC
  5235   003A86  0100               	movlb	0	; () banked
  5236   003A88  6F8A               	movwf	led_initialize@led& (0+255),b
  5237   003A8A  ECB0  F01C         	call	_led_initialize	;wreg free
  5238   003A8E                     
  5239                           ;ECU_layer/ecu_layer_init.c: 21:     LM35_Init(&lm35_reseption);
  5240   003A8E  0E2D               	movlw	low _lm35_reseption
  5241   003A90  0100               	movlb	0	; () banked
  5242   003A92  6F89               	movwf	LM35_Init@adc_obj& (0+255),b
  5243   003A94  0E01               	movlw	high _lm35_reseption
  5244   003A96  6F8A               	movwf	(LM35_Init@adc_obj+1)& (0+255),b
  5245   003A98  ECB0  F01F         	call	_LM35_Init	;wreg free
  5246   003A9C                     
  5247                           ;ECU_layer/ecu_layer_init.c: 22:     LM35_Init(&lm35_room1);
  5248   003A9C  0E27               	movlw	low _lm35_room1
  5249   003A9E  0100               	movlb	0	; () banked
  5250   003AA0  6F89               	movwf	LM35_Init@adc_obj& (0+255),b
  5251   003AA2  0E01               	movlw	high _lm35_room1
  5252   003AA4  6F8A               	movwf	(LM35_Init@adc_obj+1)& (0+255),b
  5253   003AA6  ECB0  F01F         	call	_LM35_Init	;wreg free
  5254   003AAA                     
  5255                           ;ECU_layer/ecu_layer_init.c: 23:     LM35_Init(&lm35_room2);
  5256   003AAA  0E21               	movlw	low _lm35_room2
  5257   003AAC  0100               	movlb	0	; () banked
  5258   003AAE  6F89               	movwf	LM35_Init@adc_obj& (0+255),b
  5259   003AB0  0E01               	movlw	high _lm35_room2
  5260   003AB2  6F8A               	movwf	(LM35_Init@adc_obj+1)& (0+255),b
  5261   003AB4  ECB0  F01F         	call	_LM35_Init	;wreg free
  5262   003AB8  0012               	return		;funcret
  5263   003ABA                     __end_of_ecu_layer_initialize:
  5264                           	callstack 0
  5265                           
  5266 ;; *************** function _led_initialize *****************
  5267 ;; Defined at:
  5268 ;;		line 16 in file "ECU_layer/LED/ecu_led.c"
  5269 ;; Parameters:    Size  Location     Type
  5270 ;;  led             1   10[BANK0 ] PTR const struct .
  5271 ;;		 -> room_2_AC(3), room_2_light(3), room_1_AC(3), room_1_light(3), 
  5272 ;;		 -> reseption_TV(3), reseption_AC(3), reseption_light(3), 
  5273 ;; Auto vars:     Size  Location     Type
  5274 ;;  pin_obj         1   12[BANK0 ] struct .
  5275 ;;  error_state     1    0        unsigned char 
  5276 ;; Return value:  Size  Location     Type
  5277 ;;                  1    wreg      unsigned char 
  5278 ;; Registers used:
  5279 ;;		wreg, fsr2l, fsr2h, status,2, status,0, prodl, prodh, cstack
  5280 ;; Tracked objects:
  5281 ;;		On entry : 0/0
  5282 ;;		On exit  : 0/0
  5283 ;;		Unchanged: 0/0
  5284 ;; Data sizes:     COMRAM   BANK0   BANK1   BANK2   BANK3   BANK4   BANK5   BANK6   BANK7   BANK8   BANK9  BANK10  BANK1
      +1  BANK12  BANK13  BANK14  BANK15
  5285 ;;      Params:         0       1       0       0       0       0       0       0       0       0       0       0       
      +0       0       0       0       0
  5286 ;;      Locals:         0       1       0       0       0       0       0       0       0       0       0       0       
      +0       0       0       0       0
  5287 ;;      Temps:          0       1       0       0       0       0       0       0       0       0       0       0       
      +0       0       0       0       0
  5288 ;;      Totals:         0       3       0       0       0       0       0       0       0       0       0       0       
      +0       0       0       0       0
  5289 ;;Total ram usage:        3 bytes
  5290 ;; Hardware stack levels used: 1
  5291 ;; Hardware stack levels required when called: 9
  5292 ;; This function calls:
  5293 ;;		_gpio_pin_init
  5294 ;; This function is called by:
  5295 ;;		_ecu_layer_initialize
  5296 ;; This function uses a non-reentrant model
  5297 ;;
  5298                           
  5299                           	psect	text19
  5300   003960                     __ptext19:
  5301                           	callstack 0
  5302   003960                     _led_initialize:
  5303                           	callstack 19
  5304   003960                     
  5305                           ;ECU_layer/LED/ecu_led.c: 18:     if(((void*)0) == led){
  5306   003960  0100               	movlb	0	; () banked
  5307   003962  518A               	movf	led_initialize@led& (0+255),w,b
  5308   003964  A4D8               	btfss	status,2,c
  5309   003966  EFB7  F01C         	goto	u8501
  5310   00396A  EFB9  F01C         	goto	u8500
  5311   00396E                     u8501:
  5312   00396E  EFBB  F01C         	goto	l227
  5313   003972                     u8500:
  5314   003972                     
  5315                           ; BSR set to: 0
  5316                           ;ECU_layer/LED/ecu_led.c: 20:     }
  5317   003972  EFE9  F01C         	goto	l231
  5318   003976                     l227:
  5319                           
  5320                           ; BSR set to: 0
  5321                           ;ECU_layer/LED/ecu_led.c: 22:         pin_config_t pin_obj = {
  5322   003976  C0F5  F08C         	movff	led_initialize@F3058,led_initialize@pin_obj
  5323   00397A                     
  5324                           ; BSR set to: 0
  5325   00397A  518A               	movf	led_initialize@led& (0+255),w,b
  5326   00397C  6ED9               	movwf	fsr2l,c
  5327   00397E  6ADA               	clrf	fsr2h,c
  5328   003980  50DF               	movf	indf2,w,c
  5329   003982  6F8B               	movwf	??_led_initialize& (0+255),b
  5330   003984  518C               	movf	led_initialize@pin_obj& (0+255),w,b
  5331   003986  198B               	xorwf	??_led_initialize& (0+255),w,b
  5332   003988  0BF8               	andlw	-8
  5333   00398A  198B               	xorwf	??_led_initialize& (0+255),w,b
  5334   00398C  6F8C               	movwf	led_initialize@pin_obj& (0+255),b
  5335   00398E  518A               	movf	led_initialize@led& (0+255),w,b
  5336   003990  6ED9               	movwf	fsr2l,c
  5337   003992  6ADA               	clrf	fsr2h,c
  5338   003994  0E01               	movlw	1
  5339   003996  26D9               	addwf	fsr2l,f,c
  5340   003998  50DF               	movf	indf2,w,c
  5341   00399A  6F8B               	movwf	??_led_initialize& (0+255),b
  5342   00399C  478B               	rlncf	??_led_initialize& (0+255),f,b
  5343   00399E  478B               	rlncf	??_led_initialize& (0+255),f,b
  5344   0039A0  478B               	rlncf	??_led_initialize& (0+255),f,b
  5345   0039A2  518C               	movf	led_initialize@pin_obj& (0+255),w,b
  5346   0039A4  198B               	xorwf	??_led_initialize& (0+255),w,b
  5347   0039A6  0BC7               	andlw	-57
  5348   0039A8  198B               	xorwf	??_led_initialize& (0+255),w,b
  5349   0039AA  6F8C               	movwf	led_initialize@pin_obj& (0+255),b
  5350   0039AC                     
  5351                           ; BSR set to: 0
  5352   0039AC  9D8C               	bcf	led_initialize@pin_obj& (0+255),6,b
  5353   0039AE  518A               	movf	led_initialize@led& (0+255),w,b
  5354   0039B0  6ED9               	movwf	fsr2l,c
  5355   0039B2  6ADA               	clrf	fsr2h,c
  5356   0039B4  0E02               	movlw	2
  5357   0039B6  26D9               	addwf	fsr2l,f,c
  5358   0039B8  50DF               	movf	indf2,w,c
  5359   0039BA  6F8B               	movwf	??_led_initialize& (0+255),b
  5360   0039BC  338B               	rrcf	??_led_initialize& (0+255),f,b
  5361   0039BE  338B               	rrcf	??_led_initialize& (0+255),f,b
  5362   0039C0  518C               	movf	led_initialize@pin_obj& (0+255),w,b
  5363   0039C2  198B               	xorwf	??_led_initialize& (0+255),w,b
  5364   0039C4  0B7F               	andlw	-129
  5365   0039C6  198B               	xorwf	??_led_initialize& (0+255),w,b
  5366   0039C8  6F8C               	movwf	led_initialize@pin_obj& (0+255),b
  5367   0039CA                     
  5368                           ; BSR set to: 0
  5369   0039CA  0E8C               	movlw	low led_initialize@pin_obj
  5370   0039CC  6F88               	movwf	gpio_pin_init@_pin_config& (0+255),b
  5371   0039CE  EC28  F01F         	call	_gpio_pin_init	;wreg free
  5372   0039D2                     l231:
  5373   0039D2  0012               	return		;funcret
  5374   0039D4                     __end_of_led_initialize:
  5375                           	callstack 0
  5376                           
  5377 ;; *************** function _gpio_pin_init *****************
  5378 ;; Defined at:
  5379 ;;		line 143 in file "MCAL_layer/GPIO/mcal_gpio.c"
  5380 ;; Parameters:    Size  Location     Type
  5381 ;;  _pin_config     1    8[BANK0 ] PTR const struct .
  5382 ;;		 -> CCP1_PIN_PWM_MODE(1), led_initialize@pin_obj(1), 
  5383 ;; Auto vars:     Size  Location     Type
  5384 ;;  error_state     1    9[BANK0 ] unsigned char 
  5385 ;; Return value:  Size  Location     Type
  5386 ;;                  1    wreg      unsigned char 
  5387 ;; Registers used:
  5388 ;;		wreg, fsr2l, fsr2h, status,2, status,0, prodl, prodh, cstack
  5389 ;; Tracked objects:
  5390 ;;		On entry : 0/0
  5391 ;;		On exit  : 0/0
  5392 ;;		Unchanged: 0/0
  5393 ;; Data sizes:     COMRAM   BANK0   BANK1   BANK2   BANK3   BANK4   BANK5   BANK6   BANK7   BANK8   BANK9  BANK10  BANK1
      +1  BANK12  BANK13  BANK14  BANK15
  5394 ;;      Params:         0       1       0       0       0       0       0       0       0       0       0       0       
      +0       0       0       0       0
  5395 ;;      Locals:         0       1       0       0       0       0       0       0       0       0       0       0       
      +0       0       0       0       0
  5396 ;;      Temps:          0       0       0       0       0       0       0       0       0       0       0       0       
      +0       0       0       0       0
  5397 ;;      Totals:         0       2       0       0       0       0       0       0       0       0       0       0       
      +0       0       0       0       0
  5398 ;;Total ram usage:        2 bytes
  5399 ;; Hardware stack levels used: 1
  5400 ;; Hardware stack levels required when called: 8
  5401 ;; This function calls:
  5402 ;;		_gpio_pin_direction_init
  5403 ;;		_gpio_pin_write_logic
  5404 ;; This function is called by:
  5405 ;;		_led_initialize
  5406 ;;		_chr_lcd_4bit_initialize
  5407 ;;		_chr_lcd_8bit_initialize
  5408 ;;		_key_pad_initialization
  5409 ;;		_CCP_Init
  5410 ;; This function uses a non-reentrant model
  5411 ;;
  5412                           
  5413                           	psect	text20
  5414   003E50                     __ptext20:
  5415                           	callstack 0
  5416   003E50                     _gpio_pin_init:
  5417                           	callstack 19
  5418   003E50                     
  5419                           ;MCAL_layer/GPIO/mcal_gpio.c: 145:     if(((void*)0) == _pin_config ){
  5420   003E50  0100               	movlb	0	; () banked
  5421   003E52  5188               	movf	gpio_pin_init@_pin_config& (0+255),w,b
  5422   003E54  A4D8               	btfss	status,2,c
  5423   003E56  EF2F  F01F         	goto	u8221
  5424   003E5A  EF31  F01F         	goto	u8220
  5425   003E5E                     u8221:
  5426   003E5E  EF35  F01F         	goto	l9152
  5427   003E62                     u8220:
  5428   003E62                     
  5429                           ; BSR set to: 0
  5430                           ;MCAL_layer/GPIO/mcal_gpio.c: 146:         error_state = (STD_ReturnType)0x00 ;
  5431   003E62  0E00               	movlw	0
  5432   003E64  6F89               	movwf	gpio_pin_init@error_state& (0+255),b
  5433                           
  5434                           ;MCAL_layer/GPIO/mcal_gpio.c: 147:     }
  5435   003E66  EF48  F01F         	goto	l9154
  5436   003E6A                     l9152:
  5437                           
  5438                           ; BSR set to: 0
  5439                           ;MCAL_layer/GPIO/mcal_gpio.c: 149:         error_state = gpio_pin_direction_init(_pin_co
      +                          nfig) ;
  5440   003E6A  C088  F080         	movff	gpio_pin_init@_pin_config,gpio_pin_direction_init@_pin_config
  5441   003E6E  EC49  F016         	call	_gpio_pin_direction_init	;wreg free
  5442   003E72  0100               	movlb	0	; () banked
  5443   003E74  6F89               	movwf	gpio_pin_init@error_state& (0+255),b
  5444                           
  5445                           ;MCAL_layer/GPIO/mcal_gpio.c: 150:         error_state = gpio_pin_write_logic(_pin_confi
      +                          g,_pin_config->logic) ;
  5446   003E76  C088  F080         	movff	gpio_pin_init@_pin_config,gpio_pin_write_logic@_pin_config
  5447   003E7A  5188               	movf	gpio_pin_init@_pin_config& (0+255),w,b
  5448   003E7C  6ED9               	movwf	fsr2l,c
  5449   003E7E  6ADA               	clrf	fsr2h,c
  5450   003E80  0E00               	movlw	0
  5451   003E82  BEDF               	btfsc	indf2,7,c
  5452   003E84  0E01               	movlw	1
  5453   003E86  6F81               	movwf	gpio_pin_write_logic@logic& (0+255),b
  5454   003E88  ECC5  F016         	call	_gpio_pin_write_logic	;wreg free
  5455   003E8C  0100               	movlb	0	; () banked
  5456   003E8E  6F89               	movwf	gpio_pin_init@error_state& (0+255),b
  5457   003E90                     l9154:
  5458                           
  5459                           ; BSR set to: 0
  5460                           ;MCAL_layer/GPIO/mcal_gpio.c: 152:     return error_state ;
  5461   003E90  5189               	movf	gpio_pin_init@error_state& (0+255),w,b
  5462   003E92                     
  5463                           ; BSR set to: 0
  5464   003E92  0012               	return		;funcret
  5465   003E94                     __end_of_gpio_pin_init:
  5466                           	callstack 0
  5467                           
  5468 ;; *************** function _gpio_pin_direction_init *****************
  5469 ;; Defined at:
  5470 ;;		line 23 in file "MCAL_layer/GPIO/mcal_gpio.c"
  5471 ;; Parameters:    Size  Location     Type
  5472 ;;  _pin_config     1    0[BANK0 ] PTR const struct .
  5473 ;;		 -> timer0_ModeConfigure@timer0_External_Clock_Input_Pin(1), CCP2_PIN_PWM_MODE(1), CCP1_PIN_PWM_MODE(1), led_initial
      +ize@pin_obj(1), 
  5474 ;; Auto vars:     Size  Location     Type
  5475 ;;  error_state     1    6[BANK0 ] unsigned char 
  5476 ;; Return value:  Size  Location     Type
  5477 ;;                  1    wreg      unsigned char 
  5478 ;; Registers used:
  5479 ;;		wreg, fsr2l, fsr2h, status,2, status,0, prodl, prodh
  5480 ;; Tracked objects:
  5481 ;;		On entry : 0/0
  5482 ;;		On exit  : 0/0
  5483 ;;		Unchanged: 0/0
  5484 ;; Data sizes:     COMRAM   BANK0   BANK1   BANK2   BANK3   BANK4   BANK5   BANK6   BANK7   BANK8   BANK9  BANK10  BANK1
      +1  BANK12  BANK13  BANK14  BANK15
  5485 ;;      Params:         0       1       0       0       0       0       0       0       0       0       0       0       
      +0       0       0       0       0
  5486 ;;      Locals:         0       1       0       0       0       0       0       0       0       0       0       0       
      +0       0       0       0       0
  5487 ;;      Temps:          0       5       0       0       0       0       0       0       0       0       0       0       
      +0       0       0       0       0
  5488 ;;      Totals:         0       7       0       0       0       0       0       0       0       0       0       0       
      +0       0       0       0       0
  5489 ;;Total ram usage:        7 bytes
  5490 ;; Hardware stack levels used: 1
  5491 ;; Hardware stack levels required when called: 7
  5492 ;; This function calls:
  5493 ;;		Nothing
  5494 ;; This function is called by:
  5495 ;;		_gpio_pin_init
  5496 ;;		_timer0_ModeConfigure
  5497 ;;		_key_pad_initialization
  5498 ;;		_CCP_Init
  5499 ;;		_Interrupt_INTx_Pin_Init
  5500 ;;		_Interrupt_RBx_Pin_Init
  5501 ;; This function uses a non-reentrant model
  5502 ;;
  5503                           
  5504                           	psect	text21
  5505   002C92                     __ptext21:
  5506                           	callstack 0
  5507   002C92                     _gpio_pin_direction_init:
  5508                           	callstack 19
  5509   002C92                     
  5510                           ;MCAL_layer/GPIO/mcal_gpio.c: 24:     STD_ReturnType error_state = (STD_ReturnType)0x01 
      +                          ;
  5511   002C92  0E01               	movlw	1
  5512   002C94  0100               	movlb	0	; () banked
  5513   002C96  6F86               	movwf	gpio_pin_direction_init@error_state& (0+255),b
  5514                           
  5515                           ;MCAL_layer/GPIO/mcal_gpio.c: 25:     if(((void*)0) == _pin_config ){
  5516   002C98  5180               	movf	gpio_pin_direction_init@_pin_config& (0+255),w,b
  5517   002C9A  A4D8               	btfss	status,2,c
  5518   002C9C  EF52  F016         	goto	u7271
  5519   002CA0  EF54  F016         	goto	u7270
  5520   002CA4                     u7271:
  5521   002CA4  EFAD  F016         	goto	l8562
  5522   002CA8                     u7270:
  5523   002CA8                     l8554:
  5524                           
  5525                           ; BSR set to: 0
  5526                           ;MCAL_layer/GPIO/mcal_gpio.c: 26:         error_state = (STD_ReturnType)0x00 ;
  5527   002CA8  0E00               	movlw	0
  5528   002CAA  6F86               	movwf	gpio_pin_direction_init@error_state& (0+255),b
  5529                           
  5530                           ;MCAL_layer/GPIO/mcal_gpio.c: 27:     }
  5531   002CAC  EFC3  F016         	goto	l8564
  5532   002CB0                     l8556:
  5533                           
  5534                           ; BSR set to: 0
  5535                           ;MCAL_layer/GPIO/mcal_gpio.c: 31:                 (*tris_regs[_pin_config->port] &=~((ui
      +                          nt8)1<<_pin_config->pin));
  5536   002CB0  5180               	movf	gpio_pin_direction_init@_pin_config& (0+255),w,b
  5537   002CB2  6ED9               	movwf	fsr2l,c
  5538   002CB4  6ADA               	clrf	fsr2h,c
  5539   002CB6  30DF               	rrcf	223,w,c
  5540   002CB8  32E8               	rrcf	wreg,f,c
  5541   002CBA  32E8               	rrcf	wreg,f,c
  5542   002CBC  0B07               	andlw	7
  5543   002CBE  6F81               	movwf	??_gpio_pin_direction_init& (0+255),b
  5544   002CC0  0E01               	movlw	1
  5545   002CC2  6F82               	movwf	(??_gpio_pin_direction_init+1)& (0+255),b
  5546   002CC4  2B81               	incf	??_gpio_pin_direction_init& (0+255),f,b
  5547   002CC6  EF67  F016         	goto	u7284
  5548   002CCA                     u7285:
  5549   002CCA  90D8               	bcf	status,0,c
  5550   002CCC  3782               	rlcf	(??_gpio_pin_direction_init+1)& (0+255),f,b
  5551   002CCE                     u7284:
  5552   002CCE  2F81               	decfsz	??_gpio_pin_direction_init& (0+255),f,b
  5553   002CD0  EF65  F016         	goto	u7285
  5554   002CD4  0100               	movlb	0	; () banked
  5555   002CD6  5182               	movf	(??_gpio_pin_direction_init+1)& (0+255),w,b
  5556   002CD8  0AFF               	xorlw	255
  5557   002CDA  6F83               	movwf	(??_gpio_pin_direction_init+2)& (0+255),b
  5558   002CDC  5180               	movf	gpio_pin_direction_init@_pin_config& (0+255),w,b
  5559   002CDE  6ED9               	movwf	fsr2l,c
  5560   002CE0  6ADA               	clrf	fsr2h,c
  5561   002CE2  50DF               	movf	223,w,c
  5562   002CE4  0B07               	andlw	7
  5563   002CE6  0D02               	mullw	2
  5564   002CE8  50F3               	movf	243,w,c
  5565   002CEA  0FC7               	addlw	low _tris_regs
  5566   002CEC  6ED9               	movwf	fsr2l,c
  5567   002CEE  6ADA               	clrf	fsr2h,c
  5568   002CF0  CFDE F084          	movff	postinc2,??_gpio_pin_direction_init+3
  5569   002CF4  CFDD F085          	movff	postdec2,??_gpio_pin_direction_init+4
  5570   002CF8  C084  FFD9         	movff	??_gpio_pin_direction_init+3,fsr2l
  5571   002CFC  C085  FFDA         	movff	??_gpio_pin_direction_init+4,fsr2h
  5572   002D00  5183               	movf	(??_gpio_pin_direction_init+2)& (0+255),w,b
  5573   002D02  16DF               	andwf	indf2,f,c
  5574                           
  5575                           ;MCAL_layer/GPIO/mcal_gpio.c: 32:                 break ;
  5576   002D04  EFC3  F016         	goto	l8564
  5577   002D08                     l8558:
  5578                           
  5579                           ; BSR set to: 0
  5580                           ;MCAL_layer/GPIO/mcal_gpio.c: 34:                 (*tris_regs[_pin_config->port] |= ((ui
      +                          nt8)1<<_pin_config->pin));
  5581   002D08  5180               	movf	gpio_pin_direction_init@_pin_config& (0+255),w,b
  5582   002D0A  6ED9               	movwf	fsr2l,c
  5583   002D0C  6ADA               	clrf	fsr2h,c
  5584   002D0E  30DF               	rrcf	223,w,c
  5585   002D10  32E8               	rrcf	wreg,f,c
  5586   002D12  32E8               	rrcf	wreg,f,c
  5587   002D14  0B07               	andlw	7
  5588   002D16  6F81               	movwf	??_gpio_pin_direction_init& (0+255),b
  5589   002D18  0E01               	movlw	1
  5590   002D1A  6F82               	movwf	(??_gpio_pin_direction_init+1)& (0+255),b
  5591   002D1C  2B81               	incf	??_gpio_pin_direction_init& (0+255),f,b
  5592   002D1E  EF93  F016         	goto	u7294
  5593   002D22                     u7295:
  5594   002D22  90D8               	bcf	status,0,c
  5595   002D24  3782               	rlcf	(??_gpio_pin_direction_init+1)& (0+255),f,b
  5596   002D26                     u7294:
  5597   002D26  2F81               	decfsz	??_gpio_pin_direction_init& (0+255),f,b
  5598   002D28  EF91  F016         	goto	u7295
  5599   002D2C  0100               	movlb	0	; () banked
  5600   002D2E  5180               	movf	gpio_pin_direction_init@_pin_config& (0+255),w,b
  5601   002D30  6ED9               	movwf	fsr2l,c
  5602   002D32  6ADA               	clrf	fsr2h,c
  5603   002D34  50DF               	movf	223,w,c
  5604   002D36  0B07               	andlw	7
  5605   002D38  0D02               	mullw	2
  5606   002D3A  50F3               	movf	243,w,c
  5607   002D3C  0FC7               	addlw	low _tris_regs
  5608   002D3E  6ED9               	movwf	fsr2l,c
  5609   002D40  6ADA               	clrf	fsr2h,c
  5610   002D42  CFDE F083          	movff	postinc2,??_gpio_pin_direction_init+2
  5611   002D46  CFDD F084          	movff	postdec2,??_gpio_pin_direction_init+3
  5612   002D4A  C083  FFD9         	movff	??_gpio_pin_direction_init+2,fsr2l
  5613   002D4E  C084  FFDA         	movff	??_gpio_pin_direction_init+3,fsr2h
  5614   002D52  5182               	movf	(??_gpio_pin_direction_init+1)& (0+255),w,b
  5615   002D54  12DF               	iorwf	indf2,f,c
  5616                           
  5617                           ;MCAL_layer/GPIO/mcal_gpio.c: 35:                 break ;
  5618   002D56  EFC3  F016         	goto	l8564
  5619   002D5A                     l8562:
  5620                           
  5621                           ; BSR set to: 0
  5622   002D5A  5180               	movf	gpio_pin_direction_init@_pin_config& (0+255),w,b
  5623   002D5C  6ED9               	movwf	fsr2l,c
  5624   002D5E  6ADA               	clrf	fsr2h,c
  5625   002D60  BCDF               	btfsc	indf2,6,c
  5626   002D62  EFB5  F016         	goto	u7301
  5627   002D66  EFB8  F016         	goto	u7300
  5628   002D6A                     u7301:
  5629   002D6A  0E01               	movlw	1
  5630   002D6C  EFB9  F016         	goto	u7306
  5631   002D70                     u7300:
  5632   002D70  0E00               	movlw	0
  5633   002D72                     u7306:
  5634                           
  5635                           ; Switch size 1, requested type "simple"
  5636                           ; Number of cases is 2, Range of values is 0 to 1
  5637                           ; switch strategies available:
  5638                           ; Name         Instructions Cycles
  5639                           ; simple_byte            7     4 (average)
  5640                           ;	Chosen strategy is simple_byte
  5641   002D72  0A00               	xorlw	0	; case 0
  5642   002D74  B4D8               	btfsc	status,2,c
  5643   002D76  EF58  F016         	goto	l8556
  5644   002D7A  0A01               	xorlw	1	; case 1
  5645   002D7C  B4D8               	btfsc	status,2,c
  5646   002D7E  EF84  F016         	goto	l8558
  5647   002D82  EF54  F016         	goto	l8554
  5648   002D86                     l8564:
  5649                           
  5650                           ; BSR set to: 0
  5651                           ;MCAL_layer/GPIO/mcal_gpio.c: 39:     return error_state ;
  5652   002D86  5186               	movf	gpio_pin_direction_init@error_state& (0+255),w,b
  5653   002D88                     
  5654                           ; BSR set to: 0
  5655   002D88  0012               	return		;funcret
  5656   002D8A                     __end_of_gpio_pin_direction_init:
  5657                           	callstack 0
  5658                           
  5659 ;; *************** function _LM35_Init *****************
  5660 ;; Defined at:
  5661 ;;		line 10 in file "ECU_layer/LM35/lm35.c"
  5662 ;; Parameters:    Size  Location     Type
  5663 ;;  adc_obj         2    9[BANK0 ] PTR const struct .
  5664 ;;		 -> lm35_room2(6), lm35_room1(6), lm35_reseption(6), 
  5665 ;; Auto vars:     Size  Location     Type
  5666 ;;  error_state     1    0        unsigned char 
  5667 ;; Return value:  Size  Location     Type
  5668 ;;                  1    wreg      unsigned char 
  5669 ;; Registers used:
  5670 ;;		wreg, fsr2l, fsr2h, status,2, status,0, cstack
  5671 ;; Tracked objects:
  5672 ;;		On entry : 0/0
  5673 ;;		On exit  : 0/0
  5674 ;;		Unchanged: 0/0
  5675 ;; Data sizes:     COMRAM   BANK0   BANK1   BANK2   BANK3   BANK4   BANK5   BANK6   BANK7   BANK8   BANK9  BANK10  BANK1
      +1  BANK12  BANK13  BANK14  BANK15
  5676 ;;      Params:         0       2       0       0       0       0       0       0       0       0       0       0       
      +0       0       0       0       0
  5677 ;;      Locals:         0       0       0       0       0       0       0       0       0       0       0       0       
      +0       0       0       0       0
  5678 ;;      Temps:          0       0       0       0       0       0       0       0       0       0       0       0       
      +0       0       0       0       0
  5679 ;;      Totals:         0       2       0       0       0       0       0       0       0       0       0       0       
      +0       0       0       0       0
  5680 ;;Total ram usage:        2 bytes
  5681 ;; Hardware stack levels used: 1
  5682 ;; Hardware stack levels required when called: 9
  5683 ;; This function calls:
  5684 ;;		_ADC_Init
  5685 ;; This function is called by:
  5686 ;;		_ecu_layer_initialize
  5687 ;; This function uses a non-reentrant model
  5688 ;;
  5689                           
  5690                           	psect	text22
  5691   003F60                     __ptext22:
  5692                           	callstack 0
  5693   003F60                     _LM35_Init:
  5694                           	callstack 19
  5695   003F60                     
  5696                           ;ECU_layer/LM35/lm35.c: 12:     if(((void*)0) == adc_obj){
  5697   003F60  0100               	movlb	0	; () banked
  5698   003F62  5189               	movf	LM35_Init@adc_obj& (0+255),w,b
  5699   003F64  118A               	iorwf	(LM35_Init@adc_obj+1)& (0+255),w,b
  5700   003F66  A4D8               	btfss	status,2,c
  5701   003F68  EFB8  F01F         	goto	u8511
  5702   003F6C  EFBA  F01F         	goto	u8510
  5703   003F70                     u8511:
  5704   003F70  EFBC  F01F         	goto	l9436
  5705   003F74                     u8510:
  5706   003F74                     
  5707                           ; BSR set to: 0
  5708                           ;ECU_layer/LM35/lm35.c: 14:     }
  5709   003F74  EFC2  F01F         	goto	l261
  5710   003F78                     l9436:
  5711                           
  5712                           ; BSR set to: 0
  5713   003F78  C089  F085         	movff	LM35_Init@adc_obj,ADC_Init@adc_obj
  5714   003F7C  C08A  F086         	movff	LM35_Init@adc_obj+1,ADC_Init@adc_obj+1
  5715   003F80  ECCA  F019         	call	_ADC_Init	;wreg free
  5716   003F84                     l261:
  5717   003F84  0012               	return		;funcret
  5718   003F86                     __end_of_LM35_Init:
  5719                           	callstack 0
  5720                           
  5721 ;; *************** function _ADC_Init *****************
  5722 ;; Defined at:
  5723 ;;		line 31 in file "MCAL_layer/ADC/mcal_adc.c"
  5724 ;; Parameters:    Size  Location     Type
  5725 ;;  adc_obj         2    5[BANK0 ] PTR const struct .
  5726 ;;		 -> lm35_room2(6), lm35_room1(6), lm35_reseption(6), 
  5727 ;; Auto vars:     Size  Location     Type
  5728 ;;  error_state     1    8[BANK0 ] unsigned char 
  5729 ;; Return value:  Size  Location     Type
  5730 ;;                  1    wreg      unsigned char 
  5731 ;; Registers used:
  5732 ;;		wreg, fsr2l, fsr2h, status,2, status,0, cstack
  5733 ;; Tracked objects:
  5734 ;;		On entry : 0/0
  5735 ;;		On exit  : 0/0
  5736 ;;		Unchanged: 0/0
  5737 ;; Data sizes:     COMRAM   BANK0   BANK1   BANK2   BANK3   BANK4   BANK5   BANK6   BANK7   BANK8   BANK9  BANK10  BANK1
      +1  BANK12  BANK13  BANK14  BANK15
  5738 ;;      Params:         0       2       0       0       0       0       0       0       0       0       0       0       
      +0       0       0       0       0
  5739 ;;      Locals:         0       1       0       0       0       0       0       0       0       0       0       0       
      +0       0       0       0       0
  5740 ;;      Temps:          0       1       0       0       0       0       0       0       0       0       0       0       
      +0       0       0       0       0
  5741 ;;      Totals:         0       4       0       0       0       0       0       0       0       0       0       0       
      +0       0       0       0       0
  5742 ;;Total ram usage:        4 bytes
  5743 ;; Hardware stack levels used: 1
  5744 ;; Hardware stack levels required when called: 8
  5745 ;; This function calls:
  5746 ;;		_Interrupt_ADC_Init
  5747 ;;		_adc_configure_result_format
  5748 ;;		_adc_configure_voltage_refrence
  5749 ;;		_adc_input_cahnnel_port_configure
  5750 ;; This function is called by:
  5751 ;;		_LM35_Init
  5752 ;; This function uses a non-reentrant model
  5753 ;;
  5754                           
  5755                           	psect	text23
  5756   003394                     __ptext23:
  5757                           	callstack 0
  5758   003394                     _ADC_Init:
  5759                           	callstack 19
  5760   003394                     
  5761                           ;MCAL_layer/ADC/mcal_adc.c: 33:     if(((void*)0) == adc_obj){
  5762   003394  0100               	movlb	0	; () banked
  5763   003396  5185               	movf	ADC_Init@adc_obj& (0+255),w,b
  5764   003398  1186               	iorwf	(ADC_Init@adc_obj+1)& (0+255),w,b
  5765   00339A  A4D8               	btfss	status,2,c
  5766   00339C  EFD2  F019         	goto	u8231
  5767   0033A0  EFD4  F019         	goto	u8230
  5768   0033A4                     u8231:
  5769   0033A4  EFD8  F019         	goto	l340
  5770   0033A8                     u8230:
  5771   0033A8                     
  5772                           ; BSR set to: 0
  5773                           ;MCAL_layer/ADC/mcal_adc.c: 34:          error_state = (STD_ReturnType)0x00 ;
  5774   0033A8  0E00               	movlw	0
  5775   0033AA  6F88               	movwf	ADC_Init@error_state& (0+255),b
  5776                           
  5777                           ;MCAL_layer/ADC/mcal_adc.c: 35:     }
  5778   0033AC  EF24  F01A         	goto	l9178
  5779   0033B0                     l340:
  5780                           
  5781                           ; BSR set to: 0
  5782                           ;MCAL_layer/ADC/mcal_adc.c: 38:         (ADCON0bits.ADON = 0);
  5783   0033B0  90C2               	bcf	194,0,c	;volatile
  5784   0033B2                     
  5785                           ; BSR set to: 0
  5786                           ;MCAL_layer/ADC/mcal_adc.c: 40:         (ADCON2bits.ACQT = adc_obj->aquisition_time);
  5787   0033B2  EE20 F002          	lfsr	2,2
  5788   0033B6  5185               	movf	ADC_Init@adc_obj& (0+255),w,b
  5789   0033B8  26D9               	addwf	fsr2l,f,c
  5790   0033BA  5186               	movf	(ADC_Init@adc_obj+1)& (0+255),w,b
  5791   0033BC  22DA               	addwfc	fsr2h,f,c
  5792   0033BE  50DF               	movf	indf2,w,c
  5793   0033C0  6F87               	movwf	??_ADC_Init& (0+255),b
  5794   0033C2  4787               	rlncf	??_ADC_Init& (0+255),f,b
  5795   0033C4  4787               	rlncf	??_ADC_Init& (0+255),f,b
  5796   0033C6  4787               	rlncf	??_ADC_Init& (0+255),f,b
  5797   0033C8  50C0               	movf	192,w,c	;volatile
  5798   0033CA  1987               	xorwf	??_ADC_Init& (0+255),w,b
  5799   0033CC  0BC7               	andlw	-57
  5800   0033CE  1987               	xorwf	??_ADC_Init& (0+255),w,b
  5801   0033D0  6EC0               	movwf	192,c	;volatile
  5802                           
  5803                           ;MCAL_layer/ADC/mcal_adc.c: 42:         (ADCON2bits.ADCS = adc_obj->conversion_clock);
  5804   0033D2  EE20 F003          	lfsr	2,3
  5805   0033D6  5185               	movf	ADC_Init@adc_obj& (0+255),w,b
  5806   0033D8  26D9               	addwf	fsr2l,f,c
  5807   0033DA  5186               	movf	(ADC_Init@adc_obj+1)& (0+255),w,b
  5808   0033DC  22DA               	addwfc	fsr2h,f,c
  5809   0033DE  50DF               	movf	indf2,w,c
  5810   0033E0  6F87               	movwf	??_ADC_Init& (0+255),b
  5811   0033E2  50C0               	movf	192,w,c	;volatile
  5812   0033E4  1987               	xorwf	??_ADC_Init& (0+255),w,b
  5813   0033E6  0BF8               	andlw	-8
  5814   0033E8  1987               	xorwf	??_ADC_Init& (0+255),w,b
  5815   0033EA  6EC0               	movwf	192,c	;volatile
  5816                           
  5817                           ;MCAL_layer/ADC/mcal_adc.c: 44:         (ADCON0bits.CHS = adc_obj->channel_select);
  5818   0033EC  EE20 F004          	lfsr	2,4
  5819   0033F0  5185               	movf	ADC_Init@adc_obj& (0+255),w,b
  5820   0033F2  26D9               	addwf	fsr2l,f,c
  5821   0033F4  5186               	movf	(ADC_Init@adc_obj+1)& (0+255),w,b
  5822   0033F6  22DA               	addwfc	fsr2h,f,c
  5823   0033F8  50DF               	movf	indf2,w,c
  5824   0033FA  6F87               	movwf	??_ADC_Init& (0+255),b
  5825   0033FC  4787               	rlncf	??_ADC_Init& (0+255),f,b
  5826   0033FE  4787               	rlncf	??_ADC_Init& (0+255),f,b
  5827   003400  50C2               	movf	194,w,c	;volatile
  5828   003402  1987               	xorwf	??_ADC_Init& (0+255),w,b
  5829   003404  0BC3               	andlw	-61
  5830   003406  1987               	xorwf	??_ADC_Init& (0+255),w,b
  5831   003408  6EC2               	movwf	194,c	;volatile
  5832   00340A                     
  5833                           ; BSR set to: 0
  5834                           ;MCAL_layer/ADC/mcal_adc.c: 45:         adc_input_cahnnel_port_configure(adc_obj->channe
      +                          l_select);
  5835   00340A  EE20 F004          	lfsr	2,4
  5836   00340E  5185               	movf	ADC_Init@adc_obj& (0+255),w,b
  5837   003410  26D9               	addwf	fsr2l,f,c
  5838   003412  5186               	movf	(ADC_Init@adc_obj+1)& (0+255),w,b
  5839   003414  22DA               	addwfc	fsr2h,f,c
  5840   003416  50DF               	movf	indf2,w,c
  5841   003418  ECB8  F017         	call	_adc_input_cahnnel_port_configure
  5842   00341C  C085  F080         	movff	ADC_Init@adc_obj,Interrupt_ADC_Init@adc_obj
  5843   003420  C086  F081         	movff	ADC_Init@adc_obj+1,Interrupt_ADC_Init@adc_obj+1
  5844   003424  EC21  F01E         	call	_Interrupt_ADC_Init	;wreg free
  5845   003428                     
  5846                           ;MCAL_layer/ADC/mcal_adc.c: 51:         adc_configure_result_format(adc_obj);
  5847   003428  C085  F080         	movff	ADC_Init@adc_obj,adc_configure_result_format@adc_obj
  5848   00342C  C086  F081         	movff	ADC_Init@adc_obj+1,adc_configure_result_format@adc_obj+1
  5849   003430  ECE2  F01E         	call	_adc_configure_result_format	;wreg free
  5850   003434                     
  5851                           ;MCAL_layer/ADC/mcal_adc.c: 53:         adc_configure_voltage_refrence(adc_obj);
  5852   003434  C085  F080         	movff	ADC_Init@adc_obj,adc_configure_voltage_refrence@adc_obj
  5853   003438  C086  F081         	movff	ADC_Init@adc_obj+1,adc_configure_voltage_refrence@adc_obj+1
  5854   00343C  EC76  F01E         	call	_adc_configure_voltage_refrence	;wreg free
  5855   003440                     
  5856                           ;MCAL_layer/ADC/mcal_adc.c: 55:         (ADCON0bits.ADON = 1);
  5857   003440  80C2               	bsf	194,0,c	;volatile
  5858   003442                     
  5859                           ;MCAL_layer/ADC/mcal_adc.c: 56:         error_state = (STD_ReturnType)0x01 ;
  5860   003442  0E01               	movlw	1
  5861   003444  0100               	movlb	0	; () banked
  5862   003446  6F88               	movwf	ADC_Init@error_state& (0+255),b
  5863   003448                     l9178:
  5864                           
  5865                           ; BSR set to: 0
  5866                           ;MCAL_layer/ADC/mcal_adc.c: 58:     return error_state ;
  5867   003448  5188               	movf	ADC_Init@error_state& (0+255),w,b
  5868   00344A                     
  5869                           ; BSR set to: 0
  5870   00344A  0012               	return		;funcret
  5871   00344C                     __end_of_ADC_Init:
  5872                           	callstack 0
  5873                           
  5874 ;; *************** function _adc_input_cahnnel_port_configure *****************
  5875 ;; Defined at:
  5876 ;;		line 260 in file "MCAL_layer/ADC/mcal_adc.c"
  5877 ;; Parameters:    Size  Location     Type
  5878 ;;  channel         1    wreg     enum E3044
  5879 ;; Auto vars:     Size  Location     Type
  5880 ;;  channel         1    2[BANK0 ] enum E3044
  5881 ;; Return value:  Size  Location     Type
  5882 ;;                  1    wreg      void 
  5883 ;; Registers used:
  5884 ;;		wreg, status,2, status,0
  5885 ;; Tracked objects:
  5886 ;;		On entry : 0/0
  5887 ;;		On exit  : 0/0
  5888 ;;		Unchanged: 0/0
  5889 ;; Data sizes:     COMRAM   BANK0   BANK1   BANK2   BANK3   BANK4   BANK5   BANK6   BANK7   BANK8   BANK9  BANK10  BANK1
      +1  BANK12  BANK13  BANK14  BANK15
  5890 ;;      Params:         0       0       0       0       0       0       0       0       0       0       0       0       
      +0       0       0       0       0
  5891 ;;      Locals:         0       1       0       0       0       0       0       0       0       0       0       0       
      +0       0       0       0       0
  5892 ;;      Temps:          0       2       0       0       0       0       0       0       0       0       0       0       
      +0       0       0       0       0
  5893 ;;      Totals:         0       3       0       0       0       0       0       0       0       0       0       0       
      +0       0       0       0       0
  5894 ;;Total ram usage:        3 bytes
  5895 ;; Hardware stack levels used: 1
  5896 ;; Hardware stack levels required when called: 7
  5897 ;; This function calls:
  5898 ;;		Nothing
  5899 ;; This function is called by:
  5900 ;;		_ADC_Init
  5901 ;; This function uses a non-reentrant model
  5902 ;;
  5903                           
  5904                           	psect	text24
  5905   002F70                     __ptext24:
  5906                           	callstack 0
  5907   002F70                     _adc_input_cahnnel_port_configure:
  5908                           	callstack 19
  5909                           
  5910                           ; BSR set to: 0
  5911                           ;incstack = 0
  5912                           ;adc_input_cahnnel_port_configure@channel stored from wreg
  5913   002F70  0100               	movlb	0	; () banked
  5914   002F72  6F82               	movwf	adc_input_cahnnel_port_configure@channel& (0+255),b
  5915   002F74                     
  5916                           ;MCAL_layer/ADC/mcal_adc.c: 261:     switch(channel){
  5917   002F74  EFE3  F017         	goto	l8598
  5918   002F78                     l8570:
  5919                           
  5920                           ; BSR set to: 0
  5921   002F78  8092               	bsf	146,0,c	;volatile
  5922   002F7A  EF25  F018         	goto	l418
  5923   002F7E                     l8572:
  5924                           
  5925                           ; BSR set to: 0
  5926   002F7E  8292               	bsf	146,1,c	;volatile
  5927   002F80  EF25  F018         	goto	l418
  5928   002F84                     l8574:
  5929                           
  5930                           ; BSR set to: 0
  5931   002F84  8492               	bsf	146,2,c	;volatile
  5932   002F86  EF25  F018         	goto	l418
  5933   002F8A                     l8576:
  5934                           
  5935                           ; BSR set to: 0
  5936   002F8A  8692               	bsf	146,3,c	;volatile
  5937   002F8C  EF25  F018         	goto	l418
  5938   002F90                     l8578:
  5939                           
  5940                           ; BSR set to: 0
  5941   002F90  8A92               	bsf	146,5,c	;volatile
  5942   002F92  EF25  F018         	goto	l418
  5943   002F96                     l8580:
  5944                           
  5945                           ; BSR set to: 0
  5946   002F96  8096               	bsf	150,0,c	;volatile
  5947   002F98  EF25  F018         	goto	l418
  5948   002F9C                     l8582:
  5949                           
  5950                           ; BSR set to: 0
  5951   002F9C  8296               	bsf	150,1,c	;volatile
  5952   002F9E  EF25  F018         	goto	l418
  5953   002FA2                     l8584:
  5954                           
  5955                           ; BSR set to: 0
  5956   002FA2  8496               	bsf	150,2,c	;volatile
  5957   002FA4  EF25  F018         	goto	l418
  5958   002FA8                     l8586:
  5959                           
  5960                           ; BSR set to: 0
  5961   002FA8  8493               	bsf	147,2,c	;volatile
  5962   002FAA  EF25  F018         	goto	l418
  5963   002FAE                     l8588:
  5964                           
  5965                           ; BSR set to: 0
  5966   002FAE  8693               	bsf	147,3,c	;volatile
  5967   002FB0  EF25  F018         	goto	l418
  5968   002FB4                     l8590:
  5969                           
  5970                           ; BSR set to: 0
  5971   002FB4  8293               	bsf	147,1,c	;volatile
  5972   002FB6  EF25  F018         	goto	l418
  5973   002FBA                     l8592:
  5974                           
  5975                           ; BSR set to: 0
  5976   002FBA  8893               	bsf	147,4,c	;volatile
  5977   002FBC  EF25  F018         	goto	l418
  5978   002FC0                     l8594:
  5979                           
  5980                           ; BSR set to: 0
  5981   002FC0  8093               	bsf	147,0,c	;volatile
  5982   002FC2  EF25  F018         	goto	l418
  5983   002FC6                     l8598:
  5984   002FC6  0100               	movlb	0	; () banked
  5985   002FC8  5182               	movf	adc_input_cahnnel_port_configure@channel& (0+255),w,b
  5986   002FCA  6F80               	movwf	??_adc_input_cahnnel_port_configure& (0+255),b
  5987   002FCC  6B81               	clrf	(??_adc_input_cahnnel_port_configure+1)& (0+255),b
  5988                           
  5989                           ; Switch on 2 bytes has been partitioned into a top level switch of size 1, and 1 sub-sw
      +                          itches
  5990                           ; Switch size 1, requested type "simple"
  5991                           ; Number of cases is 1, Range of values is 0 to 0
  5992                           ; switch strategies available:
  5993                           ; Name         Instructions Cycles
  5994                           ; simple_byte            4     3 (average)
  5995                           ;	Chosen strategy is simple_byte
  5996   002FCE  5181               	movf	(??_adc_input_cahnnel_port_configure+1)& (0+255),w,b
  5997   002FD0  0A00               	xorlw	0	; case 0
  5998   002FD2  B4D8               	btfsc	status,2,c
  5999   002FD4  EFEE  F017         	goto	l10480
  6000   002FD8  EF25  F018         	goto	l418
  6001   002FDC                     l10480:
  6002                           
  6003                           ; BSR set to: 0
  6004                           ; Switch size 1, requested type "simple"
  6005                           ; Number of cases is 13, Range of values is 0 to 12
  6006                           ; switch strategies available:
  6007                           ; Name         Instructions Cycles
  6008                           ; simple_byte           40    21 (average)
  6009                           ;	Chosen strategy is simple_byte
  6010   002FDC  5180               	movf	??_adc_input_cahnnel_port_configure& (0+255),w,b
  6011   002FDE  0A00               	xorlw	0	; case 0
  6012   002FE0  B4D8               	btfsc	status,2,c
  6013   002FE2  EFBC  F017         	goto	l8570
  6014   002FE6  0A01               	xorlw	1	; case 1
  6015   002FE8  B4D8               	btfsc	status,2,c
  6016   002FEA  EFBF  F017         	goto	l8572
  6017   002FEE  0A03               	xorlw	3	; case 2
  6018   002FF0  B4D8               	btfsc	status,2,c
  6019   002FF2  EFC2  F017         	goto	l8574
  6020   002FF6  0A01               	xorlw	1	; case 3
  6021   002FF8  B4D8               	btfsc	status,2,c
  6022   002FFA  EFC5  F017         	goto	l8576
  6023   002FFE  0A07               	xorlw	7	; case 4
  6024   003000  B4D8               	btfsc	status,2,c
  6025   003002  EFC8  F017         	goto	l8578
  6026   003006  0A01               	xorlw	1	; case 5
  6027   003008  B4D8               	btfsc	status,2,c
  6028   00300A  EFCB  F017         	goto	l8580
  6029   00300E  0A03               	xorlw	3	; case 6
  6030   003010  B4D8               	btfsc	status,2,c
  6031   003012  EFCE  F017         	goto	l8582
  6032   003016  0A01               	xorlw	1	; case 7
  6033   003018  B4D8               	btfsc	status,2,c
  6034   00301A  EFD1  F017         	goto	l8584
  6035   00301E  0A0F               	xorlw	15	; case 8
  6036   003020  B4D8               	btfsc	status,2,c
  6037   003022  EFD4  F017         	goto	l8586
  6038   003026  0A01               	xorlw	1	; case 9
  6039   003028  B4D8               	btfsc	status,2,c
  6040   00302A  EFD7  F017         	goto	l8588
  6041   00302E  0A03               	xorlw	3	; case 10
  6042   003030  B4D8               	btfsc	status,2,c
  6043   003032  EFDA  F017         	goto	l8590
  6044   003036  0A01               	xorlw	1	; case 11
  6045   003038  B4D8               	btfsc	status,2,c
  6046   00303A  EFDD  F017         	goto	l8592
  6047   00303E  0A07               	xorlw	7	; case 12
  6048   003040  B4D8               	btfsc	status,2,c
  6049   003042  EFE0  F017         	goto	l8594
  6050   003046  EF25  F018         	goto	l418
  6051   00304A                     l418:
  6052                           
  6053                           ; BSR set to: 0
  6054   00304A  0012               	return		;funcret
  6055   00304C                     __end_of_adc_input_cahnnel_port_configure:
  6056                           	callstack 0
  6057                           
  6058 ;; *************** function _adc_configure_voltage_refrence *****************
  6059 ;; Defined at:
  6060 ;;		line 288 in file "MCAL_layer/ADC/mcal_adc.c"
  6061 ;; Parameters:    Size  Location     Type
  6062 ;;  adc_obj         2    0[BANK0 ] PTR const struct .
  6063 ;;		 -> lm35_room2(6), lm35_room1(6), lm35_reseption(6), 
  6064 ;; Auto vars:     Size  Location     Type
  6065 ;;		None
  6066 ;; Return value:  Size  Location     Type
  6067 ;;                  1    wreg      void 
  6068 ;; Registers used:
  6069 ;;		wreg, fsr2l, fsr2h, status,2, status,0
  6070 ;; Tracked objects:
  6071 ;;		On entry : 0/0
  6072 ;;		On exit  : 0/0
  6073 ;;		Unchanged: 0/0
  6074 ;; Data sizes:     COMRAM   BANK0   BANK1   BANK2   BANK3   BANK4   BANK5   BANK6   BANK7   BANK8   BANK9  BANK10  BANK1
      +1  BANK12  BANK13  BANK14  BANK15
  6075 ;;      Params:         0       2       0       0       0       0       0       0       0       0       0       0       
      +0       0       0       0       0
  6076 ;;      Locals:         0       0       0       0       0       0       0       0       0       0       0       0       
      +0       0       0       0       0
  6077 ;;      Temps:          0       0       0       0       0       0       0       0       0       0       0       0       
      +0       0       0       0       0
  6078 ;;      Totals:         0       2       0       0       0       0       0       0       0       0       0       0       
      +0       0       0       0       0
  6079 ;;Total ram usage:        2 bytes
  6080 ;; Hardware stack levels used: 1
  6081 ;; Hardware stack levels required when called: 7
  6082 ;; This function calls:
  6083 ;;		Nothing
  6084 ;; This function is called by:
  6085 ;;		_ADC_Init
  6086 ;; This function uses a non-reentrant model
  6087 ;;
  6088                           
  6089                           	psect	text25
  6090   003CEC                     __ptext25:
  6091                           	callstack 0
  6092   003CEC                     _adc_configure_voltage_refrence:
  6093                           	callstack 19
  6094   003CEC                     
  6095                           ;MCAL_layer/ADC/mcal_adc.c: 289:     if(1 == adc_obj->voltage_reference){
  6096   003CEC  0100               	movlb	0	; () banked
  6097   003CEE  EE20 F005          	lfsr	2,5
  6098   003CF2  5180               	movf	adc_configure_voltage_refrence@adc_obj& (0+255),w,b
  6099   003CF4  26D9               	addwf	fsr2l,f,c
  6100   003CF6  5181               	movf	(adc_configure_voltage_refrence@adc_obj+1)& (0+255),w,b
  6101   003CF8  22DA               	addwfc	fsr2h,f,c
  6102   003CFA  A0DF               	btfss	indf2,0,c
  6103   003CFC  EF82  F01E         	goto	u7351
  6104   003D00  EF84  F01E         	goto	u7350
  6105   003D04                     u7351:
  6106   003D04  EF88  F01E         	goto	l8634
  6107   003D08                     u7350:
  6108   003D08                     
  6109                           ; BSR set to: 0
  6110   003D08  8AC1               	bsf	193,5,c	;volatile
  6111   003D0A  88C1               	bsf	193,4,c	;volatile
  6112   003D0C  EF9B  F01E         	goto	l438
  6113   003D10                     l8634:
  6114                           
  6115                           ; BSR set to: 0
  6116   003D10  EE20 F005          	lfsr	2,5
  6117   003D14  5180               	movf	adc_configure_voltage_refrence@adc_obj& (0+255),w,b
  6118   003D16  26D9               	addwf	fsr2l,f,c
  6119   003D18  5181               	movf	(adc_configure_voltage_refrence@adc_obj+1)& (0+255),w,b
  6120   003D1A  22DA               	addwfc	fsr2h,f,c
  6121   003D1C  B0DF               	btfsc	indf2,0,c
  6122   003D1E  EF93  F01E         	goto	u7361
  6123   003D22  EF95  F01E         	goto	u7360
  6124   003D26                     u7361:
  6125   003D26  EF99  F01E         	goto	l436
  6126   003D2A                     u7360:
  6127   003D2A                     
  6128                           ; BSR set to: 0
  6129   003D2A  9AC1               	bcf	193,5,c	;volatile
  6130   003D2C  98C1               	bcf	193,4,c	;volatile
  6131   003D2E  EF9B  F01E         	goto	l438
  6132   003D32                     l436:
  6133                           
  6134                           ; BSR set to: 0
  6135   003D32  9AC1               	bcf	193,5,c	;volatile
  6136   003D34  98C1               	bcf	193,4,c	;volatile
  6137   003D36                     l438:
  6138                           
  6139                           ; BSR set to: 0
  6140   003D36  0012               	return		;funcret
  6141   003D38                     __end_of_adc_configure_voltage_refrence:
  6142                           	callstack 0
  6143                           
  6144 ;; *************** function _adc_configure_result_format *****************
  6145 ;; Defined at:
  6146 ;;		line 277 in file "MCAL_layer/ADC/mcal_adc.c"
  6147 ;; Parameters:    Size  Location     Type
  6148 ;;  adc_obj         2    0[BANK0 ] PTR const struct .
  6149 ;;		 -> lm35_room2(6), lm35_room1(6), lm35_reseption(6), 
  6150 ;; Auto vars:     Size  Location     Type
  6151 ;;		None
  6152 ;; Return value:  Size  Location     Type
  6153 ;;                  1    wreg      void 
  6154 ;; Registers used:
  6155 ;;		wreg, fsr2l, fsr2h, status,2, status,0
  6156 ;; Tracked objects:
  6157 ;;		On entry : 0/0
  6158 ;;		On exit  : 0/0
  6159 ;;		Unchanged: 0/0
  6160 ;; Data sizes:     COMRAM   BANK0   BANK1   BANK2   BANK3   BANK4   BANK5   BANK6   BANK7   BANK8   BANK9  BANK10  BANK1
      +1  BANK12  BANK13  BANK14  BANK15
  6161 ;;      Params:         0       2       0       0       0       0       0       0       0       0       0       0       
      +0       0       0       0       0
  6162 ;;      Locals:         0       0       0       0       0       0       0       0       0       0       0       0       
      +0       0       0       0       0
  6163 ;;      Temps:          0       0       0       0       0       0       0       0       0       0       0       0       
      +0       0       0       0       0
  6164 ;;      Totals:         0       2       0       0       0       0       0       0       0       0       0       0       
      +0       0       0       0       0
  6165 ;;Total ram usage:        2 bytes
  6166 ;; Hardware stack levels used: 1
  6167 ;; Hardware stack levels required when called: 7
  6168 ;; This function calls:
  6169 ;;		Nothing
  6170 ;; This function is called by:
  6171 ;;		_ADC_Init
  6172 ;; This function uses a non-reentrant model
  6173 ;;
  6174                           
  6175                           	psect	text26
  6176   003DC4                     __ptext26:
  6177                           	callstack 0
  6178   003DC4                     _adc_configure_result_format:
  6179                           	callstack 19
  6180   003DC4                     
  6181                           ;MCAL_layer/ADC/mcal_adc.c: 278:     if(1 == adc_obj->Result_format){
  6182   003DC4  0100               	movlb	0	; () banked
  6183   003DC6  EE20 F005          	lfsr	2,5
  6184   003DCA  5180               	movf	adc_configure_result_format@adc_obj& (0+255),w,b
  6185   003DCC  26D9               	addwf	fsr2l,f,c
  6186   003DCE  5181               	movf	(adc_configure_result_format@adc_obj+1)& (0+255),w,b
  6187   003DD0  22DA               	addwfc	fsr2h,f,c
  6188   003DD2  A2DF               	btfss	indf2,1,c
  6189   003DD4  EFEE  F01E         	goto	u7331
  6190   003DD8  EFF0  F01E         	goto	u7330
  6191   003DDC                     u7331:
  6192   003DDC  EFF3  F01E         	goto	l8628
  6193   003DE0                     u7330:
  6194   003DE0                     
  6195                           ; BSR set to: 0
  6196                           ;MCAL_layer/ADC/mcal_adc.c: 279:             (ADCON2bits.ADFM = 1);
  6197   003DE0  8EC0               	bsf	192,7,c	;volatile
  6198                           
  6199                           ;MCAL_layer/ADC/mcal_adc.c: 280:         }
  6200   003DE2  EF04  F01F         	goto	l425
  6201   003DE6                     l8628:
  6202                           
  6203                           ; BSR set to: 0
  6204   003DE6  EE20 F005          	lfsr	2,5
  6205   003DEA  5180               	movf	adc_configure_result_format@adc_obj& (0+255),w,b
  6206   003DEC  26D9               	addwf	fsr2l,f,c
  6207   003DEE  5181               	movf	(adc_configure_result_format@adc_obj+1)& (0+255),w,b
  6208   003DF0  22DA               	addwfc	fsr2h,f,c
  6209   003DF2  B2DF               	btfsc	indf2,1,c
  6210   003DF4  EFFE  F01E         	goto	u7341
  6211   003DF8  EF00  F01F         	goto	u7340
  6212   003DFC                     u7341:
  6213   003DFC  EF03  F01F         	goto	l423
  6214   003E00                     u7340:
  6215   003E00                     
  6216                           ; BSR set to: 0
  6217                           ;MCAL_layer/ADC/mcal_adc.c: 282:             (ADCON2bits.ADFM = 0);
  6218   003E00  9EC0               	bcf	192,7,c	;volatile
  6219                           
  6220                           ;MCAL_layer/ADC/mcal_adc.c: 283:         }
  6221   003E02  EF04  F01F         	goto	l425
  6222   003E06                     l423:
  6223                           
  6224                           ; BSR set to: 0
  6225                           ;MCAL_layer/ADC/mcal_adc.c: 285:             (ADCON2bits.ADFM = 1);
  6226   003E06  8EC0               	bsf	192,7,c	;volatile
  6227   003E08                     l425:
  6228                           
  6229                           ; BSR set to: 0
  6230   003E08  0012               	return		;funcret
  6231   003E0A                     __end_of_adc_configure_result_format:
  6232                           	callstack 0
  6233                           
  6234 ;; *************** function _Interrupt_ADC_Init *****************
  6235 ;; Defined at:
  6236 ;;		line 301 in file "MCAL_layer/ADC/mcal_adc.c"
  6237 ;; Parameters:    Size  Location     Type
  6238 ;;  adc_obj         2    0[BANK0 ] PTR const struct .
  6239 ;;		 -> lm35_room2(6), lm35_room1(6), lm35_reseption(6), 
  6240 ;; Auto vars:     Size  Location     Type
  6241 ;;  error_state     1    4[BANK0 ] unsigned char 
  6242 ;; Return value:  Size  Location     Type
  6243 ;;                  1    wreg      unsigned char 
  6244 ;; Registers used:
  6245 ;;		wreg, fsr2l, fsr2h, status,2, status,0
  6246 ;; Tracked objects:
  6247 ;;		On entry : 0/0
  6248 ;;		On exit  : 0/0
  6249 ;;		Unchanged: 0/0
  6250 ;; Data sizes:     COMRAM   BANK0   BANK1   BANK2   BANK3   BANK4   BANK5   BANK6   BANK7   BANK8   BANK9  BANK10  BANK1
      +1  BANK12  BANK13  BANK14  BANK15
  6251 ;;      Params:         0       2       0       0       0       0       0       0       0       0       0       0       
      +0       0       0       0       0
  6252 ;;      Locals:         0       1       0       0       0       0       0       0       0       0       0       0       
      +0       0       0       0       0
  6253 ;;      Temps:          0       2       0       0       0       0       0       0       0       0       0       0       
      +0       0       0       0       0
  6254 ;;      Totals:         0       5       0       0       0       0       0       0       0       0       0       0       
      +0       0       0       0       0
  6255 ;;Total ram usage:        5 bytes
  6256 ;; Hardware stack levels used: 1
  6257 ;; Hardware stack levels required when called: 7
  6258 ;; This function calls:
  6259 ;;		Nothing
  6260 ;; This function is called by:
  6261 ;;		_ADC_Init
  6262 ;; This function uses a non-reentrant model
  6263 ;;
  6264                           
  6265                           	psect	text27
  6266   003C42                     __ptext27:
  6267                           	callstack 0
  6268   003C42                     _Interrupt_ADC_Init:
  6269                           	callstack 19
  6270   003C42                     
  6271                           ;MCAL_layer/ADC/mcal_adc.c: 303:     if((((void*)0) == adc_obj) || (((void*)0) == adc_ob
      +                          j->ADC_InterruptHandler)){
  6272   003C42  0100               	movlb	0	; () banked
  6273   003C44  5180               	movf	Interrupt_ADC_Init@adc_obj& (0+255),w,b
  6274   003C46  1181               	iorwf	(Interrupt_ADC_Init@adc_obj+1)& (0+255),w,b
  6275   003C48  B4D8               	btfsc	status,2,c
  6276   003C4A  EF29  F01E         	goto	u7311
  6277   003C4E  EF2B  F01E         	goto	u7310
  6278   003C52                     u7311:
  6279   003C52  EF38  F01E         	goto	l8612
  6280   003C56                     u7310:
  6281   003C56                     
  6282                           ; BSR set to: 0
  6283   003C56  C080  FFD9         	movff	Interrupt_ADC_Init@adc_obj,fsr2l
  6284   003C5A  C081  FFDA         	movff	Interrupt_ADC_Init@adc_obj+1,fsr2h
  6285   003C5E  50DE               	movf	postinc2,w,c
  6286   003C60  10DE               	iorwf	postinc2,w,c
  6287   003C62  A4D8               	btfss	status,2,c
  6288   003C64  EF36  F01E         	goto	u7321
  6289   003C68  EF38  F01E         	goto	u7320
  6290   003C6C                     u7321:
  6291   003C6C  EF3C  F01E         	goto	l441
  6292   003C70                     u7320:
  6293   003C70                     l8612:
  6294                           
  6295                           ; BSR set to: 0
  6296                           ;MCAL_layer/ADC/mcal_adc.c: 304:         error_state = (STD_ReturnType)0x00 ;
  6297   003C70  0E00               	movlw	0
  6298   003C72  6F84               	movwf	Interrupt_ADC_Init@error_state& (0+255),b
  6299                           
  6300                           ;MCAL_layer/ADC/mcal_adc.c: 305:     }
  6301   003C74  EF4B  F01E         	goto	l8620
  6302   003C78                     l441:
  6303                           
  6304                           ; BSR set to: 0
  6305                           ;MCAL_layer/ADC/mcal_adc.c: 308:         (PIE1bits.ADIE = 0);
  6306   003C78  9C9D               	bcf	157,6,c	;volatile
  6307                           
  6308                           ;MCAL_layer/ADC/mcal_adc.c: 310:         (PIR1bits.ADIF =0);
  6309   003C7A  9C9E               	bcf	158,6,c	;volatile
  6310                           
  6311                           ;MCAL_layer/ADC/mcal_adc.c: 329:         (INTCONbits.GIE = 1);
  6312   003C7C  8EF2               	bsf	242,7,c	;volatile
  6313                           
  6314                           ;MCAL_layer/ADC/mcal_adc.c: 330:         (INTCONbits.PEIE = 1);
  6315   003C7E  8CF2               	bsf	242,6,c	;volatile
  6316   003C80                     
  6317                           ; BSR set to: 0
  6318                           ;MCAL_layer/ADC/mcal_adc.c: 333:         ADC_InterruptHandler = adc_obj->ADC_InterruptHa
      +                          ndler ;
  6319   003C80  C080  FFD9         	movff	Interrupt_ADC_Init@adc_obj,fsr2l
  6320   003C84  C081  FFDA         	movff	Interrupt_ADC_Init@adc_obj+1,fsr2h
  6321   003C88  CFDE F06B          	movff	postinc2,_ADC_InterruptHandler
  6322   003C8C  CFDD F06C          	movff	postdec2,_ADC_InterruptHandler+1
  6323   003C90                     
  6324                           ; BSR set to: 0
  6325                           ;MCAL_layer/ADC/mcal_adc.c: 335:         (PIE1bits.ADIE = 1);
  6326   003C90  8C9D               	bsf	157,6,c	;volatile
  6327   003C92                     
  6328                           ; BSR set to: 0
  6329                           ;MCAL_layer/ADC/mcal_adc.c: 336:         error_state= (STD_ReturnType)0x01 ;
  6330   003C92  0E01               	movlw	1
  6331   003C94  6F84               	movwf	Interrupt_ADC_Init@error_state& (0+255),b
  6332   003C96                     l8620:
  6333                           
  6334                           ; BSR set to: 0
  6335                           ;MCAL_layer/ADC/mcal_adc.c: 338:     return error_state ;
  6336   003C96  5184               	movf	Interrupt_ADC_Init@error_state& (0+255),w,b
  6337   003C98                     
  6338                           ; BSR set to: 0
  6339   003C98  0012               	return		;funcret
  6340   003C9A                     __end_of_Interrupt_ADC_Init:
  6341                           	callstack 0
  6342                           
  6343 ;; *************** function _AirConditioner_TempHandler *****************
  6344 ;; Defined at:
  6345 ;;		line 36 in file "application.c"
  6346 ;; Parameters:    Size  Location     Type
  6347 ;;		None
  6348 ;; Auto vars:     Size  Location     Type
  6349 ;;		None
  6350 ;; Return value:  Size  Location     Type
  6351 ;;                  1    wreg      void 
  6352 ;; Registers used:
  6353 ;;		wreg, fsr2l, fsr2h, status,2, status,0, prodl, prodh, cstack
  6354 ;; Tracked objects:
  6355 ;;		On entry : 0/0
  6356 ;;		On exit  : 0/0
  6357 ;;		Unchanged: 0/0
  6358 ;; Data sizes:     COMRAM   BANK0   BANK1   BANK2   BANK3   BANK4   BANK5   BANK6   BANK7   BANK8   BANK9  BANK10  BANK1
      +1  BANK12  BANK13  BANK14  BANK15
  6359 ;;      Params:         0       0       0       0       0       0       0       0       0       0       0       0       
      +0       0       0       0       0
  6360 ;;      Locals:         0       0       0       0       0       0       0       0       0       0       0       0       
      +0       0       0       0       0
  6361 ;;      Temps:          0       2       0       0       0       0       0       0       0       0       0       0       
      +0       0       0       0       0
  6362 ;;      Totals:         0       2       0       0       0       0       0       0       0       0       0       0       
      +0       0       0       0       0
  6363 ;;Total ram usage:        2 bytes
  6364 ;; Hardware stack levels used: 1
  6365 ;; Hardware stack levels required when called: 9
  6366 ;; This function calls:
  6367 ;;		_led_turn_off
  6368 ;;		_led_turn_on
  6369 ;; This function is called by:
  6370 ;;		_main
  6371 ;; This function uses a non-reentrant model
  6372 ;;
  6373                           
  6374                           	psect	text28
  6375   002836                     __ptext28:
  6376                           	callstack 0
  6377   002836                     _AirConditioner_TempHandler:
  6378                           	callstack 21
  6379   002836                     
  6380                           ;application.c: 37:     if(re_ac == 2){
  6381   002836  0E02               	movlw	2
  6382   002838  0100               	movlb	0	; () banked
  6383   00283A  19F2               	xorwf	_re_ac& (0+255),w,b	;volatile
  6384   00283C  A4D8               	btfss	status,2,c
  6385   00283E  EF23  F014         	goto	u8701
  6386   002842  EF25  F014         	goto	u8700
  6387   002846                     u8701:
  6388   002846  EF3F  F014         	goto	l9700
  6389   00284A                     u8700:
  6390   00284A                     
  6391                           ; BSR set to: 0
  6392                           ;application.c: 39:         if(re_ac_temp >= re_temp){
  6393   00284A  51FE               	movf	_re_ac_temp& (0+255),w,b	;volatile
  6394   00284C  6F8B               	movwf	??_AirConditioner_TempHandler& (0+255),b
  6395   00284E  6B8C               	clrf	(??_AirConditioner_TempHandler+1)& (0+255),b
  6396   002850  51FA               	movf	_re_temp& (0+255),w,b	;volatile
  6397   002852  5D8B               	subwf	??_AirConditioner_TempHandler& (0+255),w,b
  6398   002854  51FB               	movf	(_re_temp+1)& (0+255),w,b	;volatile
  6399   002856  598C               	subwfb	(??_AirConditioner_TempHandler+1)& (0+255),w,b
  6400   002858  A0D8               	btfss	status,0,c
  6401   00285A  EF31  F014         	goto	u8711
  6402   00285E  EF33  F014         	goto	u8710
  6403   002862                     u8711:
  6404   002862  EF39  F014         	goto	l9698
  6405   002866                     u8710:
  6406   002866                     l9696:
  6407                           
  6408                           ; BSR set to: 0
  6409                           ;application.c: 40:             led_turn_off(&reseption_AC);
  6410   002866  0EE0               	movlw	low _reseption_AC
  6411   002868  6F88               	movwf	led_turn_off@led& (0+255),b
  6412   00286A  ECFE  F01B         	call	_led_turn_off	;wreg free
  6413                           
  6414                           ;application.c: 41:         }
  6415   00286E  EF53  F014         	goto	l9708
  6416   002872                     l9698:
  6417                           
  6418                           ; BSR set to: 0
  6419                           ;application.c: 43:             led_turn_on(&reseption_AC);
  6420   002872  0EE0               	movlw	low _reseption_AC
  6421   002874  6F88               	movwf	led_turn_on@led& (0+255),b
  6422   002876  ECC2  F01B         	call	_led_turn_on	;wreg free
  6423   00287A  EF53  F014         	goto	l9708
  6424   00287E                     l9700:
  6425                           
  6426                           ; BSR set to: 0
  6427   00287E  05F2               	decf	_re_ac& (0+255),w,b	;volatile
  6428   002880  A4D8               	btfss	status,2,c
  6429   002882  EF45  F014         	goto	u8721
  6430   002886  EF47  F014         	goto	u8720
  6431   00288A                     u8721:
  6432   00288A  EF49  F014         	goto	l9704
  6433   00288E                     u8720:
  6434   00288E  EF39  F014         	goto	l9698
  6435   002892                     l9704:
  6436                           
  6437                           ; BSR set to: 0
  6438   002892  51F2               	movf	_re_ac& (0+255),w,b	;volatile
  6439   002894  A4D8               	btfss	status,2,c
  6440   002896  EF4F  F014         	goto	u8731
  6441   00289A  EF51  F014         	goto	u8730
  6442   00289E                     u8731:
  6443   00289E  EF53  F014         	goto	l9708
  6444   0028A2                     u8730:
  6445   0028A2  EF33  F014         	goto	l9696
  6446   0028A6                     l9708:
  6447                           
  6448                           ;application.c: 52:     if(r1_ac == 2){
  6449   0028A6  0E02               	movlw	2
  6450   0028A8  0100               	movlb	0	; () banked
  6451   0028AA  19F1               	xorwf	_r1_ac& (0+255),w,b	;volatile
  6452   0028AC  A4D8               	btfss	status,2,c
  6453   0028AE  EF5B  F014         	goto	u8741
  6454   0028B2  EF5D  F014         	goto	u8740
  6455   0028B6                     u8741:
  6456   0028B6  EF77  F014         	goto	l9716
  6457   0028BA                     u8740:
  6458   0028BA                     
  6459                           ; BSR set to: 0
  6460                           ;application.c: 54:         if(r1_ac_temp >= r1_temp){
  6461   0028BA  51FD               	movf	_r1_ac_temp& (0+255),w,b	;volatile
  6462   0028BC  6F8B               	movwf	??_AirConditioner_TempHandler& (0+255),b
  6463   0028BE  6B8C               	clrf	(??_AirConditioner_TempHandler+1)& (0+255),b
  6464   0028C0  51F8               	movf	_r1_temp& (0+255),w,b	;volatile
  6465   0028C2  5D8B               	subwf	??_AirConditioner_TempHandler& (0+255),w,b
  6466   0028C4  51F9               	movf	(_r1_temp+1)& (0+255),w,b	;volatile
  6467   0028C6  598C               	subwfb	(??_AirConditioner_TempHandler+1)& (0+255),w,b
  6468   0028C8  A0D8               	btfss	status,0,c
  6469   0028CA  EF69  F014         	goto	u8751
  6470   0028CE  EF6B  F014         	goto	u8750
  6471   0028D2                     u8751:
  6472   0028D2  EF71  F014         	goto	l9714
  6473   0028D6                     u8750:
  6474   0028D6                     l9712:
  6475                           
  6476                           ; BSR set to: 0
  6477                           ;application.c: 55:             led_turn_off(&room_1_AC);
  6478   0028D6  0ED7               	movlw	low _room_1_AC
  6479   0028D8  6F88               	movwf	led_turn_off@led& (0+255),b
  6480   0028DA  ECFE  F01B         	call	_led_turn_off	;wreg free
  6481                           
  6482                           ;application.c: 56:         }
  6483   0028DE  EF8B  F014         	goto	l9724
  6484   0028E2                     l9714:
  6485                           
  6486                           ; BSR set to: 0
  6487                           ;application.c: 58:             led_turn_on(&room_1_AC);
  6488   0028E2  0ED7               	movlw	low _room_1_AC
  6489   0028E4  6F88               	movwf	led_turn_on@led& (0+255),b
  6490   0028E6  ECC2  F01B         	call	_led_turn_on	;wreg free
  6491   0028EA  EF8B  F014         	goto	l9724
  6492   0028EE                     l9716:
  6493                           
  6494                           ; BSR set to: 0
  6495   0028EE  05F1               	decf	_r1_ac& (0+255),w,b	;volatile
  6496   0028F0  A4D8               	btfss	status,2,c
  6497   0028F2  EF7D  F014         	goto	u8761
  6498   0028F6  EF7F  F014         	goto	u8760
  6499   0028FA                     u8761:
  6500   0028FA  EF81  F014         	goto	l9720
  6501   0028FE                     u8760:
  6502   0028FE  EF71  F014         	goto	l9714
  6503   002902                     l9720:
  6504                           
  6505                           ; BSR set to: 0
  6506   002902  51F1               	movf	_r1_ac& (0+255),w,b	;volatile
  6507   002904  A4D8               	btfss	status,2,c
  6508   002906  EF87  F014         	goto	u8771
  6509   00290A  EF89  F014         	goto	u8770
  6510   00290E                     u8771:
  6511   00290E  EF8B  F014         	goto	l9724
  6512   002912                     u8770:
  6513   002912  EF6B  F014         	goto	l9712
  6514   002916                     l9724:
  6515                           
  6516                           ;application.c: 67:     if(r2_ac == 2){
  6517   002916  0E02               	movlw	2
  6518   002918  0100               	movlb	0	; () banked
  6519   00291A  19F0               	xorwf	_r2_ac& (0+255),w,b	;volatile
  6520   00291C  A4D8               	btfss	status,2,c
  6521   00291E  EF93  F014         	goto	u8781
  6522   002922  EF95  F014         	goto	u8780
  6523   002926                     u8781:
  6524   002926  EFAF  F014         	goto	l9732
  6525   00292A                     u8780:
  6526   00292A                     
  6527                           ; BSR set to: 0
  6528                           ;application.c: 69:         if(r2_ac_temp >= r2_temp){
  6529   00292A  51FC               	movf	_r2_ac_temp& (0+255),w,b	;volatile
  6530   00292C  6F8B               	movwf	??_AirConditioner_TempHandler& (0+255),b
  6531   00292E  6B8C               	clrf	(??_AirConditioner_TempHandler+1)& (0+255),b
  6532   002930  51F6               	movf	_r2_temp& (0+255),w,b	;volatile
  6533   002932  5D8B               	subwf	??_AirConditioner_TempHandler& (0+255),w,b
  6534   002934  51F7               	movf	(_r2_temp+1)& (0+255),w,b	;volatile
  6535   002936  598C               	subwfb	(??_AirConditioner_TempHandler+1)& (0+255),w,b
  6536   002938  A0D8               	btfss	status,0,c
  6537   00293A  EFA1  F014         	goto	u8791
  6538   00293E  EFA3  F014         	goto	u8790
  6539   002942                     u8791:
  6540   002942  EFA9  F014         	goto	l9730
  6541   002946                     u8790:
  6542   002946                     l9728:
  6543                           
  6544                           ; BSR set to: 0
  6545                           ;application.c: 70:             led_turn_off(&room_2_AC);
  6546   002946  0ED1               	movlw	low _room_2_AC
  6547   002948  6F88               	movwf	led_turn_off@led& (0+255),b
  6548   00294A  ECFE  F01B         	call	_led_turn_off	;wreg free
  6549                           
  6550                           ;application.c: 71:         }
  6551   00294E  EFC3  F014         	goto	l1667
  6552   002952                     l9730:
  6553                           
  6554                           ; BSR set to: 0
  6555                           ;application.c: 73:             led_turn_on(&room_2_AC);
  6556   002952  0ED1               	movlw	low _room_2_AC
  6557   002954  6F88               	movwf	led_turn_on@led& (0+255),b
  6558   002956  ECC2  F01B         	call	_led_turn_on	;wreg free
  6559   00295A  EFC3  F014         	goto	l1667
  6560   00295E                     l9732:
  6561                           
  6562                           ; BSR set to: 0
  6563   00295E  05F0               	decf	_r2_ac& (0+255),w,b	;volatile
  6564   002960  A4D8               	btfss	status,2,c
  6565   002962  EFB5  F014         	goto	u8801
  6566   002966  EFB7  F014         	goto	u8800
  6567   00296A                     u8801:
  6568   00296A  EFB9  F014         	goto	l9736
  6569   00296E                     u8800:
  6570   00296E  EFA9  F014         	goto	l9730
  6571   002972                     l9736:
  6572                           
  6573                           ; BSR set to: 0
  6574   002972  51F0               	movf	_r2_ac& (0+255),w,b	;volatile
  6575   002974  A4D8               	btfss	status,2,c
  6576   002976  EFBF  F014         	goto	u8811
  6577   00297A  EFC1  F014         	goto	u8810
  6578   00297E                     u8811:
  6579   00297E  EFC3  F014         	goto	l1667
  6580   002982                     u8810:
  6581   002982  EFA3  F014         	goto	l9728
  6582   002986                     l1667:
  6583   002986  0012               	return		;funcret
  6584   002988                     __end_of_AirConditioner_TempHandler:
  6585                           	callstack 0
  6586                           
  6587 ;; *************** function _led_turn_on *****************
  6588 ;; Defined at:
  6589 ;;		line 39 in file "ECU_layer/LED/ecu_led.c"
  6590 ;; Parameters:    Size  Location     Type
  6591 ;;  led             1    8[BANK0 ] PTR const struct .
  6592 ;;		 -> room_2_AC(3), room_2_light(3), room_1_AC(3), room_1_light(3), 
  6593 ;;		 -> reseption_TV(3), reseption_AC(3), reseption_light(3), 
  6594 ;; Auto vars:     Size  Location     Type
  6595 ;;  pin_obj         1   10[BANK0 ] struct .
  6596 ;;  error_state     1    0        unsigned char 
  6597 ;; Return value:  Size  Location     Type
  6598 ;;                  1    wreg      unsigned char 
  6599 ;; Registers used:
  6600 ;;		wreg, fsr2l, fsr2h, status,2, status,0, prodl, prodh, cstack
  6601 ;; Tracked objects:
  6602 ;;		On entry : 0/0
  6603 ;;		On exit  : 0/0
  6604 ;;		Unchanged: 0/0
  6605 ;; Data sizes:     COMRAM   BANK0   BANK1   BANK2   BANK3   BANK4   BANK5   BANK6   BANK7   BANK8   BANK9  BANK10  BANK1
      +1  BANK12  BANK13  BANK14  BANK15
  6606 ;;      Params:         0       1       0       0       0       0       0       0       0       0       0       0       
      +0       0       0       0       0
  6607 ;;      Locals:         0       1       0       0       0       0       0       0       0       0       0       0       
      +0       0       0       0       0
  6608 ;;      Temps:          0       1       0       0       0       0       0       0       0       0       0       0       
      +0       0       0       0       0
  6609 ;;      Totals:         0       3       0       0       0       0       0       0       0       0       0       0       
      +0       0       0       0       0
  6610 ;;Total ram usage:        3 bytes
  6611 ;; Hardware stack levels used: 1
  6612 ;; Hardware stack levels required when called: 8
  6613 ;; This function calls:
  6614 ;;		_gpio_pin_write_logic
  6615 ;; This function is called by:
  6616 ;;		_AirConditioner_TempHandler
  6617 ;; This function uses a non-reentrant model
  6618 ;;
  6619                           
  6620                           	psect	text29
  6621   003784                     __ptext29:
  6622                           	callstack 0
  6623   003784                     _led_turn_on:
  6624                           	callstack 21
  6625   003784                     
  6626                           ;ECU_layer/LED/ecu_led.c: 42:     if(((void*)0) == led){
  6627   003784  0100               	movlb	0	; () banked
  6628   003786  5188               	movf	led_turn_on@led& (0+255),w,b
  6629   003788  A4D8               	btfss	status,2,c
  6630   00378A  EFC9  F01B         	goto	u8601
  6631   00378E  EFCB  F01B         	goto	u8600
  6632   003792                     u8601:
  6633   003792  EFCD  F01B         	goto	l234
  6634   003796                     u8600:
  6635   003796                     
  6636                           ; BSR set to: 0
  6637                           ;ECU_layer/LED/ecu_led.c: 44:     }
  6638   003796  EFFD  F01B         	goto	l238
  6639   00379A                     l234:
  6640                           
  6641                           ; BSR set to: 0
  6642                           ;ECU_layer/LED/ecu_led.c: 46:         pin_config_t pin_obj = {
  6643   00379A  C0F4  F08A         	movff	led_turn_on@F3063,led_turn_on@pin_obj
  6644   00379E                     
  6645                           ; BSR set to: 0
  6646   00379E  5188               	movf	led_turn_on@led& (0+255),w,b
  6647   0037A0  6ED9               	movwf	fsr2l,c
  6648   0037A2  6ADA               	clrf	fsr2h,c
  6649   0037A4  50DF               	movf	indf2,w,c
  6650   0037A6  6F89               	movwf	??_led_turn_on& (0+255),b
  6651   0037A8  518A               	movf	led_turn_on@pin_obj& (0+255),w,b
  6652   0037AA  1989               	xorwf	??_led_turn_on& (0+255),w,b
  6653   0037AC  0BF8               	andlw	-8
  6654   0037AE  1989               	xorwf	??_led_turn_on& (0+255),w,b
  6655   0037B0  6F8A               	movwf	led_turn_on@pin_obj& (0+255),b
  6656   0037B2  5188               	movf	led_turn_on@led& (0+255),w,b
  6657   0037B4  6ED9               	movwf	fsr2l,c
  6658   0037B6  6ADA               	clrf	fsr2h,c
  6659   0037B8  0E01               	movlw	1
  6660   0037BA  26D9               	addwf	fsr2l,f,c
  6661   0037BC  50DF               	movf	indf2,w,c
  6662   0037BE  6F89               	movwf	??_led_turn_on& (0+255),b
  6663   0037C0  4789               	rlncf	??_led_turn_on& (0+255),f,b
  6664   0037C2  4789               	rlncf	??_led_turn_on& (0+255),f,b
  6665   0037C4  4789               	rlncf	??_led_turn_on& (0+255),f,b
  6666   0037C6  518A               	movf	led_turn_on@pin_obj& (0+255),w,b
  6667   0037C8  1989               	xorwf	??_led_turn_on& (0+255),w,b
  6668   0037CA  0BC7               	andlw	-57
  6669   0037CC  1989               	xorwf	??_led_turn_on& (0+255),w,b
  6670   0037CE  6F8A               	movwf	led_turn_on@pin_obj& (0+255),b
  6671   0037D0                     
  6672                           ; BSR set to: 0
  6673   0037D0  9D8A               	bcf	led_turn_on@pin_obj& (0+255),6,b
  6674   0037D2  5188               	movf	led_turn_on@led& (0+255),w,b
  6675   0037D4  6ED9               	movwf	fsr2l,c
  6676   0037D6  6ADA               	clrf	fsr2h,c
  6677   0037D8  0E02               	movlw	2
  6678   0037DA  26D9               	addwf	fsr2l,f,c
  6679   0037DC  50DF               	movf	indf2,w,c
  6680   0037DE  6F89               	movwf	??_led_turn_on& (0+255),b
  6681   0037E0  3389               	rrcf	??_led_turn_on& (0+255),f,b
  6682   0037E2  3389               	rrcf	??_led_turn_on& (0+255),f,b
  6683   0037E4  518A               	movf	led_turn_on@pin_obj& (0+255),w,b
  6684   0037E6  1989               	xorwf	??_led_turn_on& (0+255),w,b
  6685   0037E8  0B7F               	andlw	-129
  6686   0037EA  1989               	xorwf	??_led_turn_on& (0+255),w,b
  6687   0037EC  6F8A               	movwf	led_turn_on@pin_obj& (0+255),b
  6688   0037EE                     
  6689                           ; BSR set to: 0
  6690   0037EE  0E8A               	movlw	low led_turn_on@pin_obj
  6691   0037F0  6F80               	movwf	gpio_pin_write_logic@_pin_config& (0+255),b
  6692   0037F2  0E01               	movlw	1
  6693   0037F4  6F81               	movwf	gpio_pin_write_logic@logic& (0+255),b
  6694   0037F6  ECC5  F016         	call	_gpio_pin_write_logic	;wreg free
  6695   0037FA                     l238:
  6696   0037FA  0012               	return		;funcret
  6697   0037FC                     __end_of_led_turn_on:
  6698                           	callstack 0
  6699                           
  6700 ;; *************** function _led_turn_off *****************
  6701 ;; Defined at:
  6702 ;;		line 63 in file "ECU_layer/LED/ecu_led.c"
  6703 ;; Parameters:    Size  Location     Type
  6704 ;;  led             1    8[BANK0 ] PTR const struct .
  6705 ;;		 -> room_2_AC(3), room_2_light(3), room_1_AC(3), room_1_light(3), 
  6706 ;;		 -> reseption_TV(3), reseption_AC(3), reseption_light(3), 
  6707 ;; Auto vars:     Size  Location     Type
  6708 ;;  pin_obj         1   10[BANK0 ] struct .
  6709 ;;  error_state     1    0        unsigned char 
  6710 ;; Return value:  Size  Location     Type
  6711 ;;                  1    wreg      unsigned char 
  6712 ;; Registers used:
  6713 ;;		wreg, fsr2l, fsr2h, status,2, status,0, prodl, prodh, cstack
  6714 ;; Tracked objects:
  6715 ;;		On entry : 0/0
  6716 ;;		On exit  : 0/0
  6717 ;;		Unchanged: 0/0
  6718 ;; Data sizes:     COMRAM   BANK0   BANK1   BANK2   BANK3   BANK4   BANK5   BANK6   BANK7   BANK8   BANK9  BANK10  BANK1
      +1  BANK12  BANK13  BANK14  BANK15
  6719 ;;      Params:         0       1       0       0       0       0       0       0       0       0       0       0       
      +0       0       0       0       0
  6720 ;;      Locals:         0       1       0       0       0       0       0       0       0       0       0       0       
      +0       0       0       0       0
  6721 ;;      Temps:          0       1       0       0       0       0       0       0       0       0       0       0       
      +0       0       0       0       0
  6722 ;;      Totals:         0       3       0       0       0       0       0       0       0       0       0       0       
      +0       0       0       0       0
  6723 ;;Total ram usage:        3 bytes
  6724 ;; Hardware stack levels used: 1
  6725 ;; Hardware stack levels required when called: 8
  6726 ;; This function calls:
  6727 ;;		_gpio_pin_write_logic
  6728 ;; This function is called by:
  6729 ;;		_AirConditioner_TempHandler
  6730 ;; This function uses a non-reentrant model
  6731 ;;
  6732                           
  6733                           	psect	text30
  6734   0037FC                     __ptext30:
  6735                           	callstack 0
  6736   0037FC                     _led_turn_off:
  6737                           	callstack 21
  6738   0037FC                     
  6739                           ;ECU_layer/LED/ecu_led.c: 65:     if(((void*)0) == led){
  6740   0037FC  0100               	movlb	0	; () banked
  6741   0037FE  5188               	movf	led_turn_off@led& (0+255),w,b
  6742   003800  A4D8               	btfss	status,2,c
  6743   003802  EF05  F01C         	goto	u8611
  6744   003806  EF07  F01C         	goto	u8610
  6745   00380A                     u8611:
  6746   00380A  EF09  F01C         	goto	l241
  6747   00380E                     u8610:
  6748   00380E                     
  6749                           ; BSR set to: 0
  6750                           ;ECU_layer/LED/ecu_led.c: 67:     }
  6751   00380E  EF39  F01C         	goto	l245
  6752   003812                     l241:
  6753                           
  6754                           ; BSR set to: 0
  6755                           ;ECU_layer/LED/ecu_led.c: 69:         pin_config_t pin_obj = {
  6756   003812  C0F3  F08A         	movff	led_turn_off@F3068,led_turn_off@pin_obj
  6757   003816                     
  6758                           ; BSR set to: 0
  6759   003816  5188               	movf	led_turn_off@led& (0+255),w,b
  6760   003818  6ED9               	movwf	fsr2l,c
  6761   00381A  6ADA               	clrf	fsr2h,c
  6762   00381C  50DF               	movf	indf2,w,c
  6763   00381E  6F89               	movwf	??_led_turn_off& (0+255),b
  6764   003820  518A               	movf	led_turn_off@pin_obj& (0+255),w,b
  6765   003822  1989               	xorwf	??_led_turn_off& (0+255),w,b
  6766   003824  0BF8               	andlw	-8
  6767   003826  1989               	xorwf	??_led_turn_off& (0+255),w,b
  6768   003828  6F8A               	movwf	led_turn_off@pin_obj& (0+255),b
  6769   00382A  5188               	movf	led_turn_off@led& (0+255),w,b
  6770   00382C  6ED9               	movwf	fsr2l,c
  6771   00382E  6ADA               	clrf	fsr2h,c
  6772   003830  0E01               	movlw	1
  6773   003832  26D9               	addwf	fsr2l,f,c
  6774   003834  50DF               	movf	indf2,w,c
  6775   003836  6F89               	movwf	??_led_turn_off& (0+255),b
  6776   003838  4789               	rlncf	??_led_turn_off& (0+255),f,b
  6777   00383A  4789               	rlncf	??_led_turn_off& (0+255),f,b
  6778   00383C  4789               	rlncf	??_led_turn_off& (0+255),f,b
  6779   00383E  518A               	movf	led_turn_off@pin_obj& (0+255),w,b
  6780   003840  1989               	xorwf	??_led_turn_off& (0+255),w,b
  6781   003842  0BC7               	andlw	-57
  6782   003844  1989               	xorwf	??_led_turn_off& (0+255),w,b
  6783   003846  6F8A               	movwf	led_turn_off@pin_obj& (0+255),b
  6784   003848                     
  6785                           ; BSR set to: 0
  6786   003848  9D8A               	bcf	led_turn_off@pin_obj& (0+255),6,b
  6787   00384A  5188               	movf	led_turn_off@led& (0+255),w,b
  6788   00384C  6ED9               	movwf	fsr2l,c
  6789   00384E  6ADA               	clrf	fsr2h,c
  6790   003850  0E02               	movlw	2
  6791   003852  26D9               	addwf	fsr2l,f,c
  6792   003854  50DF               	movf	indf2,w,c
  6793   003856  6F89               	movwf	??_led_turn_off& (0+255),b
  6794   003858  3389               	rrcf	??_led_turn_off& (0+255),f,b
  6795   00385A  3389               	rrcf	??_led_turn_off& (0+255),f,b
  6796   00385C  518A               	movf	led_turn_off@pin_obj& (0+255),w,b
  6797   00385E  1989               	xorwf	??_led_turn_off& (0+255),w,b
  6798   003860  0B7F               	andlw	-129
  6799   003862  1989               	xorwf	??_led_turn_off& (0+255),w,b
  6800   003864  6F8A               	movwf	led_turn_off@pin_obj& (0+255),b
  6801   003866                     
  6802                           ; BSR set to: 0
  6803   003866  0E8A               	movlw	low led_turn_off@pin_obj
  6804   003868  6F80               	movwf	gpio_pin_write_logic@_pin_config& (0+255),b
  6805   00386A  0E00               	movlw	0
  6806   00386C  6F81               	movwf	gpio_pin_write_logic@logic& (0+255),b
  6807   00386E  ECC5  F016         	call	_gpio_pin_write_logic	;wreg free
  6808   003872                     l245:
  6809   003872  0012               	return		;funcret
  6810   003874                     __end_of_led_turn_off:
  6811                           	callstack 0
  6812                           
  6813 ;; *************** function _gpio_pin_write_logic *****************
  6814 ;; Defined at:
  6815 ;;		line 75 in file "MCAL_layer/GPIO/mcal_gpio.c"
  6816 ;; Parameters:    Size  Location     Type
  6817 ;;  _pin_config     1    0[BANK0 ] PTR const struct .
  6818 ;;		 -> CCP1_PIN_PWM_MODE(1), led_turn_off@pin_obj(1), led_turn_on@pin_obj(1), led_initialize@pin_obj(1), 
  6819 ;;  logic           1    1[BANK0 ] enum E2978
  6820 ;; Auto vars:     Size  Location     Type
  6821 ;;  error_state     1    7[BANK0 ] unsigned char 
  6822 ;; Return value:  Size  Location     Type
  6823 ;;                  1    wreg      unsigned char 
  6824 ;; Registers used:
  6825 ;;		wreg, fsr2l, fsr2h, status,2, status,0, prodl, prodh
  6826 ;; Tracked objects:
  6827 ;;		On entry : 0/0
  6828 ;;		On exit  : 0/0
  6829 ;;		Unchanged: 0/0
  6830 ;; Data sizes:     COMRAM   BANK0   BANK1   BANK2   BANK3   BANK4   BANK5   BANK6   BANK7   BANK8   BANK9  BANK10  BANK1
      +1  BANK12  BANK13  BANK14  BANK15
  6831 ;;      Params:         0       2       0       0       0       0       0       0       0       0       0       0       
      +0       0       0       0       0
  6832 ;;      Locals:         0       1       0       0       0       0       0       0       0       0       0       0       
      +0       0       0       0       0
  6833 ;;      Temps:          0       5       0       0       0       0       0       0       0       0       0       0       
      +0       0       0       0       0
  6834 ;;      Totals:         0       8       0       0       0       0       0       0       0       0       0       0       
      +0       0       0       0       0
  6835 ;;Total ram usage:        8 bytes
  6836 ;; Hardware stack levels used: 1
  6837 ;; Hardware stack levels required when called: 7
  6838 ;; This function calls:
  6839 ;;		Nothing
  6840 ;; This function is called by:
  6841 ;;		_led_turn_on
  6842 ;;		_led_turn_off
  6843 ;;		_gpio_pin_init
  6844 ;;		_chr_lcd_4bit_send_command
  6845 ;;		_chr_lcd_4bit_send_char_data
  6846 ;;		_chr_lcd_8bit_send_command
  6847 ;;		_chr_lcd_8bit_send_char_data
  6848 ;;		_lcd_send_4bits
  6849 ;;		_lcd_4bit_send_enable_signal
  6850 ;;		_lcd_send_8bits
  6851 ;;		_lcd_8bit_send_enable_signal
  6852 ;;		_key_pad_get_value
  6853 ;; This function uses a non-reentrant model
  6854 ;;
  6855                           
  6856                           	psect	text31
  6857   002D8A                     __ptext31:
  6858                           	callstack 0
  6859   002D8A                     _gpio_pin_write_logic:
  6860                           	callstack 19
  6861   002D8A                     
  6862                           ;MCAL_layer/GPIO/mcal_gpio.c: 76:     STD_ReturnType error_state = (STD_ReturnType)0x01 
      +                          ;
  6863   002D8A  0E01               	movlw	1
  6864   002D8C  0100               	movlb	0	; () banked
  6865   002D8E  6F87               	movwf	gpio_pin_write_logic@error_state& (0+255),b
  6866                           
  6867                           ;MCAL_layer/GPIO/mcal_gpio.c: 77:     if(((void*)0) == _pin_config ){
  6868   002D90  5180               	movf	gpio_pin_write_logic@_pin_config& (0+255),w,b
  6869   002D92  A4D8               	btfss	status,2,c
  6870   002D94  EFCE  F016         	goto	u7241
  6871   002D98  EFD0  F016         	goto	u7240
  6872   002D9C                     u7241:
  6873   002D9C  EF29  F017         	goto	l8542
  6874   002DA0                     u7240:
  6875   002DA0                     l8534:
  6876                           
  6877                           ; BSR set to: 0
  6878                           ;MCAL_layer/GPIO/mcal_gpio.c: 78:         error_state = (STD_ReturnType)0x00 ;
  6879   002DA0  0E00               	movlw	0
  6880   002DA2  6F87               	movwf	gpio_pin_write_logic@error_state& (0+255),b
  6881                           
  6882                           ;MCAL_layer/GPIO/mcal_gpio.c: 79:     }
  6883   002DA4  EF3E  F017         	goto	l8544
  6884   002DA8                     l8536:
  6885                           
  6886                           ; BSR set to: 0
  6887                           ;MCAL_layer/GPIO/mcal_gpio.c: 83:                 (*lat_regs[_pin_config->port] &=~((uin
      +                          t8)1<<_pin_config->pin)) ;
  6888   002DA8  5180               	movf	gpio_pin_write_logic@_pin_config& (0+255),w,b
  6889   002DAA  6ED9               	movwf	fsr2l,c
  6890   002DAC  6ADA               	clrf	fsr2h,c
  6891   002DAE  30DF               	rrcf	223,w,c
  6892   002DB0  32E8               	rrcf	wreg,f,c
  6893   002DB2  32E8               	rrcf	wreg,f,c
  6894   002DB4  0B07               	andlw	7
  6895   002DB6  6F82               	movwf	??_gpio_pin_write_logic& (0+255),b
  6896   002DB8  0E01               	movlw	1
  6897   002DBA  6F83               	movwf	(??_gpio_pin_write_logic+1)& (0+255),b
  6898   002DBC  2B82               	incf	??_gpio_pin_write_logic& (0+255),f,b
  6899   002DBE  EFE3  F016         	goto	u7254
  6900   002DC2                     u7255:
  6901   002DC2  90D8               	bcf	status,0,c
  6902   002DC4  3783               	rlcf	(??_gpio_pin_write_logic+1)& (0+255),f,b
  6903   002DC6                     u7254:
  6904   002DC6  2F82               	decfsz	??_gpio_pin_write_logic& (0+255),f,b
  6905   002DC8  EFE1  F016         	goto	u7255
  6906   002DCC  0100               	movlb	0	; () banked
  6907   002DCE  5183               	movf	(??_gpio_pin_write_logic+1)& (0+255),w,b
  6908   002DD0  0AFF               	xorlw	255
  6909   002DD2  6F84               	movwf	(??_gpio_pin_write_logic+2)& (0+255),b
  6910   002DD4  5180               	movf	gpio_pin_write_logic@_pin_config& (0+255),w,b
  6911   002DD6  6ED9               	movwf	fsr2l,c
  6912   002DD8  6ADA               	clrf	fsr2h,c
  6913   002DDA  50DF               	movf	223,w,c
  6914   002DDC  0B07               	andlw	7
  6915   002DDE  0D02               	mullw	2
  6916   002DE0  50F3               	movf	243,w,c
  6917   002DE2  0FBD               	addlw	low _lat_regs
  6918   002DE4  6ED9               	movwf	fsr2l,c
  6919   002DE6  6ADA               	clrf	fsr2h,c
  6920   002DE8  CFDE F085          	movff	postinc2,??_gpio_pin_write_logic+3
  6921   002DEC  CFDD F086          	movff	postdec2,??_gpio_pin_write_logic+4
  6922   002DF0  C085  FFD9         	movff	??_gpio_pin_write_logic+3,fsr2l
  6923   002DF4  C086  FFDA         	movff	??_gpio_pin_write_logic+4,fsr2h
  6924   002DF8  5184               	movf	(??_gpio_pin_write_logic+2)& (0+255),w,b
  6925   002DFA  16DF               	andwf	indf2,f,c
  6926                           
  6927                           ;MCAL_layer/GPIO/mcal_gpio.c: 84:                 break ;
  6928   002DFC  EF3E  F017         	goto	l8544
  6929   002E00                     l8538:
  6930                           
  6931                           ; BSR set to: 0
  6932                           ;MCAL_layer/GPIO/mcal_gpio.c: 86:                 (*lat_regs[_pin_config->port] |= ((uin
      +                          t8)1<<_pin_config->pin)) ;
  6933   002E00  5180               	movf	gpio_pin_write_logic@_pin_config& (0+255),w,b
  6934   002E02  6ED9               	movwf	fsr2l,c
  6935   002E04  6ADA               	clrf	fsr2h,c
  6936   002E06  30DF               	rrcf	223,w,c
  6937   002E08  32E8               	rrcf	wreg,f,c
  6938   002E0A  32E8               	rrcf	wreg,f,c
  6939   002E0C  0B07               	andlw	7
  6940   002E0E  6F82               	movwf	??_gpio_pin_write_logic& (0+255),b
  6941   002E10  0E01               	movlw	1
  6942   002E12  6F83               	movwf	(??_gpio_pin_write_logic+1)& (0+255),b
  6943   002E14  2B82               	incf	??_gpio_pin_write_logic& (0+255),f,b
  6944   002E16  EF0F  F017         	goto	u7264
  6945   002E1A                     u7265:
  6946   002E1A  90D8               	bcf	status,0,c
  6947   002E1C  3783               	rlcf	(??_gpio_pin_write_logic+1)& (0+255),f,b
  6948   002E1E                     u7264:
  6949   002E1E  2F82               	decfsz	??_gpio_pin_write_logic& (0+255),f,b
  6950   002E20  EF0D  F017         	goto	u7265
  6951   002E24  0100               	movlb	0	; () banked
  6952   002E26  5180               	movf	gpio_pin_write_logic@_pin_config& (0+255),w,b
  6953   002E28  6ED9               	movwf	fsr2l,c
  6954   002E2A  6ADA               	clrf	fsr2h,c
  6955   002E2C  50DF               	movf	223,w,c
  6956   002E2E  0B07               	andlw	7
  6957   002E30  0D02               	mullw	2
  6958   002E32  50F3               	movf	243,w,c
  6959   002E34  0FBD               	addlw	low _lat_regs
  6960   002E36  6ED9               	movwf	fsr2l,c
  6961   002E38  6ADA               	clrf	fsr2h,c
  6962   002E3A  CFDE F084          	movff	postinc2,??_gpio_pin_write_logic+2
  6963   002E3E  CFDD F085          	movff	postdec2,??_gpio_pin_write_logic+3
  6964   002E42  C084  FFD9         	movff	??_gpio_pin_write_logic+2,fsr2l
  6965   002E46  C085  FFDA         	movff	??_gpio_pin_write_logic+3,fsr2h
  6966   002E4A  5183               	movf	(??_gpio_pin_write_logic+1)& (0+255),w,b
  6967   002E4C  12DF               	iorwf	indf2,f,c
  6968                           
  6969                           ;MCAL_layer/GPIO/mcal_gpio.c: 87:                 break ;
  6970   002E4E  EF3E  F017         	goto	l8544
  6971   002E52                     l8542:
  6972                           
  6973                           ; BSR set to: 0
  6974   002E52  5181               	movf	gpio_pin_write_logic@logic& (0+255),w,b
  6975   002E54  6F82               	movwf	??_gpio_pin_write_logic& (0+255),b
  6976   002E56  6B83               	clrf	(??_gpio_pin_write_logic+1)& (0+255),b
  6977                           
  6978                           ; Switch on 2 bytes has been partitioned into a top level switch of size 1, and 1 sub-sw
      +                          itches
  6979                           ; Switch size 1, requested type "simple"
  6980                           ; Number of cases is 1, Range of values is 0 to 0
  6981                           ; switch strategies available:
  6982                           ; Name         Instructions Cycles
  6983                           ; simple_byte            4     3 (average)
  6984                           ;	Chosen strategy is simple_byte
  6985   002E58  5183               	movf	(??_gpio_pin_write_logic+1)& (0+255),w,b
  6986   002E5A  0A00               	xorlw	0	; case 0
  6987   002E5C  B4D8               	btfsc	status,2,c
  6988   002E5E  EF33  F017         	goto	l10482
  6989   002E62  EFD0  F016         	goto	l8534
  6990   002E66                     l10482:
  6991                           
  6992                           ; BSR set to: 0
  6993                           ; Switch size 1, requested type "simple"
  6994                           ; Number of cases is 2, Range of values is 0 to 1
  6995                           ; switch strategies available:
  6996                           ; Name         Instructions Cycles
  6997                           ; simple_byte            7     4 (average)
  6998                           ;	Chosen strategy is simple_byte
  6999   002E66  5182               	movf	??_gpio_pin_write_logic& (0+255),w,b
  7000   002E68  0A00               	xorlw	0	; case 0
  7001   002E6A  B4D8               	btfsc	status,2,c
  7002   002E6C  EFD4  F016         	goto	l8536
  7003   002E70  0A01               	xorlw	1	; case 1
  7004   002E72  B4D8               	btfsc	status,2,c
  7005   002E74  EF00  F017         	goto	l8538
  7006   002E78  EFD0  F016         	goto	l8534
  7007   002E7C                     l8544:
  7008                           
  7009                           ; BSR set to: 0
  7010                           ;MCAL_layer/GPIO/mcal_gpio.c: 91:     return error_state ;
  7011   002E7C  5187               	movf	gpio_pin_write_logic@error_state& (0+255),w,b
  7012   002E7E                     
  7013                           ; BSR set to: 0
  7014   002E7E  0012               	return		;funcret
  7015   002E80                     __end_of_gpio_pin_write_logic:
  7016                           	callstack 0
  7017                           
  7018 ;; *************** function _InterruptManager *****************
  7019 ;; Defined at:
  7020 ;;		line 24 in file "MCAL_layer/INTERRUPT/mcall_interrupt_manager.c"
  7021 ;; Parameters:    Size  Location     Type
  7022 ;;		None
  7023 ;; Auto vars:     Size  Location     Type
  7024 ;;		None
  7025 ;; Return value:  Size  Location     Type
  7026 ;;                  1    wreg      void 
  7027 ;; Registers used:
  7028 ;;		wreg, fsr2l, fsr2h, status,2, status,0, pcl, pclath, pclatu, tosl, prodl, prodh, cstack
  7029 ;; Tracked objects:
  7030 ;;		On entry : 0/0
  7031 ;;		On exit  : 0/0
  7032 ;;		Unchanged: 0/0
  7033 ;; Data sizes:     COMRAM   BANK0   BANK1   BANK2   BANK3   BANK4   BANK5   BANK6   BANK7   BANK8   BANK9  BANK10  BANK1
      +1  BANK12  BANK13  BANK14  BANK15
  7034 ;;      Params:         0       0       0       0       0       0       0       0       0       0       0       0       
      +0       0       0       0       0
  7035 ;;      Locals:         0       0       0       0       0       0       0       0       0       0       0       0       
      +0       0       0       0       0
  7036 ;;      Temps:          6       0       0       0       0       0       0       0       0       0       0       0       
      +0       0       0       0       0
  7037 ;;      Totals:         6       0       0       0       0       0       0       0       0       0       0       0       
      +0       0       0       0       0
  7038 ;;Total ram usage:        6 bytes
  7039 ;; Hardware stack levels used: 1
  7040 ;; Hardware stack levels required when called: 6
  7041 ;; This function calls:
  7042 ;;		_ADC_ISR
  7043 ;;		_EUSART_ASYNC_RX_ISR
  7044 ;;		_EUSART_ASYNC_TX_ISR
  7045 ;;		_TIMER0_ISR
  7046 ;; This function is called by:
  7047 ;;		Interrupt level 2
  7048 ;; This function uses a non-reentrant model
  7049 ;;
  7050                           
  7051                           	psect	intcode
  7052   000008                     __pintcode:
  7053                           	callstack 0
  7054   000008                     _InterruptManager:
  7055                           	callstack 19
  7056                           
  7057                           ; BSR set to: 0
  7058                           ;incstack = 0
  7059   000008  8277               	bsf	int$flags,1,c	;set compiler interrupt flag (level 2)
  7060   00000A  ED81  F01A         	call	int_func,f	;refresh shadow registers
  7061                           
  7062                           	psect	intcode_body
  7063   003502                     __pintcode_body:
  7064                           	callstack 19
  7065   003502                     int_func:
  7066                           	callstack 19
  7067   003502  0006               	pop		; remove dummy address from shadow register refresh
  7068   003504  CFFA F037          	movff	pclath,??_InterruptManager
  7069   003508  CFFB F038          	movff	pclatu,??_InterruptManager+1
  7070   00350C  CFD9 F039          	movff	fsr2l,??_InterruptManager+2
  7071   003510  CFDA F03A          	movff	fsr2h,??_InterruptManager+3
  7072   003514  CFF3 F03B          	movff	prodl,??_InterruptManager+4
  7073   003518  CFF4 F03C          	movff	prodh,??_InterruptManager+5
  7074   00351C                     
  7075                           ;MCAL_layer/INTERRUPT/mcall_interrupt_manager.c: 27:     if((1 == INTCONbits.TMR0IE) && 
      +                          (1 == INTCONbits.TMR0IF)){
  7076   00351C  AAF2               	btfss	242,5,c	;volatile
  7077   00351E  EF93  F01A         	goto	i2u924_41
  7078   003522  EF95  F01A         	goto	i2u924_40
  7079   003526                     i2u924_41:
  7080   003526  EF9E  F01A         	goto	i2l988
  7081   00352A                     i2u924_40:
  7082   00352A  A4F2               	btfss	242,2,c	;volatile
  7083   00352C  EF9A  F01A         	goto	i2u925_41
  7084   003530  EF9C  F01A         	goto	i2u925_40
  7085   003534                     i2u925_41:
  7086   003534  EF9E  F01A         	goto	i2l988
  7087   003538                     i2u925_40:
  7088   003538                     
  7089                           ;MCAL_layer/INTERRUPT/mcall_interrupt_manager.c: 28:         TIMER0_ISR();
  7090   003538  EC67  F01F         	call	_TIMER0_ISR	;wreg free
  7091   00353C                     i2l988:
  7092                           
  7093                           ;MCAL_layer/INTERRUPT/mcall_interrupt_manager.c: 36:     if((1 == PIE1bits.ADIE ) && (1 
      +                          == PIR1bits.ADIF)){
  7094   00353C  AC9D               	btfss	157,6,c	;volatile
  7095   00353E  EFA3  F01A         	goto	i2u926_41
  7096   003542  EFA5  F01A         	goto	i2u926_40
  7097   003546                     i2u926_41:
  7098   003546  EFAE  F01A         	goto	i2l990
  7099   00354A                     i2u926_40:
  7100   00354A  AC9E               	btfss	158,6,c	;volatile
  7101   00354C  EFAA  F01A         	goto	i2u927_41
  7102   003550  EFAC  F01A         	goto	i2u927_40
  7103   003554                     i2u927_41:
  7104   003554  EFAE  F01A         	goto	i2l990
  7105   003558                     i2u927_40:
  7106   003558                     
  7107                           ;MCAL_layer/INTERRUPT/mcall_interrupt_manager.c: 37:         ADC_ISR();
  7108   003558  EC1F  F020         	call	_ADC_ISR	;wreg free
  7109   00355C                     i2l990:
  7110                           
  7111                           ;MCAL_layer/INTERRUPT/mcall_interrupt_manager.c: 45:     if((1 == PIE1bits.TXIE ) && (1 
      +                          == PIE1bits.TXIE)){
  7112   00355C  A89D               	btfss	157,4,c	;volatile
  7113   00355E  EFB3  F01A         	goto	i2u928_41
  7114   003562  EFB5  F01A         	goto	i2u928_40
  7115   003566                     i2u928_41:
  7116   003566  EFBE  F01A         	goto	i2l992
  7117   00356A                     i2u928_40:
  7118   00356A  A89D               	btfss	157,4,c	;volatile
  7119   00356C  EFBA  F01A         	goto	i2u929_41
  7120   003570  EFBC  F01A         	goto	i2u929_40
  7121   003574                     i2u929_41:
  7122   003574  EFBE  F01A         	goto	i2l992
  7123   003578                     i2u929_40:
  7124   003578                     
  7125                           ;MCAL_layer/INTERRUPT/mcall_interrupt_manager.c: 46:         EUSART_ASYNC_TX_ISR();
  7126   003578  EC1D  F020         	call	_EUSART_ASYNC_TX_ISR	;wreg free
  7127   00357C                     i2l992:
  7128                           
  7129                           ;MCAL_layer/INTERRUPT/mcall_interrupt_manager.c: 51:     if((1 == PIE1bits.RCIE ) && (1 
      +                          == PIR1bits.RCIF)){
  7130   00357C  AA9D               	btfss	157,5,c	;volatile
  7131   00357E  EFC3  F01A         	goto	i2u930_41
  7132   003582  EFC5  F01A         	goto	i2u930_40
  7133   003586                     i2u930_41:
  7134   003586  EFCE  F01A         	goto	i2l995
  7135   00358A                     i2u930_40:
  7136   00358A  AA9E               	btfss	158,5,c	;volatile
  7137   00358C  EFCA  F01A         	goto	i2u931_41
  7138   003590  EFCC  F01A         	goto	i2u931_40
  7139   003594                     i2u931_41:
  7140   003594  EFCE  F01A         	goto	i2l995
  7141   003598                     i2u931_40:
  7142   003598                     
  7143                           ;MCAL_layer/INTERRUPT/mcall_interrupt_manager.c: 52:         EUSART_ASYNC_RX_ISR();
  7144   003598  EC05  F01F         	call	_EUSART_ASYNC_RX_ISR	;wreg free
  7145   00359C                     i2l995:
  7146   00359C  C03C  FFF4         	movff	??_InterruptManager+5,prodh
  7147   0035A0  C03B  FFF3         	movff	??_InterruptManager+4,prodl
  7148   0035A4  C03A  FFDA         	movff	??_InterruptManager+3,fsr2h
  7149   0035A8  C039  FFD9         	movff	??_InterruptManager+2,fsr2l
  7150   0035AC  C038  FFFB         	movff	??_InterruptManager+1,pclatu
  7151   0035B0  C037  FFFA         	movff	??_InterruptManager,pclath
  7152   0035B4  9277               	bcf	int$flags,1,c	;clear compiler interrupt flag (level 2)
  7153   0035B6  0011               	retfie		f
  7154   0035B8                     __end_of_InterruptManager:
  7155                           	callstack 0
  7156                           
  7157 ;; *************** function _TIMER0_ISR *****************
  7158 ;; Defined at:
  7159 ;;		line 309 in file "MCAL_layer/TIMER0/timer0.c"
  7160 ;; Parameters:    Size  Location     Type
  7161 ;;		None
  7162 ;; Auto vars:     Size  Location     Type
  7163 ;;		None
  7164 ;; Return value:  Size  Location     Type
  7165 ;;                  1    wreg      void 
  7166 ;; Registers used:
  7167 ;;		wreg, fsr2l, fsr2h, status,2, status,0, pcl, pclath, pclatu, tosl, prodl, prodh, cstack
  7168 ;; Tracked objects:
  7169 ;;		On entry : 0/0
  7170 ;;		On exit  : 0/0
  7171 ;;		Unchanged: 0/0
  7172 ;; Data sizes:     COMRAM   BANK0   BANK1   BANK2   BANK3   BANK4   BANK5   BANK6   BANK7   BANK8   BANK9  BANK10  BANK1
      +1  BANK12  BANK13  BANK14  BANK15
  7173 ;;      Params:         0       0       0       0       0       0       0       0       0       0       0       0       
      +0       0       0       0       0
  7174 ;;      Locals:         0       0       0       0       0       0       0       0       0       0       0       0       
      +0       0       0       0       0
  7175 ;;      Temps:          0       0       0       0       0       0       0       0       0       0       0       0       
      +0       0       0       0       0
  7176 ;;      Totals:         0       0       0       0       0       0       0       0       0       0       0       0       
      +0       0       0       0       0
  7177 ;;Total ram usage:        0 bytes
  7178 ;; Hardware stack levels used: 1
  7179 ;; Hardware stack levels required when called: 5
  7180 ;; This function calls:
  7181 ;;		NULL
  7182 ;;		_TIMER0_InterruptHandler
  7183 ;; This function is called by:
  7184 ;;		_InterruptManager
  7185 ;; This function uses a non-reentrant model
  7186 ;;
  7187                           
  7188                           	psect	text33
  7189   003ECE                     __ptext33:
  7190                           	callstack 0
  7191   003ECE                     _TIMER0_ISR:
  7192                           	callstack 19
  7193   003ECE                     
  7194                           ;MCAL_layer/TIMER0/timer0.c: 310:     (INTCONbits.TMR0IF =0);
  7195   003ECE  94F2               	bcf	242,2,c	;volatile
  7196   003ED0                     
  7197                           ;MCAL_layer/TIMER0/timer0.c: 311:     TMR0H = (g_timer0_preload_value)>> 8;
  7198   003ED0  504A               	movf	(_g_timer0_preload_value+1)^0,w,c
  7199   003ED2  6ED7               	movwf	215,c	;volatile
  7200   003ED4                     
  7201                           ;MCAL_layer/TIMER0/timer0.c: 312:     TMR0L = (uint8)(g_timer0_preload_value);
  7202   003ED4  C049  FFD6         	movff	_g_timer0_preload_value,4054	;volatile
  7203   003ED8                     
  7204                           ;MCAL_layer/TIMER0/timer0.c: 313:     if(Timer0_InterruptHandler){
  7205   003ED8  5047               	movf	_Timer0_InterruptHandler^0,w,c
  7206   003EDA  1048               	iorwf	(_Timer0_InterruptHandler+1)^0,w,c
  7207   003EDC  B4D8               	btfsc	status,2,c
  7208   003EDE  EF73  F01F         	goto	i2u868_41
  7209   003EE2  EF75  F01F         	goto	i2u868_40
  7210   003EE6                     i2u868_41:
  7211   003EE6  EF81  F01F         	goto	i2l1342
  7212   003EEA                     i2u868_40:
  7213   003EEA                     
  7214                           ;MCAL_layer/TIMER0/timer0.c: 314:         Timer0_InterruptHandler();
  7215   003EEA  D802               	call	i2u869_48
  7216   003EEC  EF81  F01F         	goto	i2u869_49
  7217   003EF0                     i2u869_48:
  7218   003EF0  0005               	push	
  7219   003EF2  6EFA               	movwf	pclath,c
  7220   003EF4  5047               	movf	_Timer0_InterruptHandler^0,w,c
  7221   003EF6  6EFD               	movwf	tosl,c
  7222   003EF8  5048               	movf	(_Timer0_InterruptHandler+1)^0,w,c
  7223   003EFA  6EFE               	movwf	tosh,c
  7224   003EFC  6AFF               	clrf	tosu,c
  7225   003EFE  50FA               	movf	pclath,w,c
  7226   003F00  0012               	return		;indir
  7227   003F02                     i2u869_49:
  7228   003F02                     i2l1342:
  7229   003F02  0012               	return		;funcret
  7230   003F04                     __end_of_TIMER0_ISR:
  7231                           	callstack 0
  7232                           
  7233 ;; *************** function _TIMER0_InterruptHandler *****************
  7234 ;; Defined at:
  7235 ;;		line 179 in file "application.c"
  7236 ;; Parameters:    Size  Location     Type
  7237 ;;		None
  7238 ;; Auto vars:     Size  Location     Type
  7239 ;;		None
  7240 ;; Return value:  Size  Location     Type
  7241 ;;                  1    wreg      void 
  7242 ;; Registers used:
  7243 ;;		wreg, fsr2l, fsr2h, status,2, status,0, prodl, prodh, cstack
  7244 ;; Tracked objects:
  7245 ;;		On entry : 0/0
  7246 ;;		On exit  : 0/0
  7247 ;;		Unchanged: 0/0
  7248 ;; Data sizes:     COMRAM   BANK0   BANK1   BANK2   BANK3   BANK4   BANK5   BANK6   BANK7   BANK8   BANK9  BANK10  BANK1
      +1  BANK12  BANK13  BANK14  BANK15
  7249 ;;      Params:         0       0       0       0       0       0       0       0       0       0       0       0       
      +0       0       0       0       0
  7250 ;;      Locals:         0       0       0       0       0       0       0       0       0       0       0       0       
      +0       0       0       0       0
  7251 ;;      Temps:          0       0       0       0       0       0       0       0       0       0       0       0       
      +0       0       0       0       0
  7252 ;;      Totals:         0       0       0       0       0       0       0       0       0       0       0       0       
      +0       0       0       0       0
  7253 ;;Total ram usage:        0 bytes
  7254 ;; Hardware stack levels used: 1
  7255 ;; Hardware stack levels required when called: 4
  7256 ;; This function calls:
  7257 ;;		_EUSART_ASYNC_WrireByteBlocking
  7258 ;;		_LM35_GetTempCelsius
  7259 ;; This function is called by:
  7260 ;;		_TIMER0_ISR
  7261 ;; This function uses a non-reentrant model
  7262 ;;
  7263                           
  7264                           	psect	text34
  7265   003B8C                     __ptext34:
  7266                           	callstack 0
  7267   003B8C                     _TIMER0_InterruptHandler:
  7268                           	callstack 19
  7269   003B8C                     
  7270                           ;application.c: 180:         EUSART_ASYNC_WrireByteBlocking('a');
  7271   003B8C  0E61               	movlw	97
  7272   003B8E  EC00  F020         	call	_EUSART_ASYNC_WrireByteBlocking
  7273   003B92                     
  7274                           ;application.c: 181:         LM35_GetTempCelsius(&lm35_reseption , &re_temp) ;
  7275   003B92  0E2D               	movlw	low _lm35_reseption
  7276   003B94  6E32               	movwf	LM35_GetTempCelsius@adc_obj^0,c
  7277   003B96  0E01               	movlw	high _lm35_reseption
  7278   003B98  6E33               	movwf	(LM35_GetTempCelsius@adc_obj+1)^0,c
  7279   003B9A  0EFA               	movlw	low _re_temp
  7280   003B9C  6E34               	movwf	LM35_GetTempCelsius@Temp_celsius_res^0,c
  7281   003B9E  ECFC  F018         	call	_LM35_GetTempCelsius	;wreg free
  7282   003BA2                     
  7283                           ;application.c: 182:         EUSART_ASYNC_WrireByteBlocking((uint8)re_temp);
  7284   003BA2  0100               	movlb	0	; () banked
  7285   003BA4  51FA               	movf	_re_temp& (0+255),w,b	;volatile
  7286   003BA6  EC00  F020         	call	_EUSART_ASYNC_WrireByteBlocking
  7287   003BAA                     
  7288                           ;application.c: 184:         EUSART_ASYNC_WrireByteBlocking('b');
  7289   003BAA  0E62               	movlw	98
  7290   003BAC  EC00  F020         	call	_EUSART_ASYNC_WrireByteBlocking
  7291   003BB0                     
  7292                           ;application.c: 185:         LM35_GetTempCelsius(&lm35_room1 , &r1_temp) ;
  7293   003BB0  0E27               	movlw	low _lm35_room1
  7294   003BB2  6E32               	movwf	LM35_GetTempCelsius@adc_obj^0,c
  7295   003BB4  0E01               	movlw	high _lm35_room1
  7296   003BB6  6E33               	movwf	(LM35_GetTempCelsius@adc_obj+1)^0,c
  7297   003BB8  0EF8               	movlw	low _r1_temp
  7298   003BBA  6E34               	movwf	LM35_GetTempCelsius@Temp_celsius_res^0,c
  7299   003BBC  ECFC  F018         	call	_LM35_GetTempCelsius	;wreg free
  7300                           
  7301                           ;application.c: 186:         EUSART_ASYNC_WrireByteBlocking((uint8)r1_temp);
  7302   003BC0  0100               	movlb	0	; () banked
  7303   003BC2  51F8               	movf	_r1_temp& (0+255),w,b	;volatile
  7304   003BC4  EC00  F020         	call	_EUSART_ASYNC_WrireByteBlocking
  7305                           
  7306                           ;application.c: 187:         EUSART_ASYNC_WrireByteBlocking('c');
  7307   003BC8  0E63               	movlw	99
  7308   003BCA  EC00  F020         	call	_EUSART_ASYNC_WrireByteBlocking
  7309   003BCE                     
  7310                           ;application.c: 188:         LM35_GetTempCelsius(&lm35_room2 , &r2_temp) ;
  7311   003BCE  0E21               	movlw	low _lm35_room2
  7312   003BD0  6E32               	movwf	LM35_GetTempCelsius@adc_obj^0,c
  7313   003BD2  0E01               	movlw	high _lm35_room2
  7314   003BD4  6E33               	movwf	(LM35_GetTempCelsius@adc_obj+1)^0,c
  7315   003BD6  0EF6               	movlw	low _r2_temp
  7316   003BD8  6E34               	movwf	LM35_GetTempCelsius@Temp_celsius_res^0,c
  7317   003BDA  ECFC  F018         	call	_LM35_GetTempCelsius	;wreg free
  7318   003BDE                     
  7319                           ;application.c: 189:         EUSART_ASYNC_WrireByteBlocking((uint8)r2_temp);
  7320   003BDE  0100               	movlb	0	; () banked
  7321   003BE0  51F6               	movf	_r2_temp& (0+255),w,b	;volatile
  7322   003BE2  EC00  F020         	call	_EUSART_ASYNC_WrireByteBlocking
  7323   003BE6  0012               	return		;funcret
  7324   003BE8                     __end_of_TIMER0_InterruptHandler:
  7325                           	callstack 0
  7326                           
  7327 ;; *************** function _LM35_GetTempCelsius *****************
  7328 ;; Defined at:
  7329 ;;		line 20 in file "ECU_layer/LM35/lm35.c"
  7330 ;; Parameters:    Size  Location     Type
  7331 ;;  adc_obj         2   49[COMRAM] PTR const struct .
  7332 ;;		 -> lm35_room2(6), lm35_room1(6), lm35_reseption(6), 
  7333 ;;  Temp_celsius    1   51[COMRAM] PTR unsigned short 
  7334 ;;		 -> r2_temp(2), r1_temp(2), re_temp(2), 
  7335 ;; Auto vars:     Size  Location     Type
  7336 ;;  l_conversion    2   52[COMRAM] unsigned short 
  7337 ;;  error_state     1    0        unsigned char 
  7338 ;; Return value:  Size  Location     Type
  7339 ;;                  1    wreg      unsigned char 
  7340 ;; Registers used:
  7341 ;;		wreg, fsr2l, fsr2h, status,2, status,0, prodl, prodh, cstack
  7342 ;; Tracked objects:
  7343 ;;		On entry : 0/0
  7344 ;;		On exit  : 0/0
  7345 ;;		Unchanged: 0/0
  7346 ;; Data sizes:     COMRAM   BANK0   BANK1   BANK2   BANK3   BANK4   BANK5   BANK6   BANK7   BANK8   BANK9  BANK10  BANK1
      +1  BANK12  BANK13  BANK14  BANK15
  7347 ;;      Params:         3       0       0       0       0       0       0       0       0       0       0       0       
      +0       0       0       0       0
  7348 ;;      Locals:         2       0       0       0       0       0       0       0       0       0       0       0       
      +0       0       0       0       0
  7349 ;;      Temps:          0       0       0       0       0       0       0       0       0       0       0       0       
      +0       0       0       0       0
  7350 ;;      Totals:         5       0       0       0       0       0       0       0       0       0       0       0       
      +0       0       0       0       0
  7351 ;;Total ram usage:        5 bytes
  7352 ;; Hardware stack levels used: 1
  7353 ;; Hardware stack levels required when called: 3
  7354 ;; This function calls:
  7355 ;;		_ADC_GetConversion_Blocking
  7356 ;;		___flmul
  7357 ;;		___lwdiv
  7358 ;;		i2___fltol
  7359 ;;		i2___xxtofl
  7360 ;; This function is called by:
  7361 ;;		_TIMER0_InterruptHandler
  7362 ;; This function uses a non-reentrant model
  7363 ;;
  7364                           
  7365                           	psect	text35
  7366   0031F8                     __ptext35:
  7367                           	callstack 0
  7368   0031F8                     _LM35_GetTempCelsius:
  7369                           	callstack 19
  7370   0031F8                     
  7371                           ;ECU_layer/LM35/lm35.c: 22:     adc_result_t l_conversion_res = 0 ;
  7372   0031F8  0E00               	movlw	0
  7373   0031FA  6E36               	movwf	(LM35_GetTempCelsius@l_conversion_res+1)^0,c
  7374   0031FC  0E00               	movlw	0
  7375   0031FE  6E35               	movwf	LM35_GetTempCelsius@l_conversion_res^0,c
  7376   003200                     
  7377                           ;ECU_layer/LM35/lm35.c: 23:     if((((void*)0) == adc_obj) || (((void*)0) == Temp_celsiu
      +                          s_res)){
  7378   003200  5032               	movf	LM35_GetTempCelsius@adc_obj^0,w,c
  7379   003202  1033               	iorwf	(LM35_GetTempCelsius@adc_obj+1)^0,w,c
  7380   003204  B4D8               	btfsc	status,2,c
  7381   003206  EF07  F019         	goto	i2u852_41
  7382   00320A  EF09  F019         	goto	i2u852_40
  7383   00320E                     i2u852_41:
  7384   00320E  EF11  F019         	goto	i2l9446
  7385   003212                     i2u852_40:
  7386   003212  5034               	movf	LM35_GetTempCelsius@Temp_celsius_res^0,w,c
  7387   003214  A4D8               	btfss	status,2,c
  7388   003216  EF0F  F019         	goto	i2u853_41
  7389   00321A  EF11  F019         	goto	i2u853_40
  7390   00321E                     i2u853_41:
  7391   00321E  EF13  F019         	goto	i2l9448
  7392   003222                     i2u853_40:
  7393   003222                     i2l9446:
  7394                           
  7395                           ;ECU_layer/LM35/lm35.c: 25:     }
  7396   003222  EF63  F019         	goto	i2l268
  7397   003226                     i2l9448:
  7398   003226  C032  F009         	movff	LM35_GetTempCelsius@adc_obj,ADC_GetConversion_Blocking@adc_obj
  7399   00322A  C033  F00A         	movff	LM35_GetTempCelsius@adc_obj+1,ADC_GetConversion_Blocking@adc_obj+1
  7400   00322E  EE20 F004          	lfsr	2,4
  7401   003232  5032               	movf	LM35_GetTempCelsius@adc_obj^0,w,c
  7402   003234  26D9               	addwf	fsr2l,f,c
  7403   003236  5033               	movf	(LM35_GetTempCelsius@adc_obj+1)^0,w,c
  7404   003238  22DA               	addwfc	fsr2h,f,c
  7405   00323A  50DF               	movf	indf2,w,c
  7406   00323C  6E0B               	movwf	ADC_GetConversion_Blocking@channel^0,c
  7407   00323E  0E35               	movlw	low LM35_GetTempCelsius@l_conversion_res
  7408   003240  6E0C               	movwf	ADC_GetConversion_Blocking@conversion_result^0,c
  7409   003242  EC5D  F01D         	call	_ADC_GetConversion_Blocking	;wreg free
  7410   003246                     
  7411                           ;ECU_layer/LM35/lm35.c: 28:            *Temp_celsius_res = l_conversion_res * (4.88);
  7412   003246  0EF6               	movlw	246
  7413   003248  6E13               	movwf	___flmul@a^0,c
  7414   00324A  0E28               	movlw	40
  7415   00324C  6E14               	movwf	(___flmul@a+1)^0,c
  7416   00324E  0E9C               	movlw	156
  7417   003250  6E15               	movwf	(___flmul@a+2)^0,c
  7418   003252  0E40               	movlw	64
  7419   003254  6E16               	movwf	(___flmul@a+3)^0,c
  7420   003256  C035  F001         	movff	LM35_GetTempCelsius@l_conversion_res,i2___xxtofl@val
  7421   00325A  C036  F002         	movff	LM35_GetTempCelsius@l_conversion_res+1,i2___xxtofl@val+1
  7422   00325E  6A03               	clrf	(i2___xxtofl@val+2)^0,c
  7423   003260  6A04               	clrf	(i2___xxtofl@val+3)^0,c
  7424   003262  0E00               	movlw	0
  7425   003264  EC41  F013         	call	i2___xxtofl
  7426   003268  C001  F00F         	movff	?i2___xxtofl,___flmul@b
  7427   00326C  C002  F010         	movff	?i2___xxtofl+1,___flmul@b+1
  7428   003270  C003  F011         	movff	?i2___xxtofl+2,___flmul@b+2
  7429   003274  C004  F012         	movff	?i2___xxtofl+3,___flmul@b+3
  7430   003278  ECFC  F00C         	call	___flmul	;wreg free
  7431   00327C  C00F  F028         	movff	?___flmul,i2___fltol@f1
  7432   003280  C010  F029         	movff	?___flmul+1,i2___fltol@f1+1
  7433   003284  C011  F02A         	movff	?___flmul+2,i2___fltol@f1+2
  7434   003288  C012  F02B         	movff	?___flmul+3,i2___fltol@f1+3
  7435   00328C  EC48  F015         	call	i2___fltol	;wreg free
  7436   003290  5034               	movf	LM35_GetTempCelsius@Temp_celsius_res^0,w,c
  7437   003292  6ED9               	movwf	fsr2l,c
  7438   003294  6ADA               	clrf	fsr2h,c
  7439   003296  C028  FFDE         	movff	?i2___fltol,postinc2
  7440   00329A  C029  FFDD         	movff	?i2___fltol+1,postdec2
  7441   00329E                     
  7442                           ;ECU_layer/LM35/lm35.c: 29:            *Temp_celsius_res /= 10 ;
  7443   00329E  5034               	movf	LM35_GetTempCelsius@Temp_celsius_res^0,w,c
  7444   0032A0  6ED9               	movwf	fsr2l,c
  7445   0032A2  6ADA               	clrf	fsr2h,c
  7446   0032A4  CFDE F001          	movff	postinc2,___lwdiv@dividend
  7447   0032A8  CFDD F002          	movff	postdec2,___lwdiv@dividend+1
  7448   0032AC  0E00               	movlw	0
  7449   0032AE  6E04               	movwf	(___lwdiv@divisor+1)^0,c
  7450   0032B0  0E0A               	movlw	10
  7451   0032B2  6E03               	movwf	___lwdiv@divisor^0,c
  7452   0032B4  ECEA  F01C         	call	___lwdiv	;wreg free
  7453   0032B8  5034               	movf	LM35_GetTempCelsius@Temp_celsius_res^0,w,c
  7454   0032BA  6ED9               	movwf	fsr2l,c
  7455   0032BC  6ADA               	clrf	fsr2h,c
  7456   0032BE  C001  FFDE         	movff	?___lwdiv,postinc2
  7457   0032C2  C002  FFDD         	movff	?___lwdiv+1,postdec2
  7458   0032C6                     i2l268:
  7459   0032C6  0012               	return		;funcret
  7460   0032C8                     __end_of_LM35_GetTempCelsius:
  7461                           	callstack 0
  7462                           
  7463 ;; *************** function i2___xxtofl *****************
  7464 ;; Defined at:
  7465 ;;		line 10 in file "C:\Program Files\Microchip\xc8\v2.46\pic\sources\c99\common\xxtofl.c"
  7466 ;; Parameters:    Size  Location     Type
  7467 ;;  sign            1    wreg     unsigned char 
  7468 ;;  val             4    0[COMRAM] long 
  7469 ;; Auto vars:     Size  Location     Type
  7470 ;;  sign            1    8[COMRAM] unsigned char 
  7471 ;;  arg             4   10[COMRAM] unsigned long 
  7472 ;;  exp             1    9[COMRAM] unsigned char 
  7473 ;; Return value:  Size  Location     Type
  7474 ;;                  4    0[COMRAM] unsigned char 
  7475 ;; Registers used:
  7476 ;;		wreg, status,2, status,0
  7477 ;; Tracked objects:
  7478 ;;		On entry : 0/0
  7479 ;;		On exit  : 0/0
  7480 ;;		Unchanged: 0/0
  7481 ;; Data sizes:     COMRAM   BANK0   BANK1   BANK2   BANK3   BANK4   BANK5   BANK6   BANK7   BANK8   BANK9  BANK10  BANK1
      +1  BANK12  BANK13  BANK14  BANK15
  7482 ;;      Params:         4       0       0       0       0       0       0       0       0       0       0       0       
      +0       0       0       0       0
  7483 ;;      Locals:         6       0       0       0       0       0       0       0       0       0       0       0       
      +0       0       0       0       0
  7484 ;;      Temps:          4       0       0       0       0       0       0       0       0       0       0       0       
      +0       0       0       0       0
  7485 ;;      Totals:        14       0       0       0       0       0       0       0       0       0       0       0       
      +0       0       0       0       0
  7486 ;;Total ram usage:       14 bytes
  7487 ;; Hardware stack levels used: 1
  7488 ;; This function calls:
  7489 ;;		Nothing
  7490 ;; This function is called by:
  7491 ;;		_LM35_GetTempCelsius
  7492 ;; This function uses a non-reentrant model
  7493 ;;
  7494                           
  7495                           	psect	text36
  7496   002682                     __ptext36:
  7497                           	callstack 0
  7498   002682                     i2___xxtofl:
  7499                           	callstack 21
  7500                           
  7501                           ;incstack = 0
  7502                           ;i2___xxtofl@sign stored from wreg
  7503   002682  6E09               	movwf	i2___xxtofl@sign^0,c
  7504   002684  5009               	movf	i2___xxtofl@sign^0,w,c
  7505   002686  B4D8               	btfsc	status,2,c
  7506   002688  EF48  F013         	goto	i2u569_41
  7507   00268C  EF4A  F013         	goto	i2u569_40
  7508   002690                     i2u569_41:
  7509   002690  EF6C  F013         	goto	i2l2377
  7510   002694                     i2u569_40:
  7511   002694  BE04               	btfsc	(i2___xxtofl@val+3)^0,7,c
  7512   002696  EF51  F013         	goto	i2u570_40
  7513   00269A  EF4F  F013         	goto	i2u570_41
  7514   00269E                     i2u570_41:
  7515   00269E  EF6C  F013         	goto	i2l2377
  7516   0026A2                     i2u570_40:
  7517   0026A2  C001  F005         	movff	i2___xxtofl@val,??i2___xxtofl
  7518   0026A6  C002  F006         	movff	i2___xxtofl@val+1,??i2___xxtofl+1
  7519   0026AA  C003  F007         	movff	i2___xxtofl@val+2,??i2___xxtofl+2
  7520   0026AE  C004  F008         	movff	i2___xxtofl@val+3,??i2___xxtofl+3
  7521   0026B2  1E05               	comf	??i2___xxtofl^0,f,c
  7522   0026B4  1E06               	comf	(??i2___xxtofl+1)^0,f,c
  7523   0026B6  1E07               	comf	(??i2___xxtofl+2)^0,f,c
  7524   0026B8  1E08               	comf	(??i2___xxtofl+3)^0,f,c
  7525   0026BA  2A05               	incf	??i2___xxtofl^0,f,c
  7526   0026BC  0E00               	movlw	0
  7527   0026BE  2206               	addwfc	(??i2___xxtofl+1)^0,f,c
  7528   0026C0  2207               	addwfc	(??i2___xxtofl+2)^0,f,c
  7529   0026C2  2208               	addwfc	(??i2___xxtofl+3)^0,f,c
  7530   0026C4  C005  F00B         	movff	??i2___xxtofl,i2___xxtofl@arg
  7531   0026C8  C006  F00C         	movff	??i2___xxtofl+1,i2___xxtofl@arg+1
  7532   0026CC  C007  F00D         	movff	??i2___xxtofl+2,i2___xxtofl@arg+2
  7533   0026D0  C008  F00E         	movff	??i2___xxtofl+3,i2___xxtofl@arg+3
  7534   0026D4  EF74  F013         	goto	i2l7086
  7535   0026D8                     i2l2377:
  7536   0026D8  C001  F00B         	movff	i2___xxtofl@val,i2___xxtofl@arg
  7537   0026DC  C002  F00C         	movff	i2___xxtofl@val+1,i2___xxtofl@arg+1
  7538   0026E0  C003  F00D         	movff	i2___xxtofl@val+2,i2___xxtofl@arg+2
  7539   0026E4  C004  F00E         	movff	i2___xxtofl@val+3,i2___xxtofl@arg+3
  7540   0026E8                     i2l7086:
  7541   0026E8  5001               	movf	i2___xxtofl@val^0,w,c
  7542   0026EA  1002               	iorwf	(i2___xxtofl@val+1)^0,w,c
  7543   0026EC  1003               	iorwf	(i2___xxtofl@val+2)^0,w,c
  7544   0026EE  1004               	iorwf	(i2___xxtofl@val+3)^0,w,c
  7545   0026F0  A4D8               	btfss	status,2,c
  7546   0026F2  EF7D  F013         	goto	i2u571_41
  7547   0026F6  EF7F  F013         	goto	i2u571_40
  7548   0026FA                     i2u571_41:
  7549   0026FA  EF89  F013         	goto	i2l7092
  7550   0026FE                     i2u571_40:
  7551   0026FE  0E00               	movlw	0
  7552   002700  6E01               	movwf	?i2___xxtofl^0,c
  7553   002702  0E00               	movlw	0
  7554   002704  6E02               	movwf	(?i2___xxtofl+1)^0,c
  7555   002706  0E00               	movlw	0
  7556   002708  6E03               	movwf	(?i2___xxtofl+2)^0,c
  7557   00270A  0E00               	movlw	0
  7558   00270C  6E04               	movwf	(?i2___xxtofl+3)^0,c
  7559   00270E  EF1A  F014         	goto	i2l2380
  7560   002712                     i2l7092:
  7561   002712  0E96               	movlw	150
  7562   002714  6E0A               	movwf	i2___xxtofl@exp^0,c
  7563   002716  EF93  F013         	goto	i2l7096
  7564   00271A                     i2l7094:
  7565   00271A  2A0A               	incf	i2___xxtofl@exp^0,f,c
  7566   00271C  90D8               	bcf	status,0,c
  7567   00271E  320E               	rrcf	(i2___xxtofl@arg+3)^0,f,c
  7568   002720  320D               	rrcf	(i2___xxtofl@arg+2)^0,f,c
  7569   002722  320C               	rrcf	(i2___xxtofl@arg+1)^0,f,c
  7570   002724  320B               	rrcf	i2___xxtofl@arg^0,f,c
  7571   002726                     i2l7096:
  7572   002726  0E00               	movlw	0
  7573   002728  140B               	andwf	i2___xxtofl@arg^0,w,c
  7574   00272A  6E05               	movwf	??i2___xxtofl^0,c
  7575   00272C  0E00               	movlw	0
  7576   00272E  140C               	andwf	(i2___xxtofl@arg+1)^0,w,c
  7577   002730  6E06               	movwf	(??i2___xxtofl+1)^0,c
  7578   002732  0E00               	movlw	0
  7579   002734  140D               	andwf	(i2___xxtofl@arg+2)^0,w,c
  7580   002736  6E07               	movwf	(??i2___xxtofl+2)^0,c
  7581   002738  0EFE               	movlw	254
  7582   00273A  140E               	andwf	(i2___xxtofl@arg+3)^0,w,c
  7583   00273C  6E08               	movwf	(??i2___xxtofl+3)^0,c
  7584   00273E  5005               	movf	??i2___xxtofl^0,w,c
  7585   002740  1006               	iorwf	(??i2___xxtofl+1)^0,w,c
  7586   002742  1007               	iorwf	(??i2___xxtofl+2)^0,w,c
  7587   002744  1008               	iorwf	(??i2___xxtofl+3)^0,w,c
  7588   002746  A4D8               	btfss	status,2,c
  7589   002748  EFA8  F013         	goto	i2u572_41
  7590   00274C  EFAA  F013         	goto	i2u572_40
  7591   002750                     i2u572_41:
  7592   002750  EF8D  F013         	goto	i2l7094
  7593   002754                     i2u572_40:
  7594   002754  EFB8  F013         	goto	i2l2384
  7595   002758                     i2l7098:
  7596   002758  2A0A               	incf	i2___xxtofl@exp^0,f,c
  7597   00275A  0E01               	movlw	1
  7598   00275C  260B               	addwf	i2___xxtofl@arg^0,f,c
  7599   00275E  0E00               	movlw	0
  7600   002760  220C               	addwfc	(i2___xxtofl@arg+1)^0,f,c
  7601   002762  220D               	addwfc	(i2___xxtofl@arg+2)^0,f,c
  7602   002764  220E               	addwfc	(i2___xxtofl@arg+3)^0,f,c
  7603   002766  90D8               	bcf	status,0,c
  7604   002768  320E               	rrcf	(i2___xxtofl@arg+3)^0,f,c
  7605   00276A  320D               	rrcf	(i2___xxtofl@arg+2)^0,f,c
  7606   00276C  320C               	rrcf	(i2___xxtofl@arg+1)^0,f,c
  7607   00276E  320B               	rrcf	i2___xxtofl@arg^0,f,c
  7608   002770                     i2l2384:
  7609   002770  0E00               	movlw	0
  7610   002772  140B               	andwf	i2___xxtofl@arg^0,w,c
  7611   002774  6E05               	movwf	??i2___xxtofl^0,c
  7612   002776  0E00               	movlw	0
  7613   002778  140C               	andwf	(i2___xxtofl@arg+1)^0,w,c
  7614   00277A  6E06               	movwf	(??i2___xxtofl+1)^0,c
  7615   00277C  0E00               	movlw	0
  7616   00277E  140D               	andwf	(i2___xxtofl@arg+2)^0,w,c
  7617   002780  6E07               	movwf	(??i2___xxtofl+2)^0,c
  7618   002782  0EFF               	movlw	255
  7619   002784  140E               	andwf	(i2___xxtofl@arg+3)^0,w,c
  7620   002786  6E08               	movwf	(??i2___xxtofl+3)^0,c
  7621   002788  5005               	movf	??i2___xxtofl^0,w,c
  7622   00278A  1006               	iorwf	(??i2___xxtofl+1)^0,w,c
  7623   00278C  1007               	iorwf	(??i2___xxtofl+2)^0,w,c
  7624   00278E  1008               	iorwf	(??i2___xxtofl+3)^0,w,c
  7625   002790  A4D8               	btfss	status,2,c
  7626   002792  EFCD  F013         	goto	i2u573_41
  7627   002796  EFCF  F013         	goto	i2u573_40
  7628   00279A                     i2u573_41:
  7629   00279A  EFAC  F013         	goto	i2l7098
  7630   00279E                     i2u573_40:
  7631   00279E  EFD7  F013         	goto	i2l7106
  7632   0027A2                     i2l7104:
  7633   0027A2  060A               	decf	i2___xxtofl@exp^0,f,c
  7634   0027A4  90D8               	bcf	status,0,c
  7635   0027A6  360B               	rlcf	i2___xxtofl@arg^0,f,c
  7636   0027A8  360C               	rlcf	(i2___xxtofl@arg+1)^0,f,c
  7637   0027AA  360D               	rlcf	(i2___xxtofl@arg+2)^0,f,c
  7638   0027AC  360E               	rlcf	(i2___xxtofl@arg+3)^0,f,c
  7639   0027AE                     i2l7106:
  7640   0027AE  BE0D               	btfsc	(i2___xxtofl@arg+2)^0,7,c
  7641   0027B0  EFDC  F013         	goto	i2u574_41
  7642   0027B4  EFDE  F013         	goto	i2u574_40
  7643   0027B8                     i2u574_41:
  7644   0027B8  EFE6  F013         	goto	i2l2391
  7645   0027BC                     i2u574_40:
  7646   0027BC  0E02               	movlw	2
  7647   0027BE  600A               	cpfslt	i2___xxtofl@exp^0,c
  7648   0027C0  EFE4  F013         	goto	i2u575_41
  7649   0027C4  EFE6  F013         	goto	i2u575_40
  7650   0027C8                     i2u575_41:
  7651   0027C8  EFD1  F013         	goto	i2l7104
  7652   0027CC                     i2u575_40:
  7653   0027CC                     i2l2391:
  7654   0027CC  B00A               	btfsc	i2___xxtofl@exp^0,0,c
  7655   0027CE  EFEB  F013         	goto	i2u576_41
  7656   0027D2  EFED  F013         	goto	i2u576_40
  7657   0027D6                     i2u576_41:
  7658   0027D6  EFEE  F013         	goto	i2l7112
  7659   0027DA                     i2u576_40:
  7660   0027DA  9E0D               	bcf	(i2___xxtofl@arg+2)^0,7,c
  7661   0027DC                     i2l7112:
  7662   0027DC  90D8               	bcf	status,0,c
  7663   0027DE  320A               	rrcf	i2___xxtofl@exp^0,f,c
  7664   0027E0  C00A  F005         	movff	i2___xxtofl@exp,??i2___xxtofl
  7665   0027E4  6A06               	clrf	(??i2___xxtofl+1)^0,c
  7666   0027E6  6A07               	clrf	(??i2___xxtofl+2)^0,c
  7667   0027E8  6A08               	clrf	(??i2___xxtofl+3)^0,c
  7668   0027EA  C005  F008         	movff	??i2___xxtofl,??i2___xxtofl+3
  7669   0027EE  6A07               	clrf	(??i2___xxtofl+2)^0,c
  7670   0027F0  6A06               	clrf	(??i2___xxtofl+1)^0,c
  7671   0027F2  6A05               	clrf	??i2___xxtofl^0,c
  7672   0027F4  5005               	movf	??i2___xxtofl^0,w,c
  7673   0027F6  120B               	iorwf	i2___xxtofl@arg^0,f,c
  7674   0027F8  5006               	movf	(??i2___xxtofl+1)^0,w,c
  7675   0027FA  120C               	iorwf	(i2___xxtofl@arg+1)^0,f,c
  7676   0027FC  5007               	movf	(??i2___xxtofl+2)^0,w,c
  7677   0027FE  120D               	iorwf	(i2___xxtofl@arg+2)^0,f,c
  7678   002800  5008               	movf	(??i2___xxtofl+3)^0,w,c
  7679   002802  120E               	iorwf	(i2___xxtofl@arg+3)^0,f,c
  7680   002804  5009               	movf	i2___xxtofl@sign^0,w,c
  7681   002806  B4D8               	btfsc	status,2,c
  7682   002808  EF08  F014         	goto	i2u577_41
  7683   00280C  EF0A  F014         	goto	i2u577_40
  7684   002810                     i2u577_41:
  7685   002810  EF12  F014         	goto	i2l7122
  7686   002814                     i2u577_40:
  7687   002814  BE04               	btfsc	(i2___xxtofl@val+3)^0,7,c
  7688   002816  EF11  F014         	goto	i2u578_40
  7689   00281A  EF0F  F014         	goto	i2u578_41
  7690   00281E                     i2u578_41:
  7691   00281E  EF12  F014         	goto	i2l7122
  7692   002822                     i2u578_40:
  7693   002822  8E0E               	bsf	(i2___xxtofl@arg+3)^0,7,c
  7694   002824                     i2l7122:
  7695   002824  C00B  F001         	movff	i2___xxtofl@arg,?i2___xxtofl
  7696   002828  C00C  F002         	movff	i2___xxtofl@arg+1,?i2___xxtofl+1
  7697   00282C  C00D  F003         	movff	i2___xxtofl@arg+2,?i2___xxtofl+2
  7698   002830  C00E  F004         	movff	i2___xxtofl@arg+3,?i2___xxtofl+3
  7699   002834                     i2l2380:
  7700   002834  0012               	return		;funcret
  7701   002836                     __end_ofi2___xxtofl:
  7702                           	callstack 0
  7703                           
  7704 ;; *************** function i2___fltol *****************
  7705 ;; Defined at:
  7706 ;;		line 43 in file "C:\Program Files\Microchip\xc8\v2.46\pic\sources\c99\common\fltol.c"
  7707 ;; Parameters:    Size  Location     Type
  7708 ;;  f1              4   39[COMRAM] unsigned char 
  7709 ;; Auto vars:     Size  Location     Type
  7710 ;;  exp1            1   48[COMRAM] unsigned char 
  7711 ;;  sign1           1   47[COMRAM] unsigned char 
  7712 ;; Return value:  Size  Location     Type
  7713 ;;                  4   39[COMRAM] long 
  7714 ;; Registers used:
  7715 ;;		wreg, status,2, status,0
  7716 ;; Tracked objects:
  7717 ;;		On entry : 0/0
  7718 ;;		On exit  : 0/0
  7719 ;;		Unchanged: 0/0
  7720 ;; Data sizes:     COMRAM   BANK0   BANK1   BANK2   BANK3   BANK4   BANK5   BANK6   BANK7   BANK8   BANK9  BANK10  BANK1
      +1  BANK12  BANK13  BANK14  BANK15
  7721 ;;      Params:         4       0       0       0       0       0       0       0       0       0       0       0       
      +0       0       0       0       0
  7722 ;;      Locals:         2       0       0       0       0       0       0       0       0       0       0       0       
      +0       0       0       0       0
  7723 ;;      Temps:          4       0       0       0       0       0       0       0       0       0       0       0       
      +0       0       0       0       0
  7724 ;;      Totals:        10       0       0       0       0       0       0       0       0       0       0       0       
      +0       0       0       0       0
  7725 ;;Total ram usage:       10 bytes
  7726 ;; Hardware stack levels used: 1
  7727 ;; This function calls:
  7728 ;;		Nothing
  7729 ;; This function is called by:
  7730 ;;		_LM35_GetTempCelsius
  7731 ;; This function uses a non-reentrant model
  7732 ;;
  7733                           
  7734                           	psect	text37
  7735   002A90                     __ptext37:
  7736                           	callstack 0
  7737   002A90                     i2___fltol:
  7738                           	callstack 21
  7739   002A90  342A               	rlcf	(i2___fltol@f1+2)^0,w,c
  7740   002A92  342B               	rlcf	(i2___fltol@f1+3)^0,w,c
  7741   002A94  6E31               	movwf	i2___fltol@exp1^0,c
  7742   002A96  5031               	movf	i2___fltol@exp1^0,w,c
  7743   002A98  A4D8               	btfss	status,2,c
  7744   002A9A  EF51  F015         	goto	i2u562_41
  7745   002A9E  EF53  F015         	goto	i2u562_40
  7746   002AA2                     i2u562_41:
  7747   002AA2  EF5D  F015         	goto	i2l7042
  7748   002AA6                     i2u562_40:
  7749   002AA6                     i2l7038:
  7750   002AA6  0E00               	movlw	0
  7751   002AA8  6E28               	movwf	?i2___fltol^0,c
  7752   002AAA  0E00               	movlw	0
  7753   002AAC  6E29               	movwf	(?i2___fltol+1)^0,c
  7754   002AAE  0E00               	movlw	0
  7755   002AB0  6E2A               	movwf	(?i2___fltol+2)^0,c
  7756   002AB2  0E00               	movlw	0
  7757   002AB4  6E2B               	movwf	(?i2___fltol+3)^0,c
  7758   002AB6  EFCA  F015         	goto	i2l2019
  7759   002ABA                     i2l7042:
  7760   002ABA  C028  F02C         	movff	i2___fltol@f1,??i2___fltol
  7761   002ABE  C029  F02D         	movff	i2___fltol@f1+1,??i2___fltol+1
  7762   002AC2  C02A  F02E         	movff	i2___fltol@f1+2,??i2___fltol+2
  7763   002AC6  C02B  F02F         	movff	i2___fltol@f1+3,??i2___fltol+3
  7764   002ACA  0E20               	movlw	32
  7765   002ACC  EF6D  F015         	goto	i2u563_40
  7766   002AD0                     i2u563_45:
  7767   002AD0  90D8               	bcf	status,0,c
  7768   002AD2  322F               	rrcf	(??i2___fltol+3)^0,f,c
  7769   002AD4  322E               	rrcf	(??i2___fltol+2)^0,f,c
  7770   002AD6  322D               	rrcf	(??i2___fltol+1)^0,f,c
  7771   002AD8  322C               	rrcf	??i2___fltol^0,f,c
  7772   002ADA                     i2u563_40:
  7773   002ADA  2EE8               	decfsz	wreg,f,c
  7774   002ADC  EF68  F015         	goto	i2u563_45
  7775   002AE0  502C               	movf	??i2___fltol^0,w,c
  7776   002AE2  6E30               	movwf	i2___fltol@sign1^0,c
  7777   002AE4  8E2A               	bsf	(i2___fltol@f1+2)^0,7,c
  7778   002AE6  0EFF               	movlw	255
  7779   002AE8  1628               	andwf	i2___fltol@f1^0,f,c
  7780   002AEA  0EFF               	movlw	255
  7781   002AEC  1629               	andwf	(i2___fltol@f1+1)^0,f,c
  7782   002AEE  0EFF               	movlw	255
  7783   002AF0  162A               	andwf	(i2___fltol@f1+2)^0,f,c
  7784   002AF2  0E00               	movlw	0
  7785   002AF4  162B               	andwf	(i2___fltol@f1+3)^0,f,c
  7786   002AF6  0E96               	movlw	150
  7787   002AF8  5E31               	subwf	i2___fltol@exp1^0,f,c
  7788   002AFA  BE31               	btfsc	i2___fltol@exp1^0,7,c
  7789   002AFC  EF84  F015         	goto	i2u564_40
  7790   002B00  EF82  F015         	goto	i2u564_41
  7791   002B04                     i2u564_41:
  7792   002B04  EF9A  F015         	goto	i2l7062
  7793   002B08                     i2u564_40:
  7794   002B08  5031               	movf	i2___fltol@exp1^0,w,c
  7795   002B0A  0A80               	xorlw	128
  7796   002B0C  0F97               	addlw	151
  7797   002B0E  B0D8               	btfsc	status,0,c
  7798   002B10  EF8C  F015         	goto	i2u565_41
  7799   002B14  EF8E  F015         	goto	i2u565_40
  7800   002B18                     i2u565_41:
  7801   002B18  EF90  F015         	goto	i2l7058
  7802   002B1C                     i2u565_40:
  7803   002B1C  EF53  F015         	goto	i2l7038
  7804   002B20                     i2l7058:
  7805   002B20  90D8               	bcf	status,0,c
  7806   002B22  322B               	rrcf	(i2___fltol@f1+3)^0,f,c
  7807   002B24  322A               	rrcf	(i2___fltol@f1+2)^0,f,c
  7808   002B26  3229               	rrcf	(i2___fltol@f1+1)^0,f,c
  7809   002B28  3228               	rrcf	i2___fltol@f1^0,f,c
  7810   002B2A  3E31               	incfsz	i2___fltol@exp1^0,f,c
  7811   002B2C  EF90  F015         	goto	i2l7058
  7812   002B30  EFB2  F015         	goto	i2l7072
  7813   002B34                     i2l7062:
  7814   002B34  0E1F               	movlw	31
  7815   002B36  6431               	cpfsgt	i2___fltol@exp1^0,c
  7816   002B38  EFA0  F015         	goto	i2u566_41
  7817   002B3C  EFA2  F015         	goto	i2u566_40
  7818   002B40                     i2u566_41:
  7819   002B40  EFAA  F015         	goto	i2l7070
  7820   002B44                     i2u566_40:
  7821   002B44  EF53  F015         	goto	i2l7038
  7822   002B48                     i2l7068:
  7823   002B48  90D8               	bcf	status,0,c
  7824   002B4A  3628               	rlcf	i2___fltol@f1^0,f,c
  7825   002B4C  3629               	rlcf	(i2___fltol@f1+1)^0,f,c
  7826   002B4E  362A               	rlcf	(i2___fltol@f1+2)^0,f,c
  7827   002B50  362B               	rlcf	(i2___fltol@f1+3)^0,f,c
  7828   002B52  0631               	decf	i2___fltol@exp1^0,f,c
  7829   002B54                     i2l7070:
  7830   002B54  5031               	movf	i2___fltol@exp1^0,w,c
  7831   002B56  A4D8               	btfss	status,2,c
  7832   002B58  EFB0  F015         	goto	i2u567_41
  7833   002B5C  EFB2  F015         	goto	i2u567_40
  7834   002B60                     i2u567_41:
  7835   002B60  EFA4  F015         	goto	i2l7068
  7836   002B64                     i2u567_40:
  7837   002B64                     i2l7072:
  7838   002B64  5030               	movf	i2___fltol@sign1^0,w,c
  7839   002B66  B4D8               	btfsc	status,2,c
  7840   002B68  EFB8  F015         	goto	i2u568_41
  7841   002B6C  EFBA  F015         	goto	i2u568_40
  7842   002B70                     i2u568_41:
  7843   002B70  EFC2  F015         	goto	i2l7076
  7844   002B74                     i2u568_40:
  7845   002B74  1E2B               	comf	(i2___fltol@f1+3)^0,f,c
  7846   002B76  1E2A               	comf	(i2___fltol@f1+2)^0,f,c
  7847   002B78  1E29               	comf	(i2___fltol@f1+1)^0,f,c
  7848   002B7A  6C28               	negf	i2___fltol@f1^0,c
  7849   002B7C  0E00               	movlw	0
  7850   002B7E  2229               	addwfc	(i2___fltol@f1+1)^0,f,c
  7851   002B80  222A               	addwfc	(i2___fltol@f1+2)^0,f,c
  7852   002B82  222B               	addwfc	(i2___fltol@f1+3)^0,f,c
  7853   002B84                     i2l7076:
  7854   002B84  C028  F028         	movff	i2___fltol@f1,?i2___fltol
  7855   002B88  C029  F029         	movff	i2___fltol@f1+1,?i2___fltol+1
  7856   002B8C  C02A  F02A         	movff	i2___fltol@f1+2,?i2___fltol+2
  7857   002B90  C02B  F02B         	movff	i2___fltol@f1+3,?i2___fltol+3
  7858   002B94                     i2l2019:
  7859   002B94  0012               	return		;funcret
  7860   002B96                     __end_ofi2___fltol:
  7861                           	callstack 0
  7862                           
  7863 ;; *************** function ___lwdiv *****************
  7864 ;; Defined at:
  7865 ;;		line 7 in file "C:\Program Files\Microchip\xc8\v2.46\pic\sources\c99\common\lwdiv.c"
  7866 ;; Parameters:    Size  Location     Type
  7867 ;;  dividend        2    0[COMRAM] unsigned int 
  7868 ;;  divisor         2    2[COMRAM] unsigned int 
  7869 ;; Auto vars:     Size  Location     Type
  7870 ;;  quotient        2    4[COMRAM] unsigned int 
  7871 ;;  counter         1    6[COMRAM] unsigned char 
  7872 ;; Return value:  Size  Location     Type
  7873 ;;                  2    0[COMRAM] unsigned int 
  7874 ;; Registers used:
  7875 ;;		wreg, status,2, status,0
  7876 ;; Tracked objects:
  7877 ;;		On entry : 0/0
  7878 ;;		On exit  : 0/0
  7879 ;;		Unchanged: 0/0
  7880 ;; Data sizes:     COMRAM   BANK0   BANK1   BANK2   BANK3   BANK4   BANK5   BANK6   BANK7   BANK8   BANK9  BANK10  BANK1
      +1  BANK12  BANK13  BANK14  BANK15
  7881 ;;      Params:         4       0       0       0       0       0       0       0       0       0       0       0       
      +0       0       0       0       0
  7882 ;;      Locals:         3       0       0       0       0       0       0       0       0       0       0       0       
      +0       0       0       0       0
  7883 ;;      Temps:          0       0       0       0       0       0       0       0       0       0       0       0       
      +0       0       0       0       0
  7884 ;;      Totals:         7       0       0       0       0       0       0       0       0       0       0       0       
      +0       0       0       0       0
  7885 ;;Total ram usage:        7 bytes
  7886 ;; Hardware stack levels used: 1
  7887 ;; This function calls:
  7888 ;;		Nothing
  7889 ;; This function is called by:
  7890 ;;		_LM35_GetTempCelsius
  7891 ;; This function uses a non-reentrant model
  7892 ;;
  7893                           
  7894                           	psect	text38
  7895   0039D4                     __ptext38:
  7896                           	callstack 0
  7897   0039D4                     ___lwdiv:
  7898                           	callstack 21
  7899   0039D4  0E00               	movlw	0
  7900   0039D6  6E06               	movwf	(___lwdiv@quotient+1)^0,c
  7901   0039D8  0E00               	movlw	0
  7902   0039DA  6E05               	movwf	___lwdiv@quotient^0,c
  7903   0039DC  5003               	movf	___lwdiv@divisor^0,w,c
  7904   0039DE  1004               	iorwf	(___lwdiv@divisor+1)^0,w,c
  7905   0039E0  B4D8               	btfsc	status,2,c
  7906   0039E2  EFF5  F01C         	goto	i2u556_41
  7907   0039E6  EFF7  F01C         	goto	i2u556_40
  7908   0039EA                     i2u556_41:
  7909   0039EA  EF1F  F01D         	goto	i2l2213
  7910   0039EE                     i2u556_40:
  7911   0039EE  0E01               	movlw	1
  7912   0039F0  6E07               	movwf	___lwdiv@counter^0,c
  7913   0039F2  EFFF  F01C         	goto	i2l7002
  7914   0039F6                     i2l7000:
  7915   0039F6  90D8               	bcf	status,0,c
  7916   0039F8  3603               	rlcf	___lwdiv@divisor^0,f,c
  7917   0039FA  3604               	rlcf	(___lwdiv@divisor+1)^0,f,c
  7918   0039FC  2A07               	incf	___lwdiv@counter^0,f,c
  7919   0039FE                     i2l7002:
  7920   0039FE  AE04               	btfss	(___lwdiv@divisor+1)^0,7,c
  7921   003A00  EF04  F01D         	goto	i2u557_41
  7922   003A04  EF06  F01D         	goto	i2u557_40
  7923   003A08                     i2u557_41:
  7924   003A08  EFFB  F01C         	goto	i2l7000
  7925   003A0C                     i2u557_40:
  7926   003A0C                     i2l7004:
  7927   003A0C  90D8               	bcf	status,0,c
  7928   003A0E  3605               	rlcf	___lwdiv@quotient^0,f,c
  7929   003A10  3606               	rlcf	(___lwdiv@quotient+1)^0,f,c
  7930   003A12  5003               	movf	___lwdiv@divisor^0,w,c
  7931   003A14  5C01               	subwf	___lwdiv@dividend^0,w,c
  7932   003A16  5004               	movf	(___lwdiv@divisor+1)^0,w,c
  7933   003A18  5802               	subwfb	(___lwdiv@dividend+1)^0,w,c
  7934   003A1A  A0D8               	btfss	status,0,c
  7935   003A1C  EF12  F01D         	goto	i2u558_41
  7936   003A20  EF14  F01D         	goto	i2u558_40
  7937   003A24                     i2u558_41:
  7938   003A24  EF19  F01D         	goto	i2l7012
  7939   003A28                     i2u558_40:
  7940   003A28  5003               	movf	___lwdiv@divisor^0,w,c
  7941   003A2A  5E01               	subwf	___lwdiv@dividend^0,f,c
  7942   003A2C  5004               	movf	(___lwdiv@divisor+1)^0,w,c
  7943   003A2E  5A02               	subwfb	(___lwdiv@dividend+1)^0,f,c
  7944   003A30  8005               	bsf	___lwdiv@quotient^0,0,c
  7945   003A32                     i2l7012:
  7946   003A32  90D8               	bcf	status,0,c
  7947   003A34  3204               	rrcf	(___lwdiv@divisor+1)^0,f,c
  7948   003A36  3203               	rrcf	___lwdiv@divisor^0,f,c
  7949   003A38  2E07               	decfsz	___lwdiv@counter^0,f,c
  7950   003A3A  EF06  F01D         	goto	i2l7004
  7951   003A3E                     i2l2213:
  7952   003A3E  C005  F001         	movff	___lwdiv@quotient,?___lwdiv
  7953   003A42  C006  F002         	movff	___lwdiv@quotient+1,?___lwdiv+1
  7954   003A46  0012               	return		;funcret
  7955   003A48                     __end_of___lwdiv:
  7956                           	callstack 0
  7957                           
  7958 ;; *************** function ___flmul *****************
  7959 ;; Defined at:
  7960 ;;		line 8 in file "C:\Program Files\Microchip\xc8\v2.46\pic\sources\c99\common\sprcmul.c"
  7961 ;; Parameters:    Size  Location     Type
  7962 ;;  b               4   14[COMRAM] unsigned int 
  7963 ;;  a               4   18[COMRAM] unsigned int 
  7964 ;; Auto vars:     Size  Location     Type
  7965 ;;  prod            4   33[COMRAM] struct .
  7966 ;;  grs             4   27[COMRAM] unsigned long 
  7967 ;;  temp            2   37[COMRAM] struct .
  7968 ;;  bexp            1   32[COMRAM] unsigned char 
  7969 ;;  aexp            1   31[COMRAM] unsigned char 
  7970 ;;  sign            1   26[COMRAM] unsigned char 
  7971 ;; Return value:  Size  Location     Type
  7972 ;;                  4   14[COMRAM] unsigned char 
  7973 ;; Registers used:
  7974 ;;		wreg, status,2, status,0, prodl, prodh
  7975 ;; Tracked objects:
  7976 ;;		On entry : 0/0
  7977 ;;		On exit  : 0/0
  7978 ;;		Unchanged: 0/0
  7979 ;; Data sizes:     COMRAM   BANK0   BANK1   BANK2   BANK3   BANK4   BANK5   BANK6   BANK7   BANK8   BANK9  BANK10  BANK1
      +1  BANK12  BANK13  BANK14  BANK15
  7980 ;;      Params:         8       0       0       0       0       0       0       0       0       0       0       0       
      +0       0       0       0       0
  7981 ;;      Locals:        13       0       0       0       0       0       0       0       0       0       0       0       
      +0       0       0       0       0
  7982 ;;      Temps:          4       0       0       0       0       0       0       0       0       0       0       0       
      +0       0       0       0       0
  7983 ;;      Totals:        25       0       0       0       0       0       0       0       0       0       0       0       
      +0       0       0       0       0
  7984 ;;Total ram usage:       25 bytes
  7985 ;; Hardware stack levels used: 1
  7986 ;; This function calls:
  7987 ;;		Nothing
  7988 ;; This function is called by:
  7989 ;;		_LM35_GetTempCelsius
  7990 ;;		_CCP_Init
  7991 ;;		_CCP_PWMSetDuty
  7992 ;; This function uses a non-reentrant model
  7993 ;;
  7994                           
  7995                           	psect	text39
  7996   0019F8                     __ptext39:
  7997                           	callstack 0
  7998   0019F8                     ___flmul:
  7999                           	callstack 21
  8000   0019F8  5012               	movf	(___flmul@b+3)^0,w,c
  8001   0019FA  0B80               	andlw	128
  8002   0019FC  6E1B               	movwf	___flmul@sign^0,c
  8003   0019FE  5012               	movf	(___flmul@b+3)^0,w,c
  8004   001A00  2412               	addwf	(___flmul@b+3)^0,w,c
  8005   001A02  6E21               	movwf	___flmul@bexp^0,c
  8006   001A04  AE11               	btfss	(___flmul@b+2)^0,7,c
  8007   001A06  EF07  F00D         	goto	i2u537_41
  8008   001A0A  EF09  F00D         	goto	i2u537_40
  8009   001A0E                     i2u537_41:
  8010   001A0E  EF0A  F00D         	goto	i2l6870
  8011   001A12                     i2u537_40:
  8012   001A12  8021               	bsf	___flmul@bexp^0,0,c
  8013   001A14                     i2l6870:
  8014   001A14  5021               	movf	___flmul@bexp^0,w,c
  8015   001A16  B4D8               	btfsc	status,2,c
  8016   001A18  EF10  F00D         	goto	i2u538_41
  8017   001A1C  EF12  F00D         	goto	i2u538_40
  8018   001A20                     i2u538_41:
  8019   001A20  EF25  F00D         	goto	i2l6878
  8020   001A24                     i2u538_40:
  8021   001A24  2821               	incf	___flmul@bexp^0,w,c
  8022   001A26  A4D8               	btfss	status,2,c
  8023   001A28  EF18  F00D         	goto	i2u539_41
  8024   001A2C  EF1A  F00D         	goto	i2u539_40
  8025   001A30                     i2u539_41:
  8026   001A30  EF22  F00D         	goto	i2l6876
  8027   001A34                     i2u539_40:
  8028   001A34  0E00               	movlw	0
  8029   001A36  6E0F               	movwf	___flmul@b^0,c
  8030   001A38  0E00               	movlw	0
  8031   001A3A  6E10               	movwf	(___flmul@b+1)^0,c
  8032   001A3C  0E00               	movlw	0
  8033   001A3E  6E11               	movwf	(___flmul@b+2)^0,c
  8034   001A40  0E00               	movlw	0
  8035   001A42  6E12               	movwf	(___flmul@b+3)^0,c
  8036   001A44                     i2l6876:
  8037   001A44  8E11               	bsf	(___flmul@b+2)^0,7,c
  8038   001A46  EF2D  F00D         	goto	i2l6880
  8039   001A4A                     i2l6878:
  8040   001A4A  0E00               	movlw	0
  8041   001A4C  6E0F               	movwf	___flmul@b^0,c
  8042   001A4E  0E00               	movlw	0
  8043   001A50  6E10               	movwf	(___flmul@b+1)^0,c
  8044   001A52  0E00               	movlw	0
  8045   001A54  6E11               	movwf	(___flmul@b+2)^0,c
  8046   001A56  0E00               	movlw	0
  8047   001A58  6E12               	movwf	(___flmul@b+3)^0,c
  8048   001A5A                     i2l6880:
  8049   001A5A  5016               	movf	(___flmul@a+3)^0,w,c
  8050   001A5C  0B80               	andlw	128
  8051   001A5E  1A1B               	xorwf	___flmul@sign^0,f,c
  8052   001A60  5016               	movf	(___flmul@a+3)^0,w,c
  8053   001A62  2416               	addwf	(___flmul@a+3)^0,w,c
  8054   001A64  6E20               	movwf	___flmul@aexp^0,c
  8055   001A66  AE15               	btfss	(___flmul@a+2)^0,7,c
  8056   001A68  EF38  F00D         	goto	i2u540_41
  8057   001A6C  EF3A  F00D         	goto	i2u540_40
  8058   001A70                     i2u540_41:
  8059   001A70  EF3B  F00D         	goto	i2l6888
  8060   001A74                     i2u540_40:
  8061   001A74  8020               	bsf	___flmul@aexp^0,0,c
  8062   001A76                     i2l6888:
  8063   001A76  5020               	movf	___flmul@aexp^0,w,c
  8064   001A78  B4D8               	btfsc	status,2,c
  8065   001A7A  EF41  F00D         	goto	i2u541_41
  8066   001A7E  EF43  F00D         	goto	i2u541_40
  8067   001A82                     i2u541_41:
  8068   001A82  EF56  F00D         	goto	i2l6896
  8069   001A86                     i2u541_40:
  8070   001A86  2820               	incf	___flmul@aexp^0,w,c
  8071   001A88  A4D8               	btfss	status,2,c
  8072   001A8A  EF49  F00D         	goto	i2u542_41
  8073   001A8E  EF4B  F00D         	goto	i2u542_40
  8074   001A92                     i2u542_41:
  8075   001A92  EF53  F00D         	goto	i2l6894
  8076   001A96                     i2u542_40:
  8077   001A96  0E00               	movlw	0
  8078   001A98  6E13               	movwf	___flmul@a^0,c
  8079   001A9A  0E00               	movlw	0
  8080   001A9C  6E14               	movwf	(___flmul@a+1)^0,c
  8081   001A9E  0E00               	movlw	0
  8082   001AA0  6E15               	movwf	(___flmul@a+2)^0,c
  8083   001AA2  0E00               	movlw	0
  8084   001AA4  6E16               	movwf	(___flmul@a+3)^0,c
  8085   001AA6                     i2l6894:
  8086   001AA6  8E15               	bsf	(___flmul@a+2)^0,7,c
  8087   001AA8  EF5E  F00D         	goto	i2l2336
  8088   001AAC                     i2l6896:
  8089   001AAC  0E00               	movlw	0
  8090   001AAE  6E13               	movwf	___flmul@a^0,c
  8091   001AB0  0E00               	movlw	0
  8092   001AB2  6E14               	movwf	(___flmul@a+1)^0,c
  8093   001AB4  0E00               	movlw	0
  8094   001AB6  6E15               	movwf	(___flmul@a+2)^0,c
  8095   001AB8  0E00               	movlw	0
  8096   001ABA  6E16               	movwf	(___flmul@a+3)^0,c
  8097   001ABC                     i2l2336:
  8098   001ABC  5020               	movf	___flmul@aexp^0,w,c
  8099   001ABE  B4D8               	btfsc	status,2,c
  8100   001AC0  EF64  F00D         	goto	i2u543_41
  8101   001AC4  EF66  F00D         	goto	i2u543_40
  8102   001AC8                     i2u543_41:
  8103   001AC8  EF6E  F00D         	goto	i2l6900
  8104   001ACC                     i2u543_40:
  8105   001ACC  5021               	movf	___flmul@bexp^0,w,c
  8106   001ACE  A4D8               	btfss	status,2,c
  8107   001AD0  EF6C  F00D         	goto	i2u544_41
  8108   001AD4  EF6E  F00D         	goto	i2u544_40
  8109   001AD8                     i2u544_41:
  8110   001AD8  EF78  F00D         	goto	i2l6904
  8111   001ADC                     i2u544_40:
  8112   001ADC                     i2l6900:
  8113   001ADC  0E00               	movlw	0
  8114   001ADE  6E0F               	movwf	?___flmul^0,c
  8115   001AE0  0E00               	movlw	0
  8116   001AE2  6E10               	movwf	(?___flmul+1)^0,c
  8117   001AE4  0E00               	movlw	0
  8118   001AE6  6E11               	movwf	(?___flmul+2)^0,c
  8119   001AE8  0E00               	movlw	0
  8120   001AEA  6E12               	movwf	(?___flmul+3)^0,c
  8121   001AEC  EF10  F00F         	goto	i2l2340
  8122   001AF0                     i2l6904:
  8123   001AF0  5015               	movf	(___flmul@a+2)^0,w,c
  8124   001AF2  020F               	mulwf	___flmul@b^0,c
  8125   001AF4  CFF3 F026          	movff	prodl,___flmul@temp
  8126   001AF8  CFF4 F027          	movff	prodh,___flmul@temp+1
  8127   001AFC  5026               	movf	___flmul@temp^0,w,c
  8128   001AFE  6E1C               	movwf	___flmul@grs^0,c
  8129   001B00  6A1D               	clrf	(___flmul@grs+1)^0,c
  8130   001B02  6A1E               	clrf	(___flmul@grs+2)^0,c
  8131   001B04  6A1F               	clrf	(___flmul@grs+3)^0,c
  8132   001B06  5027               	movf	(___flmul@temp+1)^0,w,c
  8133   001B08  6E22               	movwf	___flmul@prod^0,c
  8134   001B0A  6A23               	clrf	(___flmul@prod+1)^0,c
  8135   001B0C  6A24               	clrf	(___flmul@prod+2)^0,c
  8136   001B0E  6A25               	clrf	(___flmul@prod+3)^0,c
  8137   001B10  5014               	movf	(___flmul@a+1)^0,w,c
  8138   001B12  0210               	mulwf	(___flmul@b+1)^0,c
  8139   001B14  CFF3 F026          	movff	prodl,___flmul@temp
  8140   001B18  CFF4 F027          	movff	prodh,___flmul@temp+1
  8141   001B1C  5026               	movf	___flmul@temp^0,w,c
  8142   001B1E  261C               	addwf	___flmul@grs^0,f,c
  8143   001B20  0E00               	movlw	0
  8144   001B22  221D               	addwfc	(___flmul@grs+1)^0,f,c
  8145   001B24  221E               	addwfc	(___flmul@grs+2)^0,f,c
  8146   001B26  221F               	addwfc	(___flmul@grs+3)^0,f,c
  8147   001B28  5027               	movf	(___flmul@temp+1)^0,w,c
  8148   001B2A  2622               	addwf	___flmul@prod^0,f,c
  8149   001B2C  0E00               	movlw	0
  8150   001B2E  2223               	addwfc	(___flmul@prod+1)^0,f,c
  8151   001B30  2224               	addwfc	(___flmul@prod+2)^0,f,c
  8152   001B32  2225               	addwfc	(___flmul@prod+3)^0,f,c
  8153   001B34  5013               	movf	___flmul@a^0,w,c
  8154   001B36  0211               	mulwf	(___flmul@b+2)^0,c
  8155   001B38  CFF3 F026          	movff	prodl,___flmul@temp
  8156   001B3C  CFF4 F027          	movff	prodh,___flmul@temp+1
  8157   001B40  5026               	movf	___flmul@temp^0,w,c
  8158   001B42  261C               	addwf	___flmul@grs^0,f,c
  8159   001B44  0E00               	movlw	0
  8160   001B46  221D               	addwfc	(___flmul@grs+1)^0,f,c
  8161   001B48  221E               	addwfc	(___flmul@grs+2)^0,f,c
  8162   001B4A  221F               	addwfc	(___flmul@grs+3)^0,f,c
  8163   001B4C  5027               	movf	(___flmul@temp+1)^0,w,c
  8164   001B4E  2622               	addwf	___flmul@prod^0,f,c
  8165   001B50  0E00               	movlw	0
  8166   001B52  2223               	addwfc	(___flmul@prod+1)^0,f,c
  8167   001B54  2224               	addwfc	(___flmul@prod+2)^0,f,c
  8168   001B56  2225               	addwfc	(___flmul@prod+3)^0,f,c
  8169   001B58  C01E  F01F         	movff	___flmul@grs+2,___flmul@grs+3
  8170   001B5C  C01D  F01E         	movff	___flmul@grs+1,___flmul@grs+2
  8171   001B60  C01C  F01D         	movff	___flmul@grs,___flmul@grs+1
  8172   001B64  6A1C               	clrf	___flmul@grs^0,c
  8173   001B66  5013               	movf	___flmul@a^0,w,c
  8174   001B68  0210               	mulwf	(___flmul@b+1)^0,c
  8175   001B6A  CFF3 F026          	movff	prodl,___flmul@temp
  8176   001B6E  CFF4 F027          	movff	prodh,___flmul@temp+1
  8177   001B72  5026               	movf	___flmul@temp^0,w,c
  8178   001B74  261C               	addwf	___flmul@grs^0,f,c
  8179   001B76  5027               	movf	(___flmul@temp+1)^0,w,c
  8180   001B78  221D               	addwfc	(___flmul@grs+1)^0,f,c
  8181   001B7A  0E00               	movlw	0
  8182   001B7C  221E               	addwfc	(___flmul@grs+2)^0,f,c
  8183   001B7E  0E00               	movlw	0
  8184   001B80  221F               	addwfc	(___flmul@grs+3)^0,f,c
  8185   001B82  5014               	movf	(___flmul@a+1)^0,w,c
  8186   001B84  020F               	mulwf	___flmul@b^0,c
  8187   001B86  CFF3 F026          	movff	prodl,___flmul@temp
  8188   001B8A  CFF4 F027          	movff	prodh,___flmul@temp+1
  8189   001B8E  5026               	movf	___flmul@temp^0,w,c
  8190   001B90  261C               	addwf	___flmul@grs^0,f,c
  8191   001B92  5027               	movf	(___flmul@temp+1)^0,w,c
  8192   001B94  221D               	addwfc	(___flmul@grs+1)^0,f,c
  8193   001B96  0E00               	movlw	0
  8194   001B98  221E               	addwfc	(___flmul@grs+2)^0,f,c
  8195   001B9A  0E00               	movlw	0
  8196   001B9C  221F               	addwfc	(___flmul@grs+3)^0,f,c
  8197   001B9E  C01E  F01F         	movff	___flmul@grs+2,___flmul@grs+3
  8198   001BA2  C01D  F01E         	movff	___flmul@grs+1,___flmul@grs+2
  8199   001BA6  C01C  F01D         	movff	___flmul@grs,___flmul@grs+1
  8200   001BAA  6A1C               	clrf	___flmul@grs^0,c
  8201   001BAC  5013               	movf	___flmul@a^0,w,c
  8202   001BAE  020F               	mulwf	___flmul@b^0,c
  8203   001BB0  CFF3 F026          	movff	prodl,___flmul@temp
  8204   001BB4  CFF4 F027          	movff	prodh,___flmul@temp+1
  8205   001BB8  5026               	movf	___flmul@temp^0,w,c
  8206   001BBA  261C               	addwf	___flmul@grs^0,f,c
  8207   001BBC  5027               	movf	(___flmul@temp+1)^0,w,c
  8208   001BBE  221D               	addwfc	(___flmul@grs+1)^0,f,c
  8209   001BC0  0E00               	movlw	0
  8210   001BC2  221E               	addwfc	(___flmul@grs+2)^0,f,c
  8211   001BC4  0E00               	movlw	0
  8212   001BC6  221F               	addwfc	(___flmul@grs+3)^0,f,c
  8213   001BC8  5015               	movf	(___flmul@a+2)^0,w,c
  8214   001BCA  0210               	mulwf	(___flmul@b+1)^0,c
  8215   001BCC  CFF3 F026          	movff	prodl,___flmul@temp
  8216   001BD0  CFF4 F027          	movff	prodh,___flmul@temp+1
  8217   001BD4  5026               	movf	___flmul@temp^0,w,c
  8218   001BD6  2622               	addwf	___flmul@prod^0,f,c
  8219   001BD8  5027               	movf	(___flmul@temp+1)^0,w,c
  8220   001BDA  2223               	addwfc	(___flmul@prod+1)^0,f,c
  8221   001BDC  0E00               	movlw	0
  8222   001BDE  2224               	addwfc	(___flmul@prod+2)^0,f,c
  8223   001BE0  0E00               	movlw	0
  8224   001BE2  2225               	addwfc	(___flmul@prod+3)^0,f,c
  8225   001BE4  5014               	movf	(___flmul@a+1)^0,w,c
  8226   001BE6  0211               	mulwf	(___flmul@b+2)^0,c
  8227   001BE8  CFF3 F026          	movff	prodl,___flmul@temp
  8228   001BEC  CFF4 F027          	movff	prodh,___flmul@temp+1
  8229   001BF0  5026               	movf	___flmul@temp^0,w,c
  8230   001BF2  2622               	addwf	___flmul@prod^0,f,c
  8231   001BF4  5027               	movf	(___flmul@temp+1)^0,w,c
  8232   001BF6  2223               	addwfc	(___flmul@prod+1)^0,f,c
  8233   001BF8  0E00               	movlw	0
  8234   001BFA  2224               	addwfc	(___flmul@prod+2)^0,f,c
  8235   001BFC  0E00               	movlw	0
  8236   001BFE  2225               	addwfc	(___flmul@prod+3)^0,f,c
  8237   001C00  5015               	movf	(___flmul@a+2)^0,w,c
  8238   001C02  0211               	mulwf	(___flmul@b+2)^0,c
  8239   001C04  CFF3 F026          	movff	prodl,___flmul@temp
  8240   001C08  CFF4 F027          	movff	prodh,___flmul@temp+1
  8241   001C0C  5026               	movf	___flmul@temp^0,w,c
  8242   001C0E  6E17               	movwf	??___flmul^0,c
  8243   001C10  5027               	movf	(___flmul@temp+1)^0,w,c
  8244   001C12  6E18               	movwf	(??___flmul+1)^0,c
  8245   001C14  6A19               	clrf	(??___flmul+2)^0,c
  8246   001C16  6A1A               	clrf	(??___flmul+3)^0,c
  8247   001C18  C019  F01A         	movff	??___flmul+2,??___flmul+3
  8248   001C1C  C018  F019         	movff	??___flmul+1,??___flmul+2
  8249   001C20  C017  F018         	movff	??___flmul,??___flmul+1
  8250   001C24  6A17               	clrf	??___flmul^0,c
  8251   001C26  5017               	movf	??___flmul^0,w,c
  8252   001C28  2622               	addwf	___flmul@prod^0,f,c
  8253   001C2A  5018               	movf	(??___flmul+1)^0,w,c
  8254   001C2C  2223               	addwfc	(___flmul@prod+1)^0,f,c
  8255   001C2E  5019               	movf	(??___flmul+2)^0,w,c
  8256   001C30  2224               	addwfc	(___flmul@prod+2)^0,f,c
  8257   001C32  501A               	movf	(??___flmul+3)^0,w,c
  8258   001C34  2225               	addwfc	(___flmul@prod+3)^0,f,c
  8259   001C36  C01C  F017         	movff	___flmul@grs,??___flmul
  8260   001C3A  C01D  F018         	movff	___flmul@grs+1,??___flmul+1
  8261   001C3E  C01E  F019         	movff	___flmul@grs+2,??___flmul+2
  8262   001C42  C01F  F01A         	movff	___flmul@grs+3,??___flmul+3
  8263   001C46  0E19               	movlw	25
  8264   001C48  EF2B  F00E         	goto	i2u545_40
  8265   001C4C                     i2u545_45:
  8266   001C4C  90D8               	bcf	status,0,c
  8267   001C4E  321A               	rrcf	(??___flmul+3)^0,f,c
  8268   001C50  3219               	rrcf	(??___flmul+2)^0,f,c
  8269   001C52  3218               	rrcf	(??___flmul+1)^0,f,c
  8270   001C54  3217               	rrcf	??___flmul^0,f,c
  8271   001C56                     i2u545_40:
  8272   001C56  2EE8               	decfsz	wreg,f,c
  8273   001C58  EF26  F00E         	goto	i2u545_45
  8274   001C5C  5017               	movf	??___flmul^0,w,c
  8275   001C5E  2622               	addwf	___flmul@prod^0,f,c
  8276   001C60  5018               	movf	(??___flmul+1)^0,w,c
  8277   001C62  2223               	addwfc	(___flmul@prod+1)^0,f,c
  8278   001C64  5019               	movf	(??___flmul+2)^0,w,c
  8279   001C66  2224               	addwfc	(___flmul@prod+2)^0,f,c
  8280   001C68  501A               	movf	(??___flmul+3)^0,w,c
  8281   001C6A  2225               	addwfc	(___flmul@prod+3)^0,f,c
  8282   001C6C  C01E  F01F         	movff	___flmul@grs+2,___flmul@grs+3
  8283   001C70  C01D  F01E         	movff	___flmul@grs+1,___flmul@grs+2
  8284   001C74  C01C  F01D         	movff	___flmul@grs,___flmul@grs+1
  8285   001C78  6A1C               	clrf	___flmul@grs^0,c
  8286   001C7A  5020               	movf	___flmul@aexp^0,w,c
  8287   001C7C  C021  F017         	movff	___flmul@bexp,??___flmul
  8288   001C80  6A18               	clrf	(??___flmul+1)^0,c
  8289   001C82  2617               	addwf	??___flmul^0,f,c
  8290   001C84  0E00               	movlw	0
  8291   001C86  2218               	addwfc	(??___flmul+1)^0,f,c
  8292   001C88  0E82               	movlw	130
  8293   001C8A  2417               	addwf	??___flmul^0,w,c
  8294   001C8C  6E26               	movwf	___flmul@temp^0,c
  8295   001C8E  0EFF               	movlw	255
  8296   001C90  2018               	addwfc	(??___flmul+1)^0,w,c
  8297   001C92  6E27               	movwf	(___flmul@temp+1)^0,c
  8298   001C94  EF61  F00E         	goto	i2l6952
  8299   001C98                     i2l6946:
  8300   001C98  90D8               	bcf	status,0,c
  8301   001C9A  3622               	rlcf	___flmul@prod^0,f,c
  8302   001C9C  3623               	rlcf	(___flmul@prod+1)^0,f,c
  8303   001C9E  3624               	rlcf	(___flmul@prod+2)^0,f,c
  8304   001CA0  3625               	rlcf	(___flmul@prod+3)^0,f,c
  8305   001CA2  AE1F               	btfss	(___flmul@grs+3)^0,7,c
  8306   001CA4  EF56  F00E         	goto	i2u546_41
  8307   001CA8  EF58  F00E         	goto	i2u546_40
  8308   001CAC                     i2u546_41:
  8309   001CAC  EF59  F00E         	goto	i2l2343
  8310   001CB0                     i2u546_40:
  8311   001CB0  8022               	bsf	___flmul@prod^0,0,c
  8312   001CB2                     i2l2343:
  8313   001CB2  90D8               	bcf	status,0,c
  8314   001CB4  361C               	rlcf	___flmul@grs^0,f,c
  8315   001CB6  361D               	rlcf	(___flmul@grs+1)^0,f,c
  8316   001CB8  361E               	rlcf	(___flmul@grs+2)^0,f,c
  8317   001CBA  361F               	rlcf	(___flmul@grs+3)^0,f,c
  8318   001CBC  0626               	decf	___flmul@temp^0,f,c
  8319   001CBE  A0D8               	btfss	status,0,c
  8320   001CC0  0627               	decf	(___flmul@temp+1)^0,f,c
  8321   001CC2                     i2l6952:
  8322   001CC2  AE24               	btfss	(___flmul@prod+2)^0,7,c
  8323   001CC4  EF66  F00E         	goto	i2u547_41
  8324   001CC8  EF68  F00E         	goto	i2u547_40
  8325   001CCC                     i2u547_41:
  8326   001CCC  EF4C  F00E         	goto	i2l6946
  8327   001CD0                     i2u547_40:
  8328   001CD0  0E00               	movlw	0
  8329   001CD2  6E20               	movwf	___flmul@aexp^0,c
  8330   001CD4  AE1F               	btfss	(___flmul@grs+3)^0,7,c
  8331   001CD6  EF6F  F00E         	goto	i2u548_41
  8332   001CDA  EF71  F00E         	goto	i2u548_40
  8333   001CDE                     i2u548_41:
  8334   001CDE  EF95  F00E         	goto	i2l2345
  8335   001CE2                     i2u548_40:
  8336   001CE2  0EFF               	movlw	255
  8337   001CE4  141C               	andwf	___flmul@grs^0,w,c
  8338   001CE6  6E17               	movwf	??___flmul^0,c
  8339   001CE8  0EFF               	movlw	255
  8340   001CEA  141D               	andwf	(___flmul@grs+1)^0,w,c
  8341   001CEC  6E18               	movwf	(??___flmul+1)^0,c
  8342   001CEE  0EFF               	movlw	255
  8343   001CF0  141E               	andwf	(___flmul@grs+2)^0,w,c
  8344   001CF2  6E19               	movwf	(??___flmul+2)^0,c
  8345   001CF4  0E7F               	movlw	127
  8346   001CF6  141F               	andwf	(___flmul@grs+3)^0,w,c
  8347   001CF8  6E1A               	movwf	(??___flmul+3)^0,c
  8348   001CFA  5017               	movf	??___flmul^0,w,c
  8349   001CFC  1018               	iorwf	(??___flmul+1)^0,w,c
  8350   001CFE  1019               	iorwf	(??___flmul+2)^0,w,c
  8351   001D00  101A               	iorwf	(??___flmul+3)^0,w,c
  8352   001D02  B4D8               	btfsc	status,2,c
  8353   001D04  EF86  F00E         	goto	i2u549_41
  8354   001D08  EF88  F00E         	goto	i2u549_40
  8355   001D0C                     i2u549_41:
  8356   001D0C  EF8C  F00E         	goto	i2l2346
  8357   001D10                     i2u549_40:
  8358   001D10                     i2l6960:
  8359   001D10  0E01               	movlw	1
  8360   001D12  6E20               	movwf	___flmul@aexp^0,c
  8361   001D14  EF95  F00E         	goto	i2l2345
  8362   001D18                     i2l2346:
  8363   001D18  A022               	btfss	___flmul@prod^0,0,c
  8364   001D1A  EF91  F00E         	goto	i2u550_41
  8365   001D1E  EF93  F00E         	goto	i2u550_40
  8366   001D22                     i2u550_41:
  8367   001D22  EF95  F00E         	goto	i2l2345
  8368   001D26                     i2u550_40:
  8369   001D26  EF88  F00E         	goto	i2l6960
  8370   001D2A                     i2l2345:
  8371   001D2A  5020               	movf	___flmul@aexp^0,w,c
  8372   001D2C  B4D8               	btfsc	status,2,c
  8373   001D2E  EF9B  F00E         	goto	i2u551_41
  8374   001D32  EF9D  F00E         	goto	i2u551_40
  8375   001D36                     i2u551_41:
  8376   001D36  EFC1  F00E         	goto	i2l6972
  8377   001D3A                     i2u551_40:
  8378   001D3A  0E01               	movlw	1
  8379   001D3C  2622               	addwf	___flmul@prod^0,f,c
  8380   001D3E  0E00               	movlw	0
  8381   001D40  2223               	addwfc	(___flmul@prod+1)^0,f,c
  8382   001D42  2224               	addwfc	(___flmul@prod+2)^0,f,c
  8383   001D44  2225               	addwfc	(___flmul@prod+3)^0,f,c
  8384   001D46  A025               	btfss	(___flmul@prod+3)^0,0,c
  8385   001D48  EFA8  F00E         	goto	i2u552_41
  8386   001D4C  EFAA  F00E         	goto	i2u552_40
  8387   001D50                     i2u552_41:
  8388   001D50  EFC1  F00E         	goto	i2l6972
  8389   001D54                     i2u552_40:
  8390   001D54  C022  F017         	movff	___flmul@prod,??___flmul
  8391   001D58  C023  F018         	movff	___flmul@prod+1,??___flmul+1
  8392   001D5C  C024  F019         	movff	___flmul@prod+2,??___flmul+2
  8393   001D60  C025  F01A         	movff	___flmul@prod+3,??___flmul+3
  8394   001D64  341A               	rlcf	(??___flmul+3)^0,w,c
  8395   001D66  321A               	rrcf	(??___flmul+3)^0,f,c
  8396   001D68  3219               	rrcf	(??___flmul+2)^0,f,c
  8397   001D6A  3218               	rrcf	(??___flmul+1)^0,f,c
  8398   001D6C  3217               	rrcf	??___flmul^0,f,c
  8399   001D6E  C017  F022         	movff	??___flmul,___flmul@prod
  8400   001D72  C018  F023         	movff	??___flmul+1,___flmul@prod+1
  8401   001D76  C019  F024         	movff	??___flmul+2,___flmul@prod+2
  8402   001D7A  C01A  F025         	movff	??___flmul+3,___flmul@prod+3
  8403   001D7E  4A26               	infsnz	___flmul@temp^0,f,c
  8404   001D80  2A27               	incf	(___flmul@temp+1)^0,f,c
  8405   001D82                     i2l6972:
  8406   001D82  BE27               	btfsc	(___flmul@temp+1)^0,7,c
  8407   001D84  EFCC  F00E         	goto	i2u553_41
  8408   001D88  5027               	movf	(___flmul@temp+1)^0,w,c
  8409   001D8A  E108               	bnz	i2u553_40
  8410   001D8C  2826               	incf	___flmul@temp^0,w,c
  8411   001D8E  A0D8               	btfss	status,0,c
  8412   001D90  EFCC  F00E         	goto	i2u553_41
  8413   001D94  EFCE  F00E         	goto	i2u553_40
  8414   001D98                     i2u553_41:
  8415   001D98  EFD8  F00E         	goto	i2l6976
  8416   001D9C                     i2u553_40:
  8417   001D9C  0E00               	movlw	0
  8418   001D9E  6E22               	movwf	___flmul@prod^0,c
  8419   001DA0  0E00               	movlw	0
  8420   001DA2  6E23               	movwf	(___flmul@prod+1)^0,c
  8421   001DA4  0E80               	movlw	128
  8422   001DA6  6E24               	movwf	(___flmul@prod+2)^0,c
  8423   001DA8  0E7F               	movlw	127
  8424   001DAA  6E25               	movwf	(___flmul@prod+3)^0,c
  8425   001DAC  EF06  F00F         	goto	i2l6988
  8426   001DB0                     i2l6976:
  8427   001DB0  BE27               	btfsc	(___flmul@temp+1)^0,7,c
  8428   001DB2  EFE5  F00E         	goto	i2u554_40
  8429   001DB6  5027               	movf	(___flmul@temp+1)^0,w,c
  8430   001DB8  E106               	bnz	i2u554_41
  8431   001DBA  0426               	decf	___flmul@temp^0,w,c
  8432   001DBC  B0D8               	btfsc	status,0,c
  8433   001DBE  EFE3  F00E         	goto	i2u554_41
  8434   001DC2  EFE5  F00E         	goto	i2u554_40
  8435   001DC6                     i2u554_41:
  8436   001DC6  EFF1  F00E         	goto	i2l2353
  8437   001DCA                     i2u554_40:
  8438   001DCA  0E00               	movlw	0
  8439   001DCC  6E22               	movwf	___flmul@prod^0,c
  8440   001DCE  0E00               	movlw	0
  8441   001DD0  6E23               	movwf	(___flmul@prod+1)^0,c
  8442   001DD2  0E00               	movlw	0
  8443   001DD4  6E24               	movwf	(___flmul@prod+2)^0,c
  8444   001DD6  0E00               	movlw	0
  8445   001DD8  6E25               	movwf	(___flmul@prod+3)^0,c
  8446   001DDA  0E00               	movlw	0
  8447   001DDC  6E1B               	movwf	___flmul@sign^0,c
  8448   001DDE  EF06  F00F         	goto	i2l6988
  8449   001DE2                     i2l2353:
  8450   001DE2  C026  F021         	movff	___flmul@temp,___flmul@bexp
  8451   001DE6  0EFF               	movlw	255
  8452   001DE8  1622               	andwf	___flmul@prod^0,f,c
  8453   001DEA  0EFF               	movlw	255
  8454   001DEC  1623               	andwf	(___flmul@prod+1)^0,f,c
  8455   001DEE  0E7F               	movlw	127
  8456   001DF0  1624               	andwf	(___flmul@prod+2)^0,f,c
  8457   001DF2  0E00               	movlw	0
  8458   001DF4  1625               	andwf	(___flmul@prod+3)^0,f,c
  8459   001DF6  A021               	btfss	___flmul@bexp^0,0,c
  8460   001DF8  EF00  F00F         	goto	i2u555_41
  8461   001DFC  EF02  F00F         	goto	i2u555_40
  8462   001E00                     i2u555_41:
  8463   001E00  EF03  F00F         	goto	i2l6986
  8464   001E04                     i2u555_40:
  8465   001E04  8E24               	bsf	(___flmul@prod+2)^0,7,c
  8466   001E06                     i2l6986:
  8467   001E06  90D8               	bcf	status,0,c
  8468   001E08  3021               	rrcf	___flmul@bexp^0,w,c
  8469   001E0A  6E25               	movwf	(___flmul@prod+3)^0,c
  8470   001E0C                     i2l6988:
  8471   001E0C  501B               	movf	___flmul@sign^0,w,c
  8472   001E0E  1225               	iorwf	(___flmul@prod+3)^0,f,c
  8473   001E10  C022  F00F         	movff	___flmul@prod,?___flmul
  8474   001E14  C023  F010         	movff	___flmul@prod+1,?___flmul+1
  8475   001E18  C024  F011         	movff	___flmul@prod+2,?___flmul+2
  8476   001E1C  C025  F012         	movff	___flmul@prod+3,?___flmul+3
  8477   001E20                     i2l2340:
  8478   001E20  0012               	return		;funcret
  8479   001E22                     __end_of___flmul:
  8480                           	callstack 0
  8481                           
  8482 ;; *************** function _ADC_GetConversion_Blocking *****************
  8483 ;; Defined at:
  8484 ;;		line 194 in file "MCAL_layer/ADC/mcal_adc.c"
  8485 ;; Parameters:    Size  Location     Type
  8486 ;;  adc_obj         2    8[COMRAM] PTR const struct .
  8487 ;;		 -> lm35_room2(6), lm35_room1(6), lm35_reseption(6), 
  8488 ;;  channel         1   10[COMRAM] enum E3044
  8489 ;;  conversion_r    1   11[COMRAM] PTR unsigned short 
  8490 ;;		 -> LM35_GetTempCelsius@l_conversion_res(2), 
  8491 ;; Auto vars:     Size  Location     Type
  8492 ;;  error_state     1   13[COMRAM] unsigned char 
  8493 ;;  l_conversion    1   12[COMRAM] unsigned char 
  8494 ;; Return value:  Size  Location     Type
  8495 ;;                  1    wreg      unsigned char 
  8496 ;; Registers used:
  8497 ;;		wreg, fsr2l, fsr2h, status,2, status,0, cstack
  8498 ;; Tracked objects:
  8499 ;;		On entry : 0/0
  8500 ;;		On exit  : 0/0
  8501 ;;		Unchanged: 0/0
  8502 ;; Data sizes:     COMRAM   BANK0   BANK1   BANK2   BANK3   BANK4   BANK5   BANK6   BANK7   BANK8   BANK9  BANK10  BANK1
      +1  BANK12  BANK13  BANK14  BANK15
  8503 ;;      Params:         4       0       0       0       0       0       0       0       0       0       0       0       
      +0       0       0       0       0
  8504 ;;      Locals:         2       0       0       0       0       0       0       0       0       0       0       0       
      +0       0       0       0       0
  8505 ;;      Temps:          0       0       0       0       0       0       0       0       0       0       0       0       
      +0       0       0       0       0
  8506 ;;      Totals:         6       0       0       0       0       0       0       0       0       0       0       0       
      +0       0       0       0       0
  8507 ;;Total ram usage:        6 bytes
  8508 ;; Hardware stack levels used: 1
  8509 ;; Hardware stack levels required when called: 2
  8510 ;; This function calls:
  8511 ;;		_ADC_GetConversionResult
  8512 ;;		_ADC_SelectChannel
  8513 ;;		_ADC_StartConversion
  8514 ;; This function is called by:
  8515 ;;		_LM35_GetTempCelsius
  8516 ;; This function uses a non-reentrant model
  8517 ;;
  8518                           
  8519                           	psect	text40
  8520   003ABA                     __ptext40:
  8521                           	callstack 0
  8522   003ABA                     _ADC_GetConversion_Blocking:
  8523                           	callstack 19
  8524   003ABA                     
  8525                           ;MCAL_layer/ADC/mcal_adc.c: 197:     uint8 l_conversion_status = 0 ;
  8526   003ABA  0E00               	movlw	0
  8527   003ABC  6E0D               	movwf	ADC_GetConversion_Blocking@l_conversion_status^0,c
  8528   003ABE                     
  8529                           ;MCAL_layer/ADC/mcal_adc.c: 198:     if((((void*)0) == adc_obj) || (((void*)0) == conver
      +                          sion_result)){
  8530   003ABE  5009               	movf	ADC_GetConversion_Blocking@adc_obj^0,w,c
  8531   003AC0  100A               	iorwf	(ADC_GetConversion_Blocking@adc_obj+1)^0,w,c
  8532   003AC2  B4D8               	btfsc	status,2,c
  8533   003AC4  EF66  F01D         	goto	i2u824_41
  8534   003AC8  EF68  F01D         	goto	i2u824_40
  8535   003ACC                     i2u824_41:
  8536   003ACC  EF70  F01D         	goto	i2l9188
  8537   003AD0                     i2u824_40:
  8538   003AD0  500C               	movf	ADC_GetConversion_Blocking@conversion_result^0,w,c
  8539   003AD2  A4D8               	btfss	status,2,c
  8540   003AD4  EF6E  F01D         	goto	i2u825_41
  8541   003AD8  EF70  F01D         	goto	i2u825_40
  8542   003ADC                     i2u825_41:
  8543   003ADC  EF74  F01D         	goto	i2l9190
  8544   003AE0                     i2u825_40:
  8545   003AE0                     i2l9188:
  8546                           
  8547                           ;MCAL_layer/ADC/mcal_adc.c: 199:          error_state = (STD_ReturnType)0x00 ;
  8548   003AE0  0E00               	movlw	0
  8549   003AE2  6E0E               	movwf	ADC_GetConversion_Blocking@error_state^0,c
  8550                           
  8551                           ;MCAL_layer/ADC/mcal_adc.c: 200:     }
  8552   003AE4  EF94  F01D         	goto	i2l9194
  8553   003AE8                     i2l9190:
  8554                           
  8555                           ;MCAL_layer/ADC/mcal_adc.c: 203:         error_state = ADC_SelectChannel(adc_obj, channe
      +                          l);
  8556   003AE8  C009  F004         	movff	ADC_GetConversion_Blocking@adc_obj,ADC_SelectChannel@adc_obj
  8557   003AEC  C00A  F005         	movff	ADC_GetConversion_Blocking@adc_obj+1,ADC_SelectChannel@adc_obj+1
  8558   003AF0  C00B  F006         	movff	ADC_GetConversion_Blocking@channel,ADC_SelectChannel@channel
  8559   003AF4  EC4A  F01F         	call	_ADC_SelectChannel	;wreg free
  8560   003AF8  6E0E               	movwf	ADC_GetConversion_Blocking@error_state^0,c
  8561                           
  8562                           ;MCAL_layer/ADC/mcal_adc.c: 205:         error_state = ADC_StartConversion(adc_obj);
  8563   003AFA  C009  F001         	movff	ADC_GetConversion_Blocking@adc_obj,ADC_StartConversion@adc_obj
  8564   003AFE  C00A  F002         	movff	ADC_GetConversion_Blocking@adc_obj+1,ADC_StartConversion@adc_obj+1
  8565   003B02  ECC3  F01F         	call	_ADC_StartConversion	;wreg free
  8566   003B06  6E0E               	movwf	ADC_GetConversion_Blocking@error_state^0,c
  8567   003B08                     i2l382:
  8568   003B08  B2C2               	btfsc	194,1,c	;volatile
  8569   003B0A  EF89  F01D         	goto	i2u826_41
  8570   003B0E  EF8B  F01D         	goto	i2u826_40
  8571   003B12                     i2u826_41:
  8572   003B12  EF84  F01D         	goto	i2l382
  8573   003B16                     i2u826_40:
  8574   003B16                     
  8575                           ;MCAL_layer/ADC/mcal_adc.c: 208:         error_state = ADC_GetConversionResult(adc_obj ,
      +                           conversion_result);
  8576   003B16  C009  F001         	movff	ADC_GetConversion_Blocking@adc_obj,ADC_GetConversionResult@adc_obj
  8577   003B1A  C00A  F002         	movff	ADC_GetConversion_Blocking@adc_obj+1,ADC_GetConversionResult@adc_obj+1
  8578   003B1E  C00C  F003         	movff	ADC_GetConversion_Blocking@conversion_result,ADC_GetConversionResult@conversion_r
      +                          esult
  8579   003B22  EC2F  F01B         	call	_ADC_GetConversionResult	;wreg free
  8580   003B26  6E0E               	movwf	ADC_GetConversion_Blocking@error_state^0,c
  8581   003B28                     i2l9194:
  8582                           
  8583                           ;MCAL_layer/ADC/mcal_adc.c: 211:     return error_state ;
  8584   003B28  500E               	movf	ADC_GetConversion_Blocking@error_state^0,w,c
  8585   003B2A  0012               	return		;funcret
  8586   003B2C                     __end_of_ADC_GetConversion_Blocking:
  8587                           	callstack 0
  8588                           
  8589 ;; *************** function _ADC_StartConversion *****************
  8590 ;; Defined at:
  8591 ;;		line 116 in file "MCAL_layer/ADC/mcal_adc.c"
  8592 ;; Parameters:    Size  Location     Type
  8593 ;;  adc_obj         2    0[COMRAM] PTR const struct .
  8594 ;;		 -> lm35_room2(6), lm35_room1(6), lm35_reseption(6), 
  8595 ;; Auto vars:     Size  Location     Type
  8596 ;;  error_state     1    2[COMRAM] unsigned char 
  8597 ;; Return value:  Size  Location     Type
  8598 ;;                  1    wreg      unsigned char 
  8599 ;; Registers used:
  8600 ;;		wreg, status,2, status,0
  8601 ;; Tracked objects:
  8602 ;;		On entry : 0/0
  8603 ;;		On exit  : 0/0
  8604 ;;		Unchanged: 0/0
  8605 ;; Data sizes:     COMRAM   BANK0   BANK1   BANK2   BANK3   BANK4   BANK5   BANK6   BANK7   BANK8   BANK9  BANK10  BANK1
      +1  BANK12  BANK13  BANK14  BANK15
  8606 ;;      Params:         2       0       0       0       0       0       0       0       0       0       0       0       
      +0       0       0       0       0
  8607 ;;      Locals:         1       0       0       0       0       0       0       0       0       0       0       0       
      +0       0       0       0       0
  8608 ;;      Temps:          0       0       0       0       0       0       0       0       0       0       0       0       
      +0       0       0       0       0
  8609 ;;      Totals:         3       0       0       0       0       0       0       0       0       0       0       0       
      +0       0       0       0       0
  8610 ;;Total ram usage:        3 bytes
  8611 ;; Hardware stack levels used: 1
  8612 ;; This function calls:
  8613 ;;		Nothing
  8614 ;; This function is called by:
  8615 ;;		_ADC_GetConversion_Blocking
  8616 ;;		_ADC_GetConversion_Interrrupt
  8617 ;;		_ADC_StartConversion_Interrupt
  8618 ;; This function uses a non-reentrant model
  8619 ;;
  8620                           
  8621                           	psect	text41
  8622   003F86                     __ptext41:
  8623                           	callstack 0
  8624   003F86                     _ADC_StartConversion:
  8625                           	callstack 20
  8626   003F86                     
  8627                           ;MCAL_layer/ADC/mcal_adc.c: 118:     if(((void*)0) == adc_obj){
  8628   003F86  5001               	movf	ADC_StartConversion@adc_obj^0,w,c
  8629   003F88  1002               	iorwf	(ADC_StartConversion@adc_obj+1)^0,w,c
  8630   003F8A  A4D8               	btfss	status,2,c
  8631   003F8C  EFCA  F01F         	goto	i2u738_41
  8632   003F90  EFCC  F01F         	goto	i2u738_40
  8633   003F94                     i2u738_41:
  8634   003F94  EFD0  F01F         	goto	i2l355
  8635   003F98                     i2u738_40:
  8636   003F98                     
  8637                           ;MCAL_layer/ADC/mcal_adc.c: 119:          error_state = (STD_ReturnType)0x00 ;
  8638   003F98  0E00               	movlw	0
  8639   003F9A  6E03               	movwf	ADC_StartConversion@error_state^0,c
  8640                           
  8641                           ;MCAL_layer/ADC/mcal_adc.c: 120:     }
  8642   003F9C  EFD3  F01F         	goto	i2l356
  8643   003FA0                     i2l355:
  8644                           
  8645                           ;MCAL_layer/ADC/mcal_adc.c: 122:         (ADCON0bits.GODONE = 1);
  8646   003FA0  82C2               	bsf	194,1,c	;volatile
  8647   003FA2                     
  8648                           ;MCAL_layer/ADC/mcal_adc.c: 123:         error_state = (STD_ReturnType)0x01 ;
  8649   003FA2  0E01               	movlw	1
  8650   003FA4  6E03               	movwf	ADC_StartConversion@error_state^0,c
  8651   003FA6                     i2l356:
  8652                           
  8653                           ;MCAL_layer/ADC/mcal_adc.c: 125:     return error_state ;
  8654   003FA6  5003               	movf	ADC_StartConversion@error_state^0,w,c
  8655   003FA8  0012               	return		;funcret
  8656   003FAA                     __end_of_ADC_StartConversion:
  8657                           	callstack 0
  8658                           
  8659 ;; *************** function _ADC_SelectChannel *****************
  8660 ;; Defined at:
  8661 ;;		line 93 in file "MCAL_layer/ADC/mcal_adc.c"
  8662 ;; Parameters:    Size  Location     Type
  8663 ;;  adc_obj         2    3[COMRAM] PTR const struct .
  8664 ;;		 -> lm35_room2(6), lm35_room1(6), lm35_reseption(6), 
  8665 ;;  channel         1    5[COMRAM] enum E3044
  8666 ;; Auto vars:     Size  Location     Type
  8667 ;;  error_state     1    7[COMRAM] unsigned char 
  8668 ;; Return value:  Size  Location     Type
  8669 ;;                  1    wreg      unsigned char 
  8670 ;; Registers used:
  8671 ;;		wreg, status,2, status,0, cstack
  8672 ;; Tracked objects:
  8673 ;;		On entry : 0/0
  8674 ;;		On exit  : 0/0
  8675 ;;		Unchanged: 0/0
  8676 ;; Data sizes:     COMRAM   BANK0   BANK1   BANK2   BANK3   BANK4   BANK5   BANK6   BANK7   BANK8   BANK9  BANK10  BANK1
      +1  BANK12  BANK13  BANK14  BANK15
  8677 ;;      Params:         3       0       0       0       0       0       0       0       0       0       0       0       
      +0       0       0       0       0
  8678 ;;      Locals:         1       0       0       0       0       0       0       0       0       0       0       0       
      +0       0       0       0       0
  8679 ;;      Temps:          1       0       0       0       0       0       0       0       0       0       0       0       
      +0       0       0       0       0
  8680 ;;      Totals:         5       0       0       0       0       0       0       0       0       0       0       0       
      +0       0       0       0       0
  8681 ;;Total ram usage:        5 bytes
  8682 ;; Hardware stack levels used: 1
  8683 ;; Hardware stack levels required when called: 1
  8684 ;; This function calls:
  8685 ;;		i2_adc_input_cahnnel_port_configure
  8686 ;; This function is called by:
  8687 ;;		_ADC_GetConversion_Blocking
  8688 ;;		_ADC_GetConversion_Interrrupt
  8689 ;;		_ADC_StartConversion_Interrupt
  8690 ;; This function uses a non-reentrant model
  8691 ;;
  8692                           
  8693                           	psect	text42
  8694   003E94                     __ptext42:
  8695                           	callstack 0
  8696   003E94                     _ADC_SelectChannel:
  8697                           	callstack 19
  8698   003E94                     
  8699                           ;MCAL_layer/ADC/mcal_adc.c: 95:     if(((void*)0) == adc_obj){
  8700   003E94  5004               	movf	ADC_SelectChannel@adc_obj^0,w,c
  8701   003E96  1005               	iorwf	(ADC_SelectChannel@adc_obj+1)^0,w,c
  8702   003E98  A4D8               	btfss	status,2,c
  8703   003E9A  EF51  F01F         	goto	i2u737_41
  8704   003E9E  EF53  F01F         	goto	i2u737_40
  8705   003EA2                     i2u737_41:
  8706   003EA2  EF57  F01F         	goto	i2l8642
  8707   003EA6                     i2u737_40:
  8708   003EA6                     
  8709                           ;MCAL_layer/ADC/mcal_adc.c: 96:         error_state = (STD_ReturnType)0x00 ;
  8710   003EA6  0E00               	movlw	0
  8711   003EA8  6E08               	movwf	ADC_SelectChannel@error_state^0,c
  8712                           
  8713                           ;MCAL_layer/ADC/mcal_adc.c: 97:     }
  8714   003EAA  EF65  F01F         	goto	i2l8648
  8715   003EAE                     i2l8642:
  8716                           
  8717                           ;MCAL_layer/ADC/mcal_adc.c: 100:         (ADCON0bits.CHS = channel);
  8718   003EAE  C006  F007         	movff	ADC_SelectChannel@channel,??_ADC_SelectChannel
  8719   003EB2  4607               	rlncf	??_ADC_SelectChannel^0,f,c
  8720   003EB4  4607               	rlncf	??_ADC_SelectChannel^0,f,c
  8721   003EB6  50C2               	movf	194,w,c	;volatile
  8722   003EB8  1807               	xorwf	??_ADC_SelectChannel^0,w,c
  8723   003EBA  0BC3               	andlw	-61
  8724   003EBC  1807               	xorwf	??_ADC_SelectChannel^0,w,c
  8725   003EBE  6EC2               	movwf	194,c	;volatile
  8726   003EC0                     
  8727                           ;MCAL_layer/ADC/mcal_adc.c: 101:         adc_input_cahnnel_port_configure(channel);
  8728   003EC0  5006               	movf	ADC_SelectChannel@channel^0,w,c
  8729   003EC2  EC26  F018         	call	i2_adc_input_cahnnel_port_configure
  8730   003EC6                     
  8731                           ;MCAL_layer/ADC/mcal_adc.c: 103:         error_state = (STD_ReturnType)0x01 ;
  8732   003EC6  0E01               	movlw	1
  8733   003EC8  6E08               	movwf	ADC_SelectChannel@error_state^0,c
  8734   003ECA                     i2l8648:
  8735                           
  8736                           ;MCAL_layer/ADC/mcal_adc.c: 105:     return error_state ;
  8737   003ECA  5008               	movf	ADC_SelectChannel@error_state^0,w,c
  8738   003ECC  0012               	return		;funcret
  8739   003ECE                     __end_of_ADC_SelectChannel:
  8740                           	callstack 0
  8741                           
  8742 ;; *************** function i2_adc_input_cahnnel_port_configure *****************
  8743 ;; Defined at:
  8744 ;;		line 260 in file "MCAL_layer/ADC/mcal_adc.c"
  8745 ;; Parameters:    Size  Location     Type
  8746 ;;  channel         1    wreg     enum E3044
  8747 ;; Auto vars:     Size  Location     Type
  8748 ;;  channel         1    2[COMRAM] enum E3044
  8749 ;; Return value:  Size  Location     Type
  8750 ;;                  1    wreg      void 
  8751 ;; Registers used:
  8752 ;;		wreg, status,2, status,0
  8753 ;; Tracked objects:
  8754 ;;		On entry : 0/0
  8755 ;;		On exit  : 0/0
  8756 ;;		Unchanged: 0/0
  8757 ;; Data sizes:     COMRAM   BANK0   BANK1   BANK2   BANK3   BANK4   BANK5   BANK6   BANK7   BANK8   BANK9  BANK10  BANK1
      +1  BANK12  BANK13  BANK14  BANK15
  8758 ;;      Params:         0       0       0       0       0       0       0       0       0       0       0       0       
      +0       0       0       0       0
  8759 ;;      Locals:         1       0       0       0       0       0       0       0       0       0       0       0       
      +0       0       0       0       0
  8760 ;;      Temps:          2       0       0       0       0       0       0       0       0       0       0       0       
      +0       0       0       0       0
  8761 ;;      Totals:         3       0       0       0       0       0       0       0       0       0       0       0       
      +0       0       0       0       0
  8762 ;;Total ram usage:        3 bytes
  8763 ;; Hardware stack levels used: 1
  8764 ;; This function calls:
  8765 ;;		Nothing
  8766 ;; This function is called by:
  8767 ;;		_ADC_SelectChannel
  8768 ;; This function uses a non-reentrant model
  8769 ;;
  8770                           
  8771                           	psect	text43
  8772   00304C                     __ptext43:
  8773                           	callstack 0
  8774   00304C                     i2_adc_input_cahnnel_port_configure:
  8775                           	callstack 19
  8776                           
  8777                           ;incstack = 0
  8778                           ;i2adc_input_cahnnel_port_configure@channel stored from wreg
  8779   00304C  6E03               	movwf	i2adc_input_cahnnel_port_configure@channel^0,c
  8780   00304E                     
  8781                           ;MCAL_layer/ADC/mcal_adc.c: 261:     switch(channel){
  8782   00304E  EF50  F018         	goto	i2l5976
  8783   003052                     i2l5948:
  8784   003052  8092               	bsf	146,0,c	;volatile
  8785   003054  EF91  F018         	goto	i2l418
  8786   003058                     i2l5950:
  8787   003058  8292               	bsf	146,1,c	;volatile
  8788   00305A  EF91  F018         	goto	i2l418
  8789   00305E                     i2l5952:
  8790   00305E  8492               	bsf	146,2,c	;volatile
  8791   003060  EF91  F018         	goto	i2l418
  8792   003064                     i2l5954:
  8793   003064  8692               	bsf	146,3,c	;volatile
  8794   003066  EF91  F018         	goto	i2l418
  8795   00306A                     i2l5956:
  8796   00306A  8A92               	bsf	146,5,c	;volatile
  8797   00306C  EF91  F018         	goto	i2l418
  8798   003070                     i2l5958:
  8799   003070  8096               	bsf	150,0,c	;volatile
  8800   003072  EF91  F018         	goto	i2l418
  8801   003076                     i2l5960:
  8802   003076  8296               	bsf	150,1,c	;volatile
  8803   003078  EF91  F018         	goto	i2l418
  8804   00307C                     i2l5962:
  8805   00307C  8496               	bsf	150,2,c	;volatile
  8806   00307E  EF91  F018         	goto	i2l418
  8807   003082                     i2l5964:
  8808   003082  8493               	bsf	147,2,c	;volatile
  8809   003084  EF91  F018         	goto	i2l418
  8810   003088                     i2l5966:
  8811   003088  8693               	bsf	147,3,c	;volatile
  8812   00308A  EF91  F018         	goto	i2l418
  8813   00308E                     i2l5968:
  8814   00308E  8293               	bsf	147,1,c	;volatile
  8815   003090  EF91  F018         	goto	i2l418
  8816   003094                     i2l5970:
  8817   003094  8893               	bsf	147,4,c	;volatile
  8818   003096  EF91  F018         	goto	i2l418
  8819   00309A                     i2l5972:
  8820   00309A  8093               	bsf	147,0,c	;volatile
  8821   00309C  EF91  F018         	goto	i2l418
  8822   0030A0                     i2l5976:
  8823   0030A0  5003               	movf	i2adc_input_cahnnel_port_configure@channel^0,w,c
  8824   0030A2  6E01               	movwf	??i2_adc_input_cahnnel_port_configure^0,c
  8825   0030A4  6A02               	clrf	(??i2_adc_input_cahnnel_port_configure+1)^0,c
  8826                           
  8827                           ; Switch on 2 bytes has been partitioned into a top level switch of size 1, and 1 sub-sw
      +                          itches
  8828                           ; Switch size 1, requested type "simple"
  8829                           ; Number of cases is 1, Range of values is 0 to 0
  8830                           ; switch strategies available:
  8831                           ; Name         Instructions Cycles
  8832                           ; simple_byte            4     3 (average)
  8833                           ;	Chosen strategy is simple_byte
  8834   0030A6  5002               	movf	(??i2_adc_input_cahnnel_port_configure+1)^0,w,c
  8835   0030A8  0A00               	xorlw	0	; case 0
  8836   0030AA  B4D8               	btfsc	status,2,c
  8837   0030AC  EF5A  F018         	goto	i2l10484
  8838   0030B0  EF91  F018         	goto	i2l418
  8839   0030B4                     i2l10484:
  8840                           
  8841                           ; Switch size 1, requested type "simple"
  8842                           ; Number of cases is 13, Range of values is 0 to 12
  8843                           ; switch strategies available:
  8844                           ; Name         Instructions Cycles
  8845                           ; simple_byte           40    21 (average)
  8846                           ;	Chosen strategy is simple_byte
  8847   0030B4  5001               	movf	??i2_adc_input_cahnnel_port_configure^0,w,c
  8848   0030B6  0A00               	xorlw	0	; case 0
  8849   0030B8  B4D8               	btfsc	status,2,c
  8850   0030BA  EF29  F018         	goto	i2l5948
  8851   0030BE  0A01               	xorlw	1	; case 1
  8852   0030C0  B4D8               	btfsc	status,2,c
  8853   0030C2  EF2C  F018         	goto	i2l5950
  8854   0030C6  0A03               	xorlw	3	; case 2
  8855   0030C8  B4D8               	btfsc	status,2,c
  8856   0030CA  EF2F  F018         	goto	i2l5952
  8857   0030CE  0A01               	xorlw	1	; case 3
  8858   0030D0  B4D8               	btfsc	status,2,c
  8859   0030D2  EF32  F018         	goto	i2l5954
  8860   0030D6  0A07               	xorlw	7	; case 4
  8861   0030D8  B4D8               	btfsc	status,2,c
  8862   0030DA  EF35  F018         	goto	i2l5956
  8863   0030DE  0A01               	xorlw	1	; case 5
  8864   0030E0  B4D8               	btfsc	status,2,c
  8865   0030E2  EF38  F018         	goto	i2l5958
  8866   0030E6  0A03               	xorlw	3	; case 6
  8867   0030E8  B4D8               	btfsc	status,2,c
  8868   0030EA  EF3B  F018         	goto	i2l5960
  8869   0030EE  0A01               	xorlw	1	; case 7
  8870   0030F0  B4D8               	btfsc	status,2,c
  8871   0030F2  EF3E  F018         	goto	i2l5962
  8872   0030F6  0A0F               	xorlw	15	; case 8
  8873   0030F8  B4D8               	btfsc	status,2,c
  8874   0030FA  EF41  F018         	goto	i2l5964
  8875   0030FE  0A01               	xorlw	1	; case 9
  8876   003100  B4D8               	btfsc	status,2,c
  8877   003102  EF44  F018         	goto	i2l5966
  8878   003106  0A03               	xorlw	3	; case 10
  8879   003108  B4D8               	btfsc	status,2,c
  8880   00310A  EF47  F018         	goto	i2l5968
  8881   00310E  0A01               	xorlw	1	; case 11
  8882   003110  B4D8               	btfsc	status,2,c
  8883   003112  EF4A  F018         	goto	i2l5970
  8884   003116  0A07               	xorlw	7	; case 12
  8885   003118  B4D8               	btfsc	status,2,c
  8886   00311A  EF4D  F018         	goto	i2l5972
  8887   00311E  EF91  F018         	goto	i2l418
  8888   003122                     i2l418:
  8889   003122  0012               	return		;funcret
  8890   003124                     __end_ofi2_adc_input_cahnnel_port_configure:
  8891                           	callstack 0
  8892                           
  8893 ;; *************** function _ADC_GetConversionResult *****************
  8894 ;; Defined at:
  8895 ;;		line 163 in file "MCAL_layer/ADC/mcal_adc.c"
  8896 ;; Parameters:    Size  Location     Type
  8897 ;;  adc_obj         2    0[COMRAM] PTR const struct .
  8898 ;;		 -> lm35_room2(6), lm35_room1(6), lm35_reseption(6), 
  8899 ;;  conversion_r    1    2[COMRAM] PTR unsigned short 
  8900 ;;		 -> LM35_GetTempCelsius@l_conversion_res(2), 
  8901 ;; Auto vars:     Size  Location     Type
  8902 ;;  error_state     1    6[COMRAM] unsigned char 
  8903 ;; Return value:  Size  Location     Type
  8904 ;;                  1    wreg      unsigned char 
  8905 ;; Registers used:
  8906 ;;		wreg, fsr2l, fsr2h, status,2, status,0
  8907 ;; Tracked objects:
  8908 ;;		On entry : 0/0
  8909 ;;		On exit  : 0/0
  8910 ;;		Unchanged: 0/0
  8911 ;; Data sizes:     COMRAM   BANK0   BANK1   BANK2   BANK3   BANK4   BANK5   BANK6   BANK7   BANK8   BANK9  BANK10  BANK1
      +1  BANK12  BANK13  BANK14  BANK15
  8912 ;;      Params:         3       0       0       0       0       0       0       0       0       0       0       0       
      +0       0       0       0       0
  8913 ;;      Locals:         1       0       0       0       0       0       0       0       0       0       0       0       
      +0       0       0       0       0
  8914 ;;      Temps:          3       0       0       0       0       0       0       0       0       0       0       0       
      +0       0       0       0       0
  8915 ;;      Totals:         7       0       0       0       0       0       0       0       0       0       0       0       
      +0       0       0       0       0
  8916 ;;Total ram usage:        7 bytes
  8917 ;; Hardware stack levels used: 1
  8918 ;; This function calls:
  8919 ;;		Nothing
  8920 ;; This function is called by:
  8921 ;;		_ADC_GetConversion_Blocking
  8922 ;;		_ADC_GetConversion_Interrrupt
  8923 ;; This function uses a non-reentrant model
  8924 ;;
  8925                           
  8926                           	psect	text44
  8927   00365E                     __ptext44:
  8928                           	callstack 0
  8929   00365E                     _ADC_GetConversionResult:
  8930                           	callstack 20
  8931   00365E                     
  8932                           ;MCAL_layer/ADC/mcal_adc.c: 165:     if((((void*)0) == adc_obj) || (((void*)0) == conver
      +                          sion_result)){
  8933   00365E  5001               	movf	ADC_GetConversionResult@adc_obj^0,w,c
  8934   003660  1002               	iorwf	(ADC_GetConversionResult@adc_obj+1)^0,w,c
  8935   003662  B4D8               	btfsc	status,2,c
  8936   003664  EF36  F01B         	goto	i2u739_41
  8937   003668  EF38  F01B         	goto	i2u739_40
  8938   00366C                     i2u739_41:
  8939   00366C  EF40  F01B         	goto	i2l8668
  8940   003670                     i2u739_40:
  8941   003670  5003               	movf	ADC_GetConversionResult@conversion_result^0,w,c
  8942   003672  A4D8               	btfss	status,2,c
  8943   003674  EF3E  F01B         	goto	i2u740_41
  8944   003678  EF40  F01B         	goto	i2u740_40
  8945   00367C                     i2u740_41:
  8946   00367C  EF44  F01B         	goto	i2l8670
  8947   003680                     i2u740_40:
  8948   003680                     i2l8668:
  8949                           
  8950                           ;MCAL_layer/ADC/mcal_adc.c: 166:         error_state = (STD_ReturnType)0x00 ;
  8951   003680  0E00               	movlw	0
  8952   003682  6E07               	movwf	ADC_GetConversionResult@error_state^0,c
  8953                           
  8954                           ;MCAL_layer/ADC/mcal_adc.c: 167:     }
  8955   003684  EF7F  F01B         	goto	i2l8682
  8956   003688                     i2l8670:
  8957                           
  8958                           ;MCAL_layer/ADC/mcal_adc.c: 169:         if(1 == adc_obj->Result_format){
  8959   003688  EE20 F005          	lfsr	2,5
  8960   00368C  5001               	movf	ADC_GetConversionResult@adc_obj^0,w,c
  8961   00368E  26D9               	addwf	fsr2l,f,c
  8962   003690  5002               	movf	(ADC_GetConversionResult@adc_obj+1)^0,w,c
  8963   003692  22DA               	addwfc	fsr2h,f,c
  8964   003694  A2DF               	btfss	indf2,1,c
  8965   003696  EF4F  F01B         	goto	i2u741_41
  8966   00369A  EF51  F01B         	goto	i2u741_40
  8967   00369E                     i2u741_41:
  8968   00369E  EF64  F01B         	goto	i2l8674
  8969   0036A2                     i2u741_40:
  8970   0036A2                     
  8971                           ;MCAL_layer/ADC/mcal_adc.c: 170:             *conversion_result = (adc_result_t)((ADRESH
      +                          <<8)+ADRESL);
  8972   0036A2  50C3               	movf	195,w,c	;volatile
  8973   0036A4  CFC4 F004          	movff	4036,??_ADC_GetConversionResult	;volatile
  8974   0036A8  6A05               	clrf	(??_ADC_GetConversionResult+1)^0,c
  8975   0036AA  C004  F005         	movff	??_ADC_GetConversionResult,??_ADC_GetConversionResult+1
  8976   0036AE  6A04               	clrf	??_ADC_GetConversionResult^0,c
  8977   0036B0  2604               	addwf	??_ADC_GetConversionResult^0,f,c
  8978   0036B2  0E00               	movlw	0
  8979   0036B4  2205               	addwfc	(??_ADC_GetConversionResult+1)^0,f,c
  8980   0036B6  5003               	movf	ADC_GetConversionResult@conversion_result^0,w,c
  8981   0036B8  6ED9               	movwf	fsr2l,c
  8982   0036BA  6ADA               	clrf	fsr2h,c
  8983   0036BC  C004  FFDE         	movff	??_ADC_GetConversionResult,postinc2
  8984   0036C0  C005  FFDD         	movff	??_ADC_GetConversionResult+1,postdec2
  8985                           
  8986                           ;MCAL_layer/ADC/mcal_adc.c: 171:         }
  8987   0036C4  EF7D  F01B         	goto	i2l8680
  8988   0036C8                     i2l8674:
  8989   0036C8                     
  8990                           ;MCAL_layer/ADC/mcal_adc.c: 173:             *conversion_result = (adc_result_t)(((ADRES
      +                          H<<8)+ADRESL) >> 6);
  8991   0036C8  50C3               	movf	195,w,c	;volatile
  8992   0036CA  CFC4 F004          	movff	4036,??_ADC_GetConversionResult	;volatile
  8993   0036CE  6A05               	clrf	(??_ADC_GetConversionResult+1)^0,c
  8994   0036D0  C004  F005         	movff	??_ADC_GetConversionResult,??_ADC_GetConversionResult+1
  8995   0036D4  6A04               	clrf	??_ADC_GetConversionResult^0,c
  8996   0036D6  2604               	addwf	??_ADC_GetConversionResult^0,f,c
  8997   0036D8  0E00               	movlw	0
  8998   0036DA  2205               	addwfc	(??_ADC_GetConversionResult+1)^0,f,c
  8999   0036DC  0E06               	movlw	6
  9000   0036DE  6E06               	movwf	(??_ADC_GetConversionResult+2)^0,c
  9001   0036E0                     i2u742_45:
  9002   0036E0  3405               	rlcf	(??_ADC_GetConversionResult+1)^0,w,c
  9003   0036E2  3205               	rrcf	(??_ADC_GetConversionResult+1)^0,f,c
  9004   0036E4  3204               	rrcf	??_ADC_GetConversionResult^0,f,c
  9005   0036E6  2E06               	decfsz	(??_ADC_GetConversionResult+2)^0,f,c
  9006   0036E8  EF70  F01B         	goto	i2u742_45
  9007   0036EC  5003               	movf	ADC_GetConversionResult@conversion_result^0,w,c
  9008   0036EE  6ED9               	movwf	fsr2l,c
  9009   0036F0  6ADA               	clrf	fsr2h,c
  9010   0036F2  C004  FFDE         	movff	??_ADC_GetConversionResult,postinc2
  9011   0036F6  C005  FFDD         	movff	??_ADC_GetConversionResult+1,postdec2
  9012   0036FA                     i2l8680:
  9013                           
  9014                           ;MCAL_layer/ADC/mcal_adc.c: 178:          error_state = (STD_ReturnType)0x01 ;
  9015   0036FA  0E01               	movlw	1
  9016   0036FC  6E07               	movwf	ADC_GetConversionResult@error_state^0,c
  9017   0036FE                     i2l8682:
  9018                           
  9019                           ;MCAL_layer/ADC/mcal_adc.c: 180:     return error_state ;
  9020   0036FE  5007               	movf	ADC_GetConversionResult@error_state^0,w,c
  9021   003700  0012               	return		;funcret
  9022   003702                     __end_of_ADC_GetConversionResult:
  9023                           	callstack 0
  9024                           
  9025 ;; *************** function _EUSART_ASYNC_WrireByteBlocking *****************
  9026 ;; Defined at:
  9027 ;;		line 125 in file "MCAL_layer/EUSART/mcal_eusart.c"
  9028 ;; Parameters:    Size  Location     Type
  9029 ;;  data            1    wreg     unsigned char 
  9030 ;; Auto vars:     Size  Location     Type
  9031 ;;  data            1    0[COMRAM] unsigned char 
  9032 ;;  error_state     1    0        unsigned char 
  9033 ;; Return value:  Size  Location     Type
  9034 ;;                  1    wreg      unsigned char 
  9035 ;; Registers used:
  9036 ;;		wreg, status,2
  9037 ;; Tracked objects:
  9038 ;;		On entry : 0/0
  9039 ;;		On exit  : 0/0
  9040 ;;		Unchanged: 0/0
  9041 ;; Data sizes:     COMRAM   BANK0   BANK1   BANK2   BANK3   BANK4   BANK5   BANK6   BANK7   BANK8   BANK9  BANK10  BANK1
      +1  BANK12  BANK13  BANK14  BANK15
  9042 ;;      Params:         0       0       0       0       0       0       0       0       0       0       0       0       
      +0       0       0       0       0
  9043 ;;      Locals:         1       0       0       0       0       0       0       0       0       0       0       0       
      +0       0       0       0       0
  9044 ;;      Temps:          0       0       0       0       0       0       0       0       0       0       0       0       
      +0       0       0       0       0
  9045 ;;      Totals:         1       0       0       0       0       0       0       0       0       0       0       0       
      +0       0       0       0       0
  9046 ;;Total ram usage:        1 bytes
  9047 ;; Hardware stack levels used: 1
  9048 ;; This function calls:
  9049 ;;		Nothing
  9050 ;; This function is called by:
  9051 ;;		_TIMER0_InterruptHandler
  9052 ;;		_EUSART_ASYNC_WrireStringBlocking
  9053 ;; This function uses a non-reentrant model
  9054 ;;
  9055                           
  9056                           	psect	text45
  9057   004000                     __ptext45:
  9058                           	callstack 0
  9059   004000                     _EUSART_ASYNC_WrireByteBlocking:
  9060                           	callstack 22
  9061                           
  9062                           ;incstack = 0
  9063                           ;EUSART_ASYNC_WrireByteBlocking@data stored from wreg
  9064   004000  6E01               	movwf	EUSART_ASYNC_WrireByteBlocking@data^0,c
  9065   004002                     i2l646:
  9066   004002  A2AC               	btfss	172,1,c	;volatile
  9067   004004  EF06  F020         	goto	i2u586_41
  9068   004008  EF08  F020         	goto	i2u586_40
  9069   00400C                     i2u586_41:
  9070   00400C  EF01  F020         	goto	i2l646
  9071   004010                     i2u586_40:
  9072   004010                     
  9073                           ;MCAL_layer/EUSART/mcal_eusart.c: 129:     (PIE1bits.TXIE = 1);
  9074   004010  889D               	bsf	157,4,c	;volatile
  9075   004012                     
  9076                           ;MCAL_layer/EUSART/mcal_eusart.c: 131:     TXREG = data ;
  9077   004012  C001  FFAD         	movff	EUSART_ASYNC_WrireByteBlocking@data,4013	;volatile
  9078   004016  0012               	return		;funcret
  9079   004018                     __end_of_EUSART_ASYNC_WrireByteBlocking:
  9080                           	callstack 0
  9081                           
  9082 ;; *************** function _EUSART_ASYNC_TX_ISR *****************
  9083 ;; Defined at:
  9084 ;;		line 299 in file "MCAL_layer/EUSART/mcal_eusart.c"
  9085 ;; Parameters:    Size  Location     Type
  9086 ;;		None
  9087 ;; Auto vars:     Size  Location     Type
  9088 ;;		None
  9089 ;; Return value:  Size  Location     Type
  9090 ;;                  1    wreg      void 
  9091 ;; Registers used:
  9092 ;;		None
  9093 ;; Tracked objects:
  9094 ;;		On entry : 0/0
  9095 ;;		On exit  : 0/0
  9096 ;;		Unchanged: 0/0
  9097 ;; Data sizes:     COMRAM   BANK0   BANK1   BANK2   BANK3   BANK4   BANK5   BANK6   BANK7   BANK8   BANK9  BANK10  BANK1
      +1  BANK12  BANK13  BANK14  BANK15
  9098 ;;      Params:         0       0       0       0       0       0       0       0       0       0       0       0       
      +0       0       0       0       0
  9099 ;;      Locals:         0       0       0       0       0       0       0       0       0       0       0       0       
      +0       0       0       0       0
  9100 ;;      Temps:          0       0       0       0       0       0       0       0       0       0       0       0       
      +0       0       0       0       0
  9101 ;;      Totals:         0       0       0       0       0       0       0       0       0       0       0       0       
      +0       0       0       0       0
  9102 ;;Total ram usage:        0 bytes
  9103 ;; Hardware stack levels used: 1
  9104 ;; This function calls:
  9105 ;;		Nothing
  9106 ;; This function is called by:
  9107 ;;		_InterruptManager
  9108 ;; This function uses a non-reentrant model
  9109 ;;
  9110                           
  9111                           	psect	text46
  9112   00403A                     __ptext46:
  9113                           	callstack 0
  9114   00403A                     _EUSART_ASYNC_TX_ISR:
  9115                           	callstack 24
  9116   00403A                     
  9117                           ;MCAL_layer/EUSART/mcal_eusart.c: 300:     (PIE1bits.TXIE = 0);
  9118   00403A  989D               	bcf	157,4,c	;volatile
  9119   00403C  0012               	return		;funcret
  9120   00403E                     __end_of_EUSART_ASYNC_TX_ISR:
  9121                           	callstack 0
  9122                           
  9123 ;; *************** function _EUSART_ASYNC_RX_ISR *****************
  9124 ;; Defined at:
  9125 ;;		line 306 in file "MCAL_layer/EUSART/mcal_eusart.c"
  9126 ;; Parameters:    Size  Location     Type
  9127 ;;		None
  9128 ;; Auto vars:     Size  Location     Type
  9129 ;;		None
  9130 ;; Return value:  Size  Location     Type
  9131 ;;                  1    wreg      void 
  9132 ;; Registers used:
  9133 ;;		wreg, fsr2l, fsr2h, status,2, status,0, pcl, pclath, pclatu, tosl, prodl, prodh, cstack
  9134 ;; Tracked objects:
  9135 ;;		On entry : 0/0
  9136 ;;		On exit  : 0/0
  9137 ;;		Unchanged: 0/0
  9138 ;; Data sizes:     COMRAM   BANK0   BANK1   BANK2   BANK3   BANK4   BANK5   BANK6   BANK7   BANK8   BANK9  BANK10  BANK1
      +1  BANK12  BANK13  BANK14  BANK15
  9139 ;;      Params:         0       0       0       0       0       0       0       0       0       0       0       0       
      +0       0       0       0       0
  9140 ;;      Locals:         0       0       0       0       0       0       0       0       0       0       0       0       
      +0       0       0       0       0
  9141 ;;      Temps:          0       0       0       0       0       0       0       0       0       0       0       0       
      +0       0       0       0       0
  9142 ;;      Totals:         0       0       0       0       0       0       0       0       0       0       0       0       
      +0       0       0       0       0
  9143 ;;Total ram usage:        0 bytes
  9144 ;; Hardware stack levels used: 1
  9145 ;; Hardware stack levels required when called: 3
  9146 ;; This function calls:
  9147 ;;		NULL
  9148 ;;		_EUSART_RXDefaultInterruptHandler
  9149 ;; This function is called by:
  9150 ;;		_InterruptManager
  9151 ;; This function uses a non-reentrant model
  9152 ;;
  9153                           
  9154                           	psect	text47
  9155   003E0A                     __ptext47:
  9156                           	callstack 0
  9157   003E0A                     _EUSART_ASYNC_RX_ISR:
  9158                           	callstack 21
  9159   003E0A                     
  9160                           ;MCAL_layer/EUSART/mcal_eusart.c: 307:     if(EUSART_ASYNC_RX_InterruptHandler){
  9161   003E0A  5065               	movf	_EUSART_ASYNC_RX_InterruptHandler^0,w,c
  9162   003E0C  1066               	iorwf	(_EUSART_ASYNC_RX_InterruptHandler+1)^0,w,c
  9163   003E0E  B4D8               	btfsc	status,2,c
  9164   003E10  EF0C  F01F         	goto	i2u629_41
  9165   003E14  EF0E  F01F         	goto	i2u629_40
  9166   003E18                     i2u629_41:
  9167   003E18  EF1C  F01F         	goto	i2l7578
  9168   003E1C                     i2u629_40:
  9169   003E1C                     
  9170                           ;MCAL_layer/EUSART/mcal_eusart.c: 308:         EUSART_ASYNC_RX_InterruptHandler();
  9171   003E1C  D802               	call	i2u630_48
  9172   003E1E  EF1A  F01F         	goto	i2u630_49
  9173   003E22                     i2u630_48:
  9174   003E22  0005               	push	
  9175   003E24  6EFA               	movwf	pclath,c
  9176   003E26  5065               	movf	_EUSART_ASYNC_RX_InterruptHandler^0,w,c
  9177   003E28  6EFD               	movwf	tosl,c
  9178   003E2A  5066               	movf	(_EUSART_ASYNC_RX_InterruptHandler+1)^0,w,c
  9179   003E2C  6EFE               	movwf	tosh,c
  9180   003E2E  6AFF               	clrf	tosu,c
  9181   003E30  50FA               	movf	pclath,w,c
  9182   003E32  0012               	return		;indir
  9183   003E34                     i2u630_49:
  9184                           
  9185                           ;MCAL_layer/EUSART/mcal_eusart.c: 309:     }
  9186   003E34  EF27  F01F         	goto	i2l711
  9187   003E38                     i2l7578:
  9188                           
  9189                           ;MCAL_layer/EUSART/mcal_eusart.c: 311:         EUSART_ASYNC_OverRunErrorHandler();
  9190   003E38  5061               	movf	_EUSART_ASYNC_OverRunErrorHandler^0,w,c
  9191   003E3A  1062               	iorwf	(_EUSART_ASYNC_OverRunErrorHandler+1)^0,w,c
  9192   003E3C  B4D8               	btfsc	status,2,c
  9193   003E3E  EF23  F01F         	goto	i2u631_41
  9194   003E42  EF25  F01F         	goto	i2u631_40
  9195   003E46                     i2u631_41:
  9196   003E46  EF27  F01F         	goto	i2l7582
  9197   003E4A                     i2u631_40:
  9198   003E4A  EF27  F01F         	goto	i2l711
  9199   003E4E                     i2l7582:
  9200   003E4E                     i2l711:
  9201   003E4E  0012               	return		;funcret
  9202   003E50                     __end_of_EUSART_ASYNC_RX_ISR:
  9203                           	callstack 0
  9204                           
  9205 ;; *************** function _EUSART_RXDefaultInterruptHandler *****************
  9206 ;; Defined at:
  9207 ;;		line 84 in file "application.c"
  9208 ;; Parameters:    Size  Location     Type
  9209 ;;		None
  9210 ;; Auto vars:     Size  Location     Type
  9211 ;;		None
  9212 ;; Return value:  Size  Location     Type
  9213 ;;                  1    wreg      void 
  9214 ;; Registers used:
  9215 ;;		wreg, fsr2l, fsr2h, status,2, status,0, prodl, prodh, cstack
  9216 ;; Tracked objects:
  9217 ;;		On entry : 0/0
  9218 ;;		On exit  : 0/0
  9219 ;;		Unchanged: 0/0
  9220 ;; Data sizes:     COMRAM   BANK0   BANK1   BANK2   BANK3   BANK4   BANK5   BANK6   BANK7   BANK8   BANK9  BANK10  BANK1
      +1  BANK12  BANK13  BANK14  BANK15
  9221 ;;      Params:         0       0       0       0       0       0       0       0       0       0       0       0       
      +0       0       0       0       0
  9222 ;;      Locals:         0       0       0       0       0       0       0       0       0       0       0       0       
      +0       0       0       0       0
  9223 ;;      Temps:          0       0       0       0       0       0       0       0       0       0       0       0       
      +0       0       0       0       0
  9224 ;;      Totals:         0       0       0       0       0       0       0       0       0       0       0       0       
      +0       0       0       0       0
  9225 ;;Total ram usage:        0 bytes
  9226 ;; Hardware stack levels used: 1
  9227 ;; Hardware stack levels required when called: 2
  9228 ;; This function calls:
  9229 ;;		_EUSART_ASYNC_ReadByteBlocking
  9230 ;;		_EUSART_ASYNC_ReadByteNonBlocking
  9231 ;;		i2_led_turn_off
  9232 ;;		i2_led_turn_on
  9233 ;; This function is called by:
  9234 ;;		_EUSART_ASYNC_RX_ISR
  9235 ;; This function uses a non-reentrant model
  9236 ;;
  9237                           
  9238                           	psect	text48
  9239   0021BE                     __ptext48:
  9240                           	callstack 0
  9241   0021BE                     _EUSART_RXDefaultInterruptHandler:
  9242                           	callstack 21
  9243   0021BE                     
  9244                           ;application.c: 85:     EUSART_ASYNC_ReadByteNonBlocking(&euart_val);
  9245   0021BE  0E6F               	movlw	low _euart_val
  9246   0021C0  6E01               	movwf	EUSART_ASYNC_ReadByteNonBlocking@_data^0,c
  9247   0021C2  ECE4  F01F         	call	_EUSART_ASYNC_ReadByteNonBlocking	;wreg free
  9248   0021C6                     
  9249                           ;application.c: 86:     if(euart_val == 'a'){
  9250   0021C6  0E61               	movlw	97
  9251   0021C8  186F               	xorwf	_euart_val^0,w,c	;volatile
  9252   0021CA  A4D8               	btfss	status,2,c
  9253   0021CC  EFEA  F010         	goto	i2u596_41
  9254   0021D0  EFEC  F010         	goto	i2u596_40
  9255   0021D4                     i2u596_41:
  9256   0021D4  EFF2  F010         	goto	i2l7368
  9257   0021D8                     i2u596_40:
  9258   0021D8                     
  9259                           ;application.c: 87:         led_turn_on(&reseption_light);
  9260   0021D8  0EE3               	movlw	low _reseption_light
  9261   0021DA  6E09               	movwf	i2led_turn_on@led^0,c
  9262   0021DC  EC3A  F01C         	call	i2_led_turn_on	;wreg free
  9263                           
  9264                           ;application.c: 88:     }
  9265   0021E0  EF64  F012         	goto	i2l1716
  9266   0021E4                     i2l7368:
  9267   0021E4  0E62               	movlw	98
  9268   0021E6  186F               	xorwf	_euart_val^0,w,c	;volatile
  9269   0021E8  A4D8               	btfss	status,2,c
  9270   0021EA  EFF9  F010         	goto	i2u597_41
  9271   0021EE  EFFB  F010         	goto	i2u597_40
  9272   0021F2                     i2u597_41:
  9273   0021F2  EF01  F011         	goto	i2l7372
  9274   0021F6                     i2u597_40:
  9275   0021F6                     
  9276                           ;application.c: 90:         led_turn_off(&reseption_light);
  9277   0021F6  0EE3               	movlw	low _reseption_light
  9278   0021F8  6E09               	movwf	i2led_turn_off@led^0,c
  9279   0021FA  EC75  F01C         	call	i2_led_turn_off	;wreg free
  9280                           
  9281                           ;application.c: 91:     }
  9282   0021FE  EF64  F012         	goto	i2l1716
  9283   002202                     i2l7372:
  9284   002202  0E63               	movlw	99
  9285   002204  186F               	xorwf	_euart_val^0,w,c	;volatile
  9286   002206  A4D8               	btfss	status,2,c
  9287   002208  EF08  F011         	goto	i2u598_41
  9288   00220C  EF0A  F011         	goto	i2u598_40
  9289   002210                     i2u598_41:
  9290   002210  EF10  F011         	goto	i2l7376
  9291   002214                     i2u598_40:
  9292   002214                     
  9293                           ;application.c: 93:         led_turn_on(&reseption_TV);
  9294   002214  0EDD               	movlw	low _reseption_TV
  9295   002216  6E09               	movwf	i2led_turn_on@led^0,c
  9296   002218  EC3A  F01C         	call	i2_led_turn_on	;wreg free
  9297                           
  9298                           ;application.c: 94:     }
  9299   00221C  EF64  F012         	goto	i2l1716
  9300   002220                     i2l7376:
  9301   002220  0E64               	movlw	100
  9302   002222  186F               	xorwf	_euart_val^0,w,c	;volatile
  9303   002224  A4D8               	btfss	status,2,c
  9304   002226  EF17  F011         	goto	i2u599_41
  9305   00222A  EF19  F011         	goto	i2u599_40
  9306   00222E                     i2u599_41:
  9307   00222E  EF1F  F011         	goto	i2l7380
  9308   002232                     i2u599_40:
  9309   002232                     
  9310                           ;application.c: 96:         led_turn_off(&reseption_TV);
  9311   002232  0EDD               	movlw	low _reseption_TV
  9312   002234  6E09               	movwf	i2led_turn_off@led^0,c
  9313   002236  EC75  F01C         	call	i2_led_turn_off	;wreg free
  9314                           
  9315                           ;application.c: 97:     }
  9316   00223A  EF64  F012         	goto	i2l1716
  9317   00223E                     i2l7380:
  9318   00223E  0E65               	movlw	101
  9319   002240  186F               	xorwf	_euart_val^0,w,c	;volatile
  9320   002242  A4D8               	btfss	status,2,c
  9321   002244  EF26  F011         	goto	i2u600_41
  9322   002248  EF28  F011         	goto	i2u600_40
  9323   00224C                     i2u600_41:
  9324   00224C  EF31  F011         	goto	i2l7386
  9325   002250                     i2u600_40:
  9326   002250                     
  9327                           ;application.c: 99:         led_turn_on(&reseption_AC);
  9328   002250  0EE0               	movlw	low _reseption_AC
  9329   002252  6E09               	movwf	i2led_turn_on@led^0,c
  9330   002254  EC3A  F01C         	call	i2_led_turn_on	;wreg free
  9331   002258                     
  9332                           ;application.c: 100:         re_ac = 1 ;
  9333   002258  0E01               	movlw	1
  9334   00225A  0100               	movlb	0	; () banked
  9335   00225C  6FF2               	movwf	_re_ac& (0+255),b	;volatile
  9336                           
  9337                           ;application.c: 101:     }
  9338   00225E  EF64  F012         	goto	i2l1716
  9339   002262                     i2l7386:
  9340   002262  0E66               	movlw	102
  9341   002264  186F               	xorwf	_euart_val^0,w,c	;volatile
  9342   002266  A4D8               	btfss	status,2,c
  9343   002268  EF38  F011         	goto	i2u601_41
  9344   00226C  EF3A  F011         	goto	i2u601_40
  9345   002270                     i2u601_41:
  9346   002270  EF43  F011         	goto	i2l7392
  9347   002274                     i2u601_40:
  9348   002274                     
  9349                           ;application.c: 103:         led_turn_off(&reseption_AC);
  9350   002274  0EE0               	movlw	low _reseption_AC
  9351   002276  6E09               	movwf	i2led_turn_off@led^0,c
  9352   002278  EC75  F01C         	call	i2_led_turn_off	;wreg free
  9353   00227C                     i2l7390:
  9354                           
  9355                           ;application.c: 104:         re_ac = 0 ;
  9356   00227C  0E00               	movlw	0
  9357   00227E  0100               	movlb	0	; () banked
  9358   002280  6FF2               	movwf	_re_ac& (0+255),b	;volatile
  9359                           
  9360                           ;application.c: 105:     }
  9361   002282  EF64  F012         	goto	i2l1716
  9362   002286                     i2l7392:
  9363   002286  0E67               	movlw	103
  9364   002288  186F               	xorwf	_euart_val^0,w,c	;volatile
  9365   00228A  A4D8               	btfss	status,2,c
  9366   00228C  EF4A  F011         	goto	i2u602_41
  9367   002290  EF4C  F011         	goto	i2u602_40
  9368   002294                     i2u602_41:
  9369   002294  EF51  F011         	goto	i2l7396
  9370   002298                     i2u602_40:
  9371   002298                     
  9372                           ;application.c: 108:         re_ac = 2 ;
  9373   002298  0E02               	movlw	2
  9374   00229A  0100               	movlb	0	; () banked
  9375   00229C  6FF2               	movwf	_re_ac& (0+255),b	;volatile
  9376                           
  9377                           ;application.c: 109:     }
  9378   00229E  EF64  F012         	goto	i2l1716
  9379   0022A2                     i2l7396:
  9380   0022A2  0E47               	movlw	71
  9381   0022A4  186F               	xorwf	_euart_val^0,w,c	;volatile
  9382   0022A6  A4D8               	btfss	status,2,c
  9383   0022A8  EF58  F011         	goto	i2u603_41
  9384   0022AC  EF5A  F011         	goto	i2u603_40
  9385   0022B0                     i2u603_41:
  9386   0022B0  EF63  F011         	goto	i2l7402
  9387   0022B4                     i2u603_40:
  9388   0022B4                     
  9389                           ;application.c: 111:         re_ac_temp = 0 ;
  9390   0022B4  0E00               	movlw	0
  9391   0022B6  0100               	movlb	0	; () banked
  9392   0022B8  6FFE               	movwf	_re_ac_temp& (0+255),b	;volatile
  9393   0022BA                     
  9394                           ; BSR set to: 0
  9395                           ;application.c: 112:         EUSART_ASYNC_ReadByteBlocking(&re_ac_temp);
  9396   0022BA  0EFE               	movlw	low _re_ac_temp
  9397   0022BC  6E01               	movwf	EUSART_ASYNC_ReadByteBlocking@_data^0,c
  9398   0022BE  ECF3  F01F         	call	_EUSART_ASYNC_ReadByteBlocking	;wreg free
  9399                           
  9400                           ;application.c: 113:     }
  9401   0022C2  EF64  F012         	goto	i2l1716
  9402   0022C6                     i2l7402:
  9403   0022C6  0E68               	movlw	104
  9404   0022C8  186F               	xorwf	_euart_val^0,w,c	;volatile
  9405   0022CA  A4D8               	btfss	status,2,c
  9406   0022CC  EF6A  F011         	goto	i2u604_41
  9407   0022D0  EF6C  F011         	goto	i2u604_40
  9408   0022D4                     i2u604_41:
  9409   0022D4  EF72  F011         	goto	i2l7406
  9410   0022D8                     i2u604_40:
  9411   0022D8                     
  9412                           ;application.c: 115:         led_turn_on(&room_1_light);
  9413   0022D8  0EDA               	movlw	low _room_1_light
  9414   0022DA  6E09               	movwf	i2led_turn_on@led^0,c
  9415   0022DC  EC3A  F01C         	call	i2_led_turn_on	;wreg free
  9416                           
  9417                           ;application.c: 116:     }
  9418   0022E0  EF64  F012         	goto	i2l1716
  9419   0022E4                     i2l7406:
  9420   0022E4  0E69               	movlw	105
  9421   0022E6  186F               	xorwf	_euart_val^0,w,c	;volatile
  9422   0022E8  A4D8               	btfss	status,2,c
  9423   0022EA  EF79  F011         	goto	i2u605_41
  9424   0022EE  EF7B  F011         	goto	i2u605_40
  9425   0022F2                     i2u605_41:
  9426   0022F2  EF81  F011         	goto	i2l7410
  9427   0022F6                     i2u605_40:
  9428   0022F6                     
  9429                           ;application.c: 118:         led_turn_off(&room_1_light);
  9430   0022F6  0EDA               	movlw	low _room_1_light
  9431   0022F8  6E09               	movwf	i2led_turn_off@led^0,c
  9432   0022FA  EC75  F01C         	call	i2_led_turn_off	;wreg free
  9433                           
  9434                           ;application.c: 119:     }
  9435   0022FE  EF64  F012         	goto	i2l1716
  9436   002302                     i2l7410:
  9437   002302  0E6A               	movlw	106
  9438   002304  186F               	xorwf	_euart_val^0,w,c	;volatile
  9439   002306  A4D8               	btfss	status,2,c
  9440   002308  EF88  F011         	goto	i2u606_41
  9441   00230C  EF8A  F011         	goto	i2u606_40
  9442   002310                     i2u606_41:
  9443   002310  EF93  F011         	goto	i2l7416
  9444   002314                     i2u606_40:
  9445   002314                     
  9446                           ;application.c: 121:         led_turn_on(&room_1_AC);
  9447   002314  0ED7               	movlw	low _room_1_AC
  9448   002316  6E09               	movwf	i2led_turn_on@led^0,c
  9449   002318  EC3A  F01C         	call	i2_led_turn_on	;wreg free
  9450   00231C                     
  9451                           ;application.c: 122:         r1_ac = 1 ;
  9452   00231C  0E01               	movlw	1
  9453   00231E  0100               	movlb	0	; () banked
  9454   002320  6FF1               	movwf	_r1_ac& (0+255),b	;volatile
  9455                           
  9456                           ;application.c: 123:     }
  9457   002322  EF64  F012         	goto	i2l1716
  9458   002326                     i2l7416:
  9459   002326  0E6B               	movlw	107
  9460   002328  186F               	xorwf	_euart_val^0,w,c	;volatile
  9461   00232A  A4D8               	btfss	status,2,c
  9462   00232C  EF9A  F011         	goto	i2u607_41
  9463   002330  EF9C  F011         	goto	i2u607_40
  9464   002334                     i2u607_41:
  9465   002334  EFA5  F011         	goto	i2l7422
  9466   002338                     i2u607_40:
  9467   002338                     
  9468                           ;application.c: 125:         led_turn_off(&room_1_AC);
  9469   002338  0ED7               	movlw	low _room_1_AC
  9470   00233A  6E09               	movwf	i2led_turn_off@led^0,c
  9471   00233C  EC75  F01C         	call	i2_led_turn_off	;wreg free
  9472   002340                     i2l7420:
  9473                           
  9474                           ;application.c: 126:         r1_ac = 0 ;
  9475   002340  0E00               	movlw	0
  9476   002342  0100               	movlb	0	; () banked
  9477   002344  6FF1               	movwf	_r1_ac& (0+255),b	;volatile
  9478                           
  9479                           ;application.c: 127:     }
  9480   002346  EF64  F012         	goto	i2l1716
  9481   00234A                     i2l7422:
  9482   00234A  0E6C               	movlw	108
  9483   00234C  186F               	xorwf	_euart_val^0,w,c	;volatile
  9484   00234E  A4D8               	btfss	status,2,c
  9485   002350  EFAC  F011         	goto	i2u608_41
  9486   002354  EFAE  F011         	goto	i2u608_40
  9487   002358                     i2u608_41:
  9488   002358  EFB3  F011         	goto	i2l7426
  9489   00235C                     i2u608_40:
  9490   00235C                     
  9491                           ;application.c: 130:         r1_ac = 2 ;
  9492   00235C  0E02               	movlw	2
  9493   00235E  0100               	movlb	0	; () banked
  9494   002360  6FF1               	movwf	_r1_ac& (0+255),b	;volatile
  9495                           
  9496                           ;application.c: 131:     }
  9497   002362  EF64  F012         	goto	i2l1716
  9498   002366                     i2l7426:
  9499   002366  0E4C               	movlw	76
  9500   002368  186F               	xorwf	_euart_val^0,w,c	;volatile
  9501   00236A  A4D8               	btfss	status,2,c
  9502   00236C  EFBA  F011         	goto	i2u609_41
  9503   002370  EFBC  F011         	goto	i2u609_40
  9504   002374                     i2u609_41:
  9505   002374  EFC5  F011         	goto	i2l7432
  9506   002378                     i2u609_40:
  9507   002378                     
  9508                           ;application.c: 133:         r1_ac_temp = 0;
  9509   002378  0E00               	movlw	0
  9510   00237A  0100               	movlb	0	; () banked
  9511   00237C  6FFD               	movwf	_r1_ac_temp& (0+255),b	;volatile
  9512   00237E                     
  9513                           ; BSR set to: 0
  9514                           ;application.c: 134:         EUSART_ASYNC_ReadByteBlocking(&r1_ac_temp);
  9515   00237E  0EFD               	movlw	low _r1_ac_temp
  9516   002380  6E01               	movwf	EUSART_ASYNC_ReadByteBlocking@_data^0,c
  9517   002382  ECF3  F01F         	call	_EUSART_ASYNC_ReadByteBlocking	;wreg free
  9518                           
  9519                           ;application.c: 135:     }
  9520   002386  EF64  F012         	goto	i2l1716
  9521   00238A                     i2l7432:
  9522   00238A  0E6D               	movlw	109
  9523   00238C  186F               	xorwf	_euart_val^0,w,c	;volatile
  9524   00238E  A4D8               	btfss	status,2,c
  9525   002390  EFCC  F011         	goto	i2u610_41
  9526   002394  EFCE  F011         	goto	i2u610_40
  9527   002398                     i2u610_41:
  9528   002398  EFD4  F011         	goto	i2l7436
  9529   00239C                     i2u610_40:
  9530   00239C                     
  9531                           ;application.c: 137:         led_turn_on(&room_2_light);
  9532   00239C  0ED4               	movlw	low _room_2_light
  9533   00239E  6E09               	movwf	i2led_turn_on@led^0,c
  9534   0023A0  EC3A  F01C         	call	i2_led_turn_on	;wreg free
  9535                           
  9536                           ;application.c: 138:     }
  9537   0023A4  EF64  F012         	goto	i2l1716
  9538   0023A8                     i2l7436:
  9539   0023A8  0E6E               	movlw	110
  9540   0023AA  186F               	xorwf	_euart_val^0,w,c	;volatile
  9541   0023AC  A4D8               	btfss	status,2,c
  9542   0023AE  EFDB  F011         	goto	i2u611_41
  9543   0023B2  EFDD  F011         	goto	i2u611_40
  9544   0023B6                     i2u611_41:
  9545   0023B6  EFE3  F011         	goto	i2l7440
  9546   0023BA                     i2u611_40:
  9547   0023BA                     
  9548                           ;application.c: 140:         led_turn_off(&room_2_light);
  9549   0023BA  0ED4               	movlw	low _room_2_light
  9550   0023BC  6E09               	movwf	i2led_turn_off@led^0,c
  9551   0023BE  EC75  F01C         	call	i2_led_turn_off	;wreg free
  9552                           
  9553                           ;application.c: 141:     }
  9554   0023C2  EF64  F012         	goto	i2l1716
  9555   0023C6                     i2l7440:
  9556   0023C6  0E6F               	movlw	111
  9557   0023C8  186F               	xorwf	_euart_val^0,w,c	;volatile
  9558   0023CA  A4D8               	btfss	status,2,c
  9559   0023CC  EFEA  F011         	goto	i2u612_41
  9560   0023D0  EFEC  F011         	goto	i2u612_40
  9561   0023D4                     i2u612_41:
  9562   0023D4  EFF5  F011         	goto	i2l7446
  9563   0023D8                     i2u612_40:
  9564   0023D8                     
  9565                           ;application.c: 143:         led_turn_on(&room_2_AC);
  9566   0023D8  0ED1               	movlw	low _room_2_AC
  9567   0023DA  6E09               	movwf	i2led_turn_on@led^0,c
  9568   0023DC  EC3A  F01C         	call	i2_led_turn_on	;wreg free
  9569   0023E0                     
  9570                           ;application.c: 144:         r2_ac = 1 ;
  9571   0023E0  0E01               	movlw	1
  9572   0023E2  0100               	movlb	0	; () banked
  9573   0023E4  6FF0               	movwf	_r2_ac& (0+255),b	;volatile
  9574                           
  9575                           ;application.c: 145:     }
  9576   0023E6  EF64  F012         	goto	i2l1716
  9577   0023EA                     i2l7446:
  9578   0023EA  0E70               	movlw	112
  9579   0023EC  186F               	xorwf	_euart_val^0,w,c	;volatile
  9580   0023EE  A4D8               	btfss	status,2,c
  9581   0023F0  EFFC  F011         	goto	i2u613_41
  9582   0023F4  EFFE  F011         	goto	i2u613_40
  9583   0023F8                     i2u613_41:
  9584   0023F8  EF07  F012         	goto	i2l7452
  9585   0023FC                     i2u613_40:
  9586   0023FC                     
  9587                           ;application.c: 147:         led_turn_off(&room_2_AC);
  9588   0023FC  0ED1               	movlw	low _room_2_AC
  9589   0023FE  6E09               	movwf	i2led_turn_off@led^0,c
  9590   002400  EC75  F01C         	call	i2_led_turn_off	;wreg free
  9591   002404                     i2l7450:
  9592                           
  9593                           ;application.c: 148:         r2_ac = 0 ;
  9594   002404  0E00               	movlw	0
  9595   002406  0100               	movlb	0	; () banked
  9596   002408  6FF0               	movwf	_r2_ac& (0+255),b	;volatile
  9597                           
  9598                           ;application.c: 149:     }
  9599   00240A  EF64  F012         	goto	i2l1716
  9600   00240E                     i2l7452:
  9601   00240E  0E71               	movlw	113
  9602   002410  186F               	xorwf	_euart_val^0,w,c	;volatile
  9603   002412  A4D8               	btfss	status,2,c
  9604   002414  EF0E  F012         	goto	i2u614_41
  9605   002418  EF10  F012         	goto	i2u614_40
  9606   00241C                     i2u614_41:
  9607   00241C  EF15  F012         	goto	i2l7456
  9608   002420                     i2u614_40:
  9609   002420                     
  9610                           ;application.c: 152:         r2_ac = 2 ;
  9611   002420  0E02               	movlw	2
  9612   002422  0100               	movlb	0	; () banked
  9613   002424  6FF0               	movwf	_r2_ac& (0+255),b	;volatile
  9614                           
  9615                           ;application.c: 153:     }
  9616   002426  EF64  F012         	goto	i2l1716
  9617   00242A                     i2l7456:
  9618   00242A  0E51               	movlw	81
  9619   00242C  186F               	xorwf	_euart_val^0,w,c	;volatile
  9620   00242E  A4D8               	btfss	status,2,c
  9621   002430  EF1C  F012         	goto	i2u615_41
  9622   002434  EF1E  F012         	goto	i2u615_40
  9623   002438                     i2u615_41:
  9624   002438  EF27  F012         	goto	i2l7462
  9625   00243C                     i2u615_40:
  9626   00243C                     
  9627                           ;application.c: 155:         r2_ac_temp = 0 ;
  9628   00243C  0E00               	movlw	0
  9629   00243E  0100               	movlb	0	; () banked
  9630   002440  6FFC               	movwf	_r2_ac_temp& (0+255),b	;volatile
  9631   002442                     
  9632                           ; BSR set to: 0
  9633                           ;application.c: 156:         EUSART_ASYNC_ReadByteBlocking(&r2_ac_temp);
  9634   002442  0EFC               	movlw	low _r2_ac_temp
  9635   002444  6E01               	movwf	EUSART_ASYNC_ReadByteBlocking@_data^0,c
  9636   002446  ECF3  F01F         	call	_EUSART_ASYNC_ReadByteBlocking	;wreg free
  9637                           
  9638                           ;application.c: 157:     }
  9639   00244A  EF64  F012         	goto	i2l1716
  9640   00244E                     i2l7462:
  9641   00244E  0E78               	movlw	120
  9642   002450  186F               	xorwf	_euart_val^0,w,c	;volatile
  9643   002452  A4D8               	btfss	status,2,c
  9644   002454  EF2E  F012         	goto	i2u616_41
  9645   002458  EF30  F012         	goto	i2u616_40
  9646   00245C                     i2u616_41:
  9647   00245C  EF3E  F012         	goto	i2l7468
  9648   002460                     i2u616_40:
  9649   002460                     
  9650                           ;application.c: 160:         led_turn_off(&reseption_light);
  9651   002460  0EE3               	movlw	low _reseption_light
  9652   002462  6E09               	movwf	i2led_turn_off@led^0,c
  9653   002464  EC75  F01C         	call	i2_led_turn_off	;wreg free
  9654                           
  9655                           ;application.c: 161:         led_turn_off(&reseption_AC);
  9656   002468  0EE0               	movlw	low _reseption_AC
  9657   00246A  6E09               	movwf	i2led_turn_off@led^0,c
  9658   00246C  EC75  F01C         	call	i2_led_turn_off	;wreg free
  9659                           
  9660                           ;application.c: 162:         led_turn_off(&reseption_TV);
  9661   002470  0EDD               	movlw	low _reseption_TV
  9662   002472  6E09               	movwf	i2led_turn_off@led^0,c
  9663   002474  EC75  F01C         	call	i2_led_turn_off	;wreg free
  9664   002478  EF3E  F011         	goto	i2l7390
  9665   00247C                     i2l7468:
  9666   00247C  0E79               	movlw	121
  9667   00247E  186F               	xorwf	_euart_val^0,w,c	;volatile
  9668   002480  A4D8               	btfss	status,2,c
  9669   002482  EF45  F012         	goto	i2u617_41
  9670   002486  EF47  F012         	goto	i2u617_40
  9671   00248A                     i2u617_41:
  9672   00248A  EF51  F012         	goto	i2l7474
  9673   00248E                     i2u617_40:
  9674   00248E                     
  9675                           ;application.c: 167:         led_turn_off(&room_1_light);
  9676   00248E  0EDA               	movlw	low _room_1_light
  9677   002490  6E09               	movwf	i2led_turn_off@led^0,c
  9678   002492  EC75  F01C         	call	i2_led_turn_off	;wreg free
  9679                           
  9680                           ;application.c: 168:         led_turn_off(&room_1_AC);
  9681   002496  0ED7               	movlw	low _room_1_AC
  9682   002498  6E09               	movwf	i2led_turn_off@led^0,c
  9683   00249A  EC75  F01C         	call	i2_led_turn_off	;wreg free
  9684   00249E  EFA0  F011         	goto	i2l7420
  9685   0024A2                     i2l7474:
  9686   0024A2  0E7A               	movlw	122
  9687   0024A4  186F               	xorwf	_euart_val^0,w,c	;volatile
  9688   0024A6  A4D8               	btfss	status,2,c
  9689   0024A8  EF58  F012         	goto	i2u618_41
  9690   0024AC  EF5A  F012         	goto	i2u618_40
  9691   0024B0                     i2u618_41:
  9692   0024B0  EF64  F012         	goto	i2l1711
  9693   0024B4                     i2u618_40:
  9694   0024B4                     
  9695                           ;application.c: 173:         led_turn_off(&room_2_light);
  9696   0024B4  0ED4               	movlw	low _room_2_light
  9697   0024B6  6E09               	movwf	i2led_turn_off@led^0,c
  9698   0024B8  EC75  F01C         	call	i2_led_turn_off	;wreg free
  9699                           
  9700                           ;application.c: 174:         led_turn_off(&room_2_AC);
  9701   0024BC  0ED1               	movlw	low _room_2_AC
  9702   0024BE  6E09               	movwf	i2led_turn_off@led^0,c
  9703   0024C0  EC75  F01C         	call	i2_led_turn_off	;wreg free
  9704   0024C4  EF02  F012         	goto	i2l7450
  9705   0024C8                     i2l1711:
  9706   0024C8                     i2l1716:
  9707   0024C8  0012               	return		;funcret
  9708   0024CA                     __end_of_EUSART_RXDefaultInterruptHandler:
  9709                           	callstack 0
  9710                           
  9711 ;; *************** function i2_led_turn_on *****************
  9712 ;; Defined at:
  9713 ;;		line 39 in file "ECU_layer/LED/ecu_led.c"
  9714 ;; Parameters:    Size  Location     Type
  9715 ;;  led             1    8[COMRAM] PTR const struct .
  9716 ;;		 -> room_2_AC(3), room_2_light(3), room_1_AC(3), room_1_light(3), 
  9717 ;;		 -> reseption_TV(3), reseption_AC(3), reseption_light(3), 
  9718 ;; Auto vars:     Size  Location     Type
  9719 ;;  pin_obj         1   10[COMRAM] struct .
  9720 ;;  error_state     1    0        unsigned char 
  9721 ;; Return value:  Size  Location     Type
  9722 ;;                  1    wreg      unsigned char 
  9723 ;; Registers used:
  9724 ;;		wreg, fsr2l, fsr2h, status,2, status,0, prodl, prodh, cstack
  9725 ;; Tracked objects:
  9726 ;;		On entry : 0/0
  9727 ;;		On exit  : 0/0
  9728 ;;		Unchanged: 0/0
  9729 ;; Data sizes:     COMRAM   BANK0   BANK1   BANK2   BANK3   BANK4   BANK5   BANK6   BANK7   BANK8   BANK9  BANK10  BANK1
      +1  BANK12  BANK13  BANK14  BANK15
  9730 ;;      Params:         1       0       0       0       0       0       0       0       0       0       0       0       
      +0       0       0       0       0
  9731 ;;      Locals:         1       0       0       0       0       0       0       0       0       0       0       0       
      +0       0       0       0       0
  9732 ;;      Temps:          1       0       0       0       0       0       0       0       0       0       0       0       
      +0       0       0       0       0
  9733 ;;      Totals:         3       0       0       0       0       0       0       0       0       0       0       0       
      +0       0       0       0       0
  9734 ;;Total ram usage:        3 bytes
  9735 ;; Hardware stack levels used: 1
  9736 ;; Hardware stack levels required when called: 1
  9737 ;; This function calls:
  9738 ;;		i2_gpio_pin_write_logic
  9739 ;; This function is called by:
  9740 ;;		_EUSART_RXDefaultInterruptHandler
  9741 ;; This function uses a non-reentrant model
  9742 ;;
  9743                           
  9744                           	psect	text49
  9745   003874                     __ptext49:
  9746                           	callstack 0
  9747   003874                     i2_led_turn_on:
  9748                           	callstack 21
  9749   003874                     
  9750                           ;ECU_layer/LED/ecu_led.c: 42:     if(((void*)0) == led){
  9751   003874  5009               	movf	i2led_turn_on@led^0,w,c
  9752   003876  A4D8               	btfss	status,2,c
  9753   003878  EF40  F01C         	goto	i2u588_41
  9754   00387C  EF42  F01C         	goto	i2u588_40
  9755   003880                     i2u588_41:
  9756   003880  EF44  F01C         	goto	i2l234
  9757   003884                     i2u588_40:
  9758   003884                     
  9759                           ;ECU_layer/LED/ecu_led.c: 44:     }
  9760   003884  EF74  F01C         	goto	i2l238
  9761   003888                     i2l234:
  9762                           
  9763                           ;ECU_layer/LED/ecu_led.c: 46:         pin_config_t pin_obj = {
  9764   003888  C0F4  F00B         	movff	led_turn_on@F3063,i2led_turn_on@pin_obj
  9765   00388C  5009               	movf	i2led_turn_on@led^0,w,c
  9766   00388E  6ED9               	movwf	fsr2l,c
  9767   003890  6ADA               	clrf	fsr2h,c
  9768   003892  50DF               	movf	indf2,w,c
  9769   003894  6E0A               	movwf	??i2_led_turn_on^0,c
  9770   003896  500B               	movf	i2led_turn_on@pin_obj^0,w,c
  9771   003898  180A               	xorwf	??i2_led_turn_on^0,w,c
  9772   00389A  0BF8               	andlw	-8
  9773   00389C  180A               	xorwf	??i2_led_turn_on^0,w,c
  9774   00389E  6E0B               	movwf	i2led_turn_on@pin_obj^0,c
  9775   0038A0  5009               	movf	i2led_turn_on@led^0,w,c
  9776   0038A2  6ED9               	movwf	fsr2l,c
  9777   0038A4  6ADA               	clrf	fsr2h,c
  9778   0038A6  0E01               	movlw	1
  9779   0038A8  26D9               	addwf	fsr2l,f,c
  9780   0038AA  50DF               	movf	indf2,w,c
  9781   0038AC  6E0A               	movwf	??i2_led_turn_on^0,c
  9782   0038AE  460A               	rlncf	??i2_led_turn_on^0,f,c
  9783   0038B0  460A               	rlncf	??i2_led_turn_on^0,f,c
  9784   0038B2  460A               	rlncf	??i2_led_turn_on^0,f,c
  9785   0038B4  500B               	movf	i2led_turn_on@pin_obj^0,w,c
  9786   0038B6  180A               	xorwf	??i2_led_turn_on^0,w,c
  9787   0038B8  0BC7               	andlw	-57
  9788   0038BA  180A               	xorwf	??i2_led_turn_on^0,w,c
  9789   0038BC  6E0B               	movwf	i2led_turn_on@pin_obj^0,c
  9790   0038BE  9C0B               	bcf	i2led_turn_on@pin_obj^0,6,c
  9791   0038C0  5009               	movf	i2led_turn_on@led^0,w,c
  9792   0038C2  6ED9               	movwf	fsr2l,c
  9793   0038C4  6ADA               	clrf	fsr2h,c
  9794   0038C6  0E02               	movlw	2
  9795   0038C8  26D9               	addwf	fsr2l,f,c
  9796   0038CA  50DF               	movf	indf2,w,c
  9797   0038CC  6E0A               	movwf	??i2_led_turn_on^0,c
  9798   0038CE  320A               	rrcf	??i2_led_turn_on^0,f,c
  9799   0038D0  320A               	rrcf	??i2_led_turn_on^0,f,c
  9800   0038D2  500B               	movf	i2led_turn_on@pin_obj^0,w,c
  9801   0038D4  180A               	xorwf	??i2_led_turn_on^0,w,c
  9802   0038D6  0B7F               	andlw	-129
  9803   0038D8  180A               	xorwf	??i2_led_turn_on^0,w,c
  9804   0038DA  6E0B               	movwf	i2led_turn_on@pin_obj^0,c
  9805   0038DC  0E0B               	movlw	low i2led_turn_on@pin_obj
  9806   0038DE  6E01               	movwf	i2gpio_pin_write_logic@_pin_config^0,c
  9807   0038E0  0E01               	movlw	1
  9808   0038E2  6E02               	movwf	i2gpio_pin_write_logic@logic^0,c
  9809   0038E4  EC40  F017         	call	i2_gpio_pin_write_logic	;wreg free
  9810   0038E8                     i2l238:
  9811   0038E8  0012               	return		;funcret
  9812   0038EA                     __end_ofi2_led_turn_on:
  9813                           	callstack 0
  9814                           
  9815 ;; *************** function i2_led_turn_off *****************
  9816 ;; Defined at:
  9817 ;;		line 63 in file "ECU_layer/LED/ecu_led.c"
  9818 ;; Parameters:    Size  Location     Type
  9819 ;;  led             1    8[COMRAM] PTR const struct .
  9820 ;;		 -> room_2_AC(3), room_2_light(3), room_1_AC(3), room_1_light(3), 
  9821 ;;		 -> reseption_TV(3), reseption_AC(3), reseption_light(3), 
  9822 ;; Auto vars:     Size  Location     Type
  9823 ;;  pin_obj         1   10[COMRAM] struct .
  9824 ;;  error_state     1    0        unsigned char 
  9825 ;; Return value:  Size  Location     Type
  9826 ;;                  1    wreg      unsigned char 
  9827 ;; Registers used:
  9828 ;;		wreg, fsr2l, fsr2h, status,2, status,0, prodl, prodh, cstack
  9829 ;; Tracked objects:
  9830 ;;		On entry : 0/0
  9831 ;;		On exit  : 0/0
  9832 ;;		Unchanged: 0/0
  9833 ;; Data sizes:     COMRAM   BANK0   BANK1   BANK2   BANK3   BANK4   BANK5   BANK6   BANK7   BANK8   BANK9  BANK10  BANK1
      +1  BANK12  BANK13  BANK14  BANK15
  9834 ;;      Params:         1       0       0       0       0       0       0       0       0       0       0       0       
      +0       0       0       0       0
  9835 ;;      Locals:         1       0       0       0       0       0       0       0       0       0       0       0       
      +0       0       0       0       0
  9836 ;;      Temps:          1       0       0       0       0       0       0       0       0       0       0       0       
      +0       0       0       0       0
  9837 ;;      Totals:         3       0       0       0       0       0       0       0       0       0       0       0       
      +0       0       0       0       0
  9838 ;;Total ram usage:        3 bytes
  9839 ;; Hardware stack levels used: 1
  9840 ;; Hardware stack levels required when called: 1
  9841 ;; This function calls:
  9842 ;;		i2_gpio_pin_write_logic
  9843 ;; This function is called by:
  9844 ;;		_EUSART_RXDefaultInterruptHandler
  9845 ;; This function uses a non-reentrant model
  9846 ;;
  9847                           
  9848                           	psect	text50
  9849   0038EA                     __ptext50:
  9850                           	callstack 0
  9851   0038EA                     i2_led_turn_off:
  9852                           	callstack 21
  9853   0038EA                     
  9854                           ;ECU_layer/LED/ecu_led.c: 65:     if(((void*)0) == led){
  9855   0038EA  5009               	movf	i2led_turn_off@led^0,w,c
  9856   0038EC  A4D8               	btfss	status,2,c
  9857   0038EE  EF7B  F01C         	goto	i2u589_41
  9858   0038F2  EF7D  F01C         	goto	i2u589_40
  9859   0038F6                     i2u589_41:
  9860   0038F6  EF7F  F01C         	goto	i2l241
  9861   0038FA                     i2u589_40:
  9862   0038FA                     
  9863                           ;ECU_layer/LED/ecu_led.c: 67:     }
  9864   0038FA  EFAF  F01C         	goto	i2l245
  9865   0038FE                     i2l241:
  9866                           
  9867                           ;ECU_layer/LED/ecu_led.c: 69:         pin_config_t pin_obj = {
  9868   0038FE  C0F3  F00B         	movff	led_turn_off@F3068,i2led_turn_off@pin_obj
  9869   003902  5009               	movf	i2led_turn_off@led^0,w,c
  9870   003904  6ED9               	movwf	fsr2l,c
  9871   003906  6ADA               	clrf	fsr2h,c
  9872   003908  50DF               	movf	indf2,w,c
  9873   00390A  6E0A               	movwf	??i2_led_turn_off^0,c
  9874   00390C  500B               	movf	i2led_turn_off@pin_obj^0,w,c
  9875   00390E  180A               	xorwf	??i2_led_turn_off^0,w,c
  9876   003910  0BF8               	andlw	-8
  9877   003912  180A               	xorwf	??i2_led_turn_off^0,w,c
  9878   003914  6E0B               	movwf	i2led_turn_off@pin_obj^0,c
  9879   003916  5009               	movf	i2led_turn_off@led^0,w,c
  9880   003918  6ED9               	movwf	fsr2l,c
  9881   00391A  6ADA               	clrf	fsr2h,c
  9882   00391C  0E01               	movlw	1
  9883   00391E  26D9               	addwf	fsr2l,f,c
  9884   003920  50DF               	movf	indf2,w,c
  9885   003922  6E0A               	movwf	??i2_led_turn_off^0,c
  9886   003924  460A               	rlncf	??i2_led_turn_off^0,f,c
  9887   003926  460A               	rlncf	??i2_led_turn_off^0,f,c
  9888   003928  460A               	rlncf	??i2_led_turn_off^0,f,c
  9889   00392A  500B               	movf	i2led_turn_off@pin_obj^0,w,c
  9890   00392C  180A               	xorwf	??i2_led_turn_off^0,w,c
  9891   00392E  0BC7               	andlw	-57
  9892   003930  180A               	xorwf	??i2_led_turn_off^0,w,c
  9893   003932  6E0B               	movwf	i2led_turn_off@pin_obj^0,c
  9894   003934  9C0B               	bcf	i2led_turn_off@pin_obj^0,6,c
  9895   003936  5009               	movf	i2led_turn_off@led^0,w,c
  9896   003938  6ED9               	movwf	fsr2l,c
  9897   00393A  6ADA               	clrf	fsr2h,c
  9898   00393C  0E02               	movlw	2
  9899   00393E  26D9               	addwf	fsr2l,f,c
  9900   003940  50DF               	movf	indf2,w,c
  9901   003942  6E0A               	movwf	??i2_led_turn_off^0,c
  9902   003944  320A               	rrcf	??i2_led_turn_off^0,f,c
  9903   003946  320A               	rrcf	??i2_led_turn_off^0,f,c
  9904   003948  500B               	movf	i2led_turn_off@pin_obj^0,w,c
  9905   00394A  180A               	xorwf	??i2_led_turn_off^0,w,c
  9906   00394C  0B7F               	andlw	-129
  9907   00394E  180A               	xorwf	??i2_led_turn_off^0,w,c
  9908   003950  6E0B               	movwf	i2led_turn_off@pin_obj^0,c
  9909   003952  0E0B               	movlw	low i2led_turn_off@pin_obj
  9910   003954  6E01               	movwf	i2gpio_pin_write_logic@_pin_config^0,c
  9911   003956  0E00               	movlw	0
  9912   003958  6E02               	movwf	i2gpio_pin_write_logic@logic^0,c
  9913   00395A  EC40  F017         	call	i2_gpio_pin_write_logic	;wreg free
  9914   00395E                     i2l245:
  9915   00395E  0012               	return		;funcret
  9916   003960                     __end_ofi2_led_turn_off:
  9917                           	callstack 0
  9918                           
  9919 ;; *************** function i2_gpio_pin_write_logic *****************
  9920 ;; Defined at:
  9921 ;;		line 75 in file "MCAL_layer/GPIO/mcal_gpio.c"
  9922 ;; Parameters:    Size  Location     Type
  9923 ;;  _pin_config     1    0[COMRAM] PTR const struct .
  9924 ;;		 -> i2led_turn_off@pin_obj(1), i2led_turn_on@pin_obj(1), CCP1_PIN_PWM_MODE(1), led_turn_off@pin_obj(1), 
  9925 ;;		 -> led_turn_on@pin_obj(1), led_initialize@pin_obj(1), 
  9926 ;;  logic           1    1[COMRAM] enum E2978
  9927 ;; Auto vars:     Size  Location     Type
  9928 ;;  error_state     1    7[COMRAM] unsigned char 
  9929 ;; Return value:  Size  Location     Type
  9930 ;;                  1    wreg      unsigned char 
  9931 ;; Registers used:
  9932 ;;		wreg, fsr2l, fsr2h, status,2, status,0, prodl, prodh
  9933 ;; Tracked objects:
  9934 ;;		On entry : 0/0
  9935 ;;		On exit  : 0/0
  9936 ;;		Unchanged: 0/0
  9937 ;; Data sizes:     COMRAM   BANK0   BANK1   BANK2   BANK3   BANK4   BANK5   BANK6   BANK7   BANK8   BANK9  BANK10  BANK1
      +1  BANK12  BANK13  BANK14  BANK15
  9938 ;;      Params:         2       0       0       0       0       0       0       0       0       0       0       0       
      +0       0       0       0       0
  9939 ;;      Locals:         1       0       0       0       0       0       0       0       0       0       0       0       
      +0       0       0       0       0
  9940 ;;      Temps:          5       0       0       0       0       0       0       0       0       0       0       0       
      +0       0       0       0       0
  9941 ;;      Totals:         8       0       0       0       0       0       0       0       0       0       0       0       
      +0       0       0       0       0
  9942 ;;Total ram usage:        8 bytes
  9943 ;; Hardware stack levels used: 1
  9944 ;; This function calls:
  9945 ;;		Nothing
  9946 ;; This function is called by:
  9947 ;;		i2_led_turn_on
  9948 ;;		i2_led_turn_off
  9949 ;; This function uses a non-reentrant model
  9950 ;;
  9951                           
  9952                           	psect	text51
  9953   002E80                     __ptext51:
  9954                           	callstack 0
  9955   002E80                     i2_gpio_pin_write_logic:
  9956                           	callstack 21
  9957   002E80                     
  9958                           ;MCAL_layer/GPIO/mcal_gpio.c: 76:     STD_ReturnType error_state = (STD_ReturnType)0x01 
      +                          ;
  9959   002E80  0E01               	movlw	1
  9960   002E82  6E08               	movwf	i2gpio_pin_write_logic@error_state^0,c
  9961                           
  9962                           ;MCAL_layer/GPIO/mcal_gpio.c: 77:     if(((void*)0) == _pin_config ){
  9963   002E84  5001               	movf	i2gpio_pin_write_logic@_pin_config^0,w,c
  9964   002E86  A4D8               	btfss	status,2,c
  9965   002E88  EF48  F017         	goto	i2u559_41
  9966   002E8C  EF4A  F017         	goto	i2u559_40
  9967   002E90                     i2u559_41:
  9968   002E90  EFA1  F017         	goto	i2l7026
  9969   002E94                     i2u559_40:
  9970   002E94                     i2l7018:
  9971                           
  9972                           ;MCAL_layer/GPIO/mcal_gpio.c: 78:         error_state = (STD_ReturnType)0x00 ;
  9973   002E94  0E00               	movlw	0
  9974   002E96  6E08               	movwf	i2gpio_pin_write_logic@error_state^0,c
  9975                           
  9976                           ;MCAL_layer/GPIO/mcal_gpio.c: 79:     }
  9977   002E98  EFB6  F017         	goto	i2l7028
  9978   002E9C                     i2l7020:
  9979                           
  9980                           ;MCAL_layer/GPIO/mcal_gpio.c: 83:                 (*lat_regs[_pin_config->port] &=~((uin
      +                          t8)1<<_pin_config->pin)) ;
  9981   002E9C  5001               	movf	i2gpio_pin_write_logic@_pin_config^0,w,c
  9982   002E9E  6ED9               	movwf	fsr2l,c
  9983   002EA0  6ADA               	clrf	fsr2h,c
  9984   002EA2  30DF               	rrcf	223,w,c
  9985   002EA4  32E8               	rrcf	wreg,f,c
  9986   002EA6  32E8               	rrcf	wreg,f,c
  9987   002EA8  0B07               	andlw	7
  9988   002EAA  6E03               	movwf	??i2_gpio_pin_write_logic^0,c
  9989   002EAC  0E01               	movlw	1
  9990   002EAE  6E04               	movwf	(??i2_gpio_pin_write_logic+1)^0,c
  9991   002EB0  2A03               	incf	??i2_gpio_pin_write_logic^0,f,c
  9992   002EB2  EF5D  F017         	goto	i2u560_44
  9993   002EB6                     i2u560_45:
  9994   002EB6  90D8               	bcf	status,0,c
  9995   002EB8  3604               	rlcf	(??i2_gpio_pin_write_logic+1)^0,f,c
  9996   002EBA                     i2u560_44:
  9997   002EBA  2E03               	decfsz	??i2_gpio_pin_write_logic^0,f,c
  9998   002EBC  EF5B  F017         	goto	i2u560_45
  9999   002EC0  5004               	movf	(??i2_gpio_pin_write_logic+1)^0,w,c
 10000   002EC2  0AFF               	xorlw	255
 10001   002EC4  6E05               	movwf	(??i2_gpio_pin_write_logic+2)^0,c
 10002   002EC6  5001               	movf	i2gpio_pin_write_logic@_pin_config^0,w,c
 10003   002EC8  6ED9               	movwf	fsr2l,c
 10004   002ECA  6ADA               	clrf	fsr2h,c
 10005   002ECC  50DF               	movf	223,w,c
 10006   002ECE  0B07               	andlw	7
 10007   002ED0  0D02               	mullw	2
 10008   002ED2  50F3               	movf	243,w,c
 10009   002ED4  0FBD               	addlw	low _lat_regs
 10010   002ED6  6ED9               	movwf	fsr2l,c
 10011   002ED8  6ADA               	clrf	fsr2h,c
 10012   002EDA  CFDE F006          	movff	postinc2,??i2_gpio_pin_write_logic+3
 10013   002EDE  CFDD F007          	movff	postdec2,??i2_gpio_pin_write_logic+4
 10014   002EE2  C006  FFD9         	movff	??i2_gpio_pin_write_logic+3,fsr2l
 10015   002EE6  C007  FFDA         	movff	??i2_gpio_pin_write_logic+4,fsr2h
 10016   002EEA  5005               	movf	(??i2_gpio_pin_write_logic+2)^0,w,c
 10017   002EEC  16DF               	andwf	indf2,f,c
 10018                           
 10019                           ;MCAL_layer/GPIO/mcal_gpio.c: 84:                 break ;
 10020   002EEE  EFB6  F017         	goto	i2l7028
 10021   002EF2                     i2l7022:
 10022                           
 10023                           ;MCAL_layer/GPIO/mcal_gpio.c: 86:                 (*lat_regs[_pin_config->port] |= ((uin
      +                          t8)1<<_pin_config->pin)) ;
 10024   002EF2  5001               	movf	i2gpio_pin_write_logic@_pin_config^0,w,c
 10025   002EF4  6ED9               	movwf	fsr2l,c
 10026   002EF6  6ADA               	clrf	fsr2h,c
 10027   002EF8  30DF               	rrcf	223,w,c
 10028   002EFA  32E8               	rrcf	wreg,f,c
 10029   002EFC  32E8               	rrcf	wreg,f,c
 10030   002EFE  0B07               	andlw	7
 10031   002F00  6E03               	movwf	??i2_gpio_pin_write_logic^0,c
 10032   002F02  0E01               	movlw	1
 10033   002F04  6E04               	movwf	(??i2_gpio_pin_write_logic+1)^0,c
 10034   002F06  2A03               	incf	??i2_gpio_pin_write_logic^0,f,c
 10035   002F08  EF88  F017         	goto	i2u561_44
 10036   002F0C                     i2u561_45:
 10037   002F0C  90D8               	bcf	status,0,c
 10038   002F0E  3604               	rlcf	(??i2_gpio_pin_write_logic+1)^0,f,c
 10039   002F10                     i2u561_44:
 10040   002F10  2E03               	decfsz	??i2_gpio_pin_write_logic^0,f,c
 10041   002F12  EF86  F017         	goto	i2u561_45
 10042   002F16  5001               	movf	i2gpio_pin_write_logic@_pin_config^0,w,c
 10043   002F18  6ED9               	movwf	fsr2l,c
 10044   002F1A  6ADA               	clrf	fsr2h,c
 10045   002F1C  50DF               	movf	223,w,c
 10046   002F1E  0B07               	andlw	7
 10047   002F20  0D02               	mullw	2
 10048   002F22  50F3               	movf	243,w,c
 10049   002F24  0FBD               	addlw	low _lat_regs
 10050   002F26  6ED9               	movwf	fsr2l,c
 10051   002F28  6ADA               	clrf	fsr2h,c
 10052   002F2A  CFDE F005          	movff	postinc2,??i2_gpio_pin_write_logic+2
 10053   002F2E  CFDD F006          	movff	postdec2,??i2_gpio_pin_write_logic+3
 10054   002F32  C005  FFD9         	movff	??i2_gpio_pin_write_logic+2,fsr2l
 10055   002F36  C006  FFDA         	movff	??i2_gpio_pin_write_logic+3,fsr2h
 10056   002F3A  5004               	movf	(??i2_gpio_pin_write_logic+1)^0,w,c
 10057   002F3C  12DF               	iorwf	indf2,f,c
 10058                           
 10059                           ;MCAL_layer/GPIO/mcal_gpio.c: 87:                 break ;
 10060   002F3E  EFB6  F017         	goto	i2l7028
 10061   002F42                     i2l7026:
 10062   002F42  5002               	movf	i2gpio_pin_write_logic@logic^0,w,c
 10063   002F44  6E03               	movwf	??i2_gpio_pin_write_logic^0,c
 10064   002F46  6A04               	clrf	(??i2_gpio_pin_write_logic+1)^0,c
 10065                           
 10066                           ; Switch on 2 bytes has been partitioned into a top level switch of size 1, and 1 sub-sw
      +                          itches
 10067                           ; Switch size 1, requested type "simple"
 10068                           ; Number of cases is 1, Range of values is 0 to 0
 10069                           ; switch strategies available:
 10070                           ; Name         Instructions Cycles
 10071                           ; simple_byte            4     3 (average)
 10072                           ;	Chosen strategy is simple_byte
 10073   002F48  5004               	movf	(??i2_gpio_pin_write_logic+1)^0,w,c
 10074   002F4A  0A00               	xorlw	0	; case 0
 10075   002F4C  B4D8               	btfsc	status,2,c
 10076   002F4E  EFAB  F017         	goto	i2l10486
 10077   002F52  EF4A  F017         	goto	i2l7018
 10078   002F56                     i2l10486:
 10079                           
 10080                           ; Switch size 1, requested type "simple"
 10081                           ; Number of cases is 2, Range of values is 0 to 1
 10082                           ; switch strategies available:
 10083                           ; Name         Instructions Cycles
 10084                           ; simple_byte            7     4 (average)
 10085                           ;	Chosen strategy is simple_byte
 10086   002F56  5003               	movf	??i2_gpio_pin_write_logic^0,w,c
 10087   002F58  0A00               	xorlw	0	; case 0
 10088   002F5A  B4D8               	btfsc	status,2,c
 10089   002F5C  EF4E  F017         	goto	i2l7020
 10090   002F60  0A01               	xorlw	1	; case 1
 10091   002F62  B4D8               	btfsc	status,2,c
 10092   002F64  EF79  F017         	goto	i2l7022
 10093   002F68  EF4A  F017         	goto	i2l7018
 10094   002F6C                     i2l7028:
 10095                           
 10096                           ;MCAL_layer/GPIO/mcal_gpio.c: 91:     return error_state ;
 10097   002F6C  5008               	movf	i2gpio_pin_write_logic@error_state^0,w,c
 10098   002F6E  0012               	return		;funcret
 10099   002F70                     __end_ofi2_gpio_pin_write_logic:
 10100                           	callstack 0
 10101                           
 10102 ;; *************** function _EUSART_ASYNC_ReadByteNonBlocking *****************
 10103 ;; Defined at:
 10104 ;;		line 93 in file "MCAL_layer/EUSART/mcal_eusart.c"
 10105 ;; Parameters:    Size  Location     Type
 10106 ;;  _data           1    0[COMRAM] PTR unsigned char 
 10107 ;;		 -> euart_val(1), 
 10108 ;; Auto vars:     Size  Location     Type
 10109 ;;  ret             1    0        unsigned char 
 10110 ;; Return value:  Size  Location     Type
 10111 ;;                  1    wreg      unsigned char 
 10112 ;; Registers used:
 10113 ;;		wreg, fsr2l, fsr2h, status,2
 10114 ;; Tracked objects:
 10115 ;;		On entry : 0/0
 10116 ;;		On exit  : 0/0
 10117 ;;		Unchanged: 0/0
 10118 ;; Data sizes:     COMRAM   BANK0   BANK1   BANK2   BANK3   BANK4   BANK5   BANK6   BANK7   BANK8   BANK9  BANK10  BANK1
      +1  BANK12  BANK13  BANK14  BANK15
 10119 ;;      Params:         1       0       0       0       0       0       0       0       0       0       0       0       
      +0       0       0       0       0
 10120 ;;      Locals:         0       0       0       0       0       0       0       0       0       0       0       0       
      +0       0       0       0       0
 10121 ;;      Temps:          0       0       0       0       0       0       0       0       0       0       0       0       
      +0       0       0       0       0
 10122 ;;      Totals:         1       0       0       0       0       0       0       0       0       0       0       0       
      +0       0       0       0       0
 10123 ;;Total ram usage:        1 bytes
 10124 ;; Hardware stack levels used: 1
 10125 ;; This function calls:
 10126 ;;		Nothing
 10127 ;; This function is called by:
 10128 ;;		_EUSART_RXDefaultInterruptHandler
 10129 ;; This function uses a non-reentrant model
 10130 ;;
 10131                           
 10132                           	psect	text52
 10133   003FC8                     __ptext52:
 10134                           	callstack 0
 10135   003FC8                     _EUSART_ASYNC_ReadByteNonBlocking:
 10136                           	callstack 22
 10137   003FC8                     
 10138                           ;MCAL_layer/EUSART/mcal_eusart.c: 95:     if(1 == PIR1bits.RCIF){
 10139   003FC8  AA9E               	btfss	158,5,c	;volatile
 10140   003FCA  EFE9  F01F         	goto	i2u585_41
 10141   003FCE  EFEB  F01F         	goto	i2u585_40
 10142   003FD2                     i2u585_41:
 10143   003FD2  EFF2  F01F         	goto	i2l7194
 10144   003FD6                     i2u585_40:
 10145   003FD6                     
 10146                           ;MCAL_layer/EUSART/mcal_eusart.c: 96:         *_data = RCREG;
 10147   003FD6  5001               	movf	EUSART_ASYNC_ReadByteNonBlocking@_data^0,w,c
 10148   003FD8  6ED9               	movwf	fsr2l,c
 10149   003FDA  6ADA               	clrf	fsr2h,c
 10150   003FDC  CFAE FFDF          	movff	4014,indf2	;volatile
 10151   003FE0                     
 10152                           ;MCAL_layer/EUSART/mcal_eusart.c: 98:     }
 10153   003FE0  EFF2  F01F         	goto	i2l640
 10154   003FE4                     i2l7194:
 10155   003FE4                     i2l640:
 10156   003FE4  0012               	return		;funcret
 10157   003FE6                     __end_of_EUSART_ASYNC_ReadByteNonBlocking:
 10158                           	callstack 0
 10159                           
 10160 ;; *************** function _EUSART_ASYNC_ReadByteBlocking *****************
 10161 ;; Defined at:
 10162 ;;		line 85 in file "MCAL_layer/EUSART/mcal_eusart.c"
 10163 ;; Parameters:    Size  Location     Type
 10164 ;;  _data           1    0[COMRAM] PTR unsigned char 
 10165 ;;		 -> r2_ac_temp(1), r1_ac_temp(1), re_ac_temp(1), 
 10166 ;; Auto vars:     Size  Location     Type
 10167 ;;  error_state     1    0        unsigned char 
 10168 ;; Return value:  Size  Location     Type
 10169 ;;                  1    wreg      unsigned char 
 10170 ;; Registers used:
 10171 ;;		wreg, fsr2l, fsr2h, status,2
 10172 ;; Tracked objects:
 10173 ;;		On entry : 0/0
 10174 ;;		On exit  : 0/0
 10175 ;;		Unchanged: 0/0
 10176 ;; Data sizes:     COMRAM   BANK0   BANK1   BANK2   BANK3   BANK4   BANK5   BANK6   BANK7   BANK8   BANK9  BANK10  BANK1
      +1  BANK12  BANK13  BANK14  BANK15
 10177 ;;      Params:         1       0       0       0       0       0       0       0       0       0       0       0       
      +0       0       0       0       0
 10178 ;;      Locals:         0       0       0       0       0       0       0       0       0       0       0       0       
      +0       0       0       0       0
 10179 ;;      Temps:          0       0       0       0       0       0       0       0       0       0       0       0       
      +0       0       0       0       0
 10180 ;;      Totals:         1       0       0       0       0       0       0       0       0       0       0       0       
      +0       0       0       0       0
 10181 ;;Total ram usage:        1 bytes
 10182 ;; Hardware stack levels used: 1
 10183 ;; This function calls:
 10184 ;;		Nothing
 10185 ;; This function is called by:
 10186 ;;		_EUSART_RXDefaultInterruptHandler
 10187 ;; This function uses a non-reentrant model
 10188 ;;
 10189                           
 10190                           	psect	text53
 10191   003FE6                     __ptext53:
 10192                           	callstack 0
 10193   003FE6                     _EUSART_ASYNC_ReadByteBlocking:
 10194                           	callstack 22
 10195   003FE6                     i2l632:
 10196   003FE6  AA9E               	btfss	158,5,c	;volatile
 10197   003FE8  EFF8  F01F         	goto	i2u584_41
 10198   003FEC  EFFA  F01F         	goto	i2u584_40
 10199   003FF0                     i2u584_41:
 10200   003FF0  EFF3  F01F         	goto	i2l632
 10201   003FF4                     i2u584_40:
 10202   003FF4                     
 10203                           ;MCAL_layer/EUSART/mcal_eusart.c: 88:     *_data = RCREG ;
 10204   003FF4  5001               	movf	EUSART_ASYNC_ReadByteBlocking@_data^0,w,c
 10205   003FF6  6ED9               	movwf	fsr2l,c
 10206   003FF8  6ADA               	clrf	fsr2h,c
 10207   003FFA  CFAE FFDF          	movff	4014,indf2	;volatile
 10208   003FFE  0012               	return		;funcret
 10209   004000                     __end_of_EUSART_ASYNC_ReadByteBlocking:
 10210                           	callstack 0
 10211                           
 10212 ;; *************** function _ADC_ISR *****************
 10213 ;; Defined at:
 10214 ;;		line 340 in file "MCAL_layer/ADC/mcal_adc.c"
 10215 ;; Parameters:    Size  Location     Type
 10216 ;;		None
 10217 ;; Auto vars:     Size  Location     Type
 10218 ;;		None
 10219 ;; Return value:  Size  Location     Type
 10220 ;;                  1    wreg      void 
 10221 ;; Registers used:
 10222 ;;		None
 10223 ;; Tracked objects:
 10224 ;;		On entry : 0/0
 10225 ;;		On exit  : 0/0
 10226 ;;		Unchanged: 0/0
 10227 ;; Data sizes:     COMRAM   BANK0   BANK1   BANK2   BANK3   BANK4   BANK5   BANK6   BANK7   BANK8   BANK9  BANK10  BANK1
      +1  BANK12  BANK13  BANK14  BANK15
 10228 ;;      Params:         0       0       0       0       0       0       0       0       0       0       0       0       
      +0       0       0       0       0
 10229 ;;      Locals:         0       0       0       0       0       0       0       0       0       0       0       0       
      +0       0       0       0       0
 10230 ;;      Temps:          0       0       0       0       0       0       0       0       0       0       0       0       
      +0       0       0       0       0
 10231 ;;      Totals:         0       0       0       0       0       0       0       0       0       0       0       0       
      +0       0       0       0       0
 10232 ;;Total ram usage:        0 bytes
 10233 ;; Hardware stack levels used: 1
 10234 ;; This function calls:
 10235 ;;		Nothing
 10236 ;; This function is called by:
 10237 ;;		_InterruptManager
 10238 ;; This function uses a non-reentrant model
 10239 ;;
 10240                           
 10241                           	psect	text54
 10242   00403E                     __ptext54:
 10243                           	callstack 0
 10244   00403E                     _ADC_ISR:
 10245                           	callstack 24
 10246   00403E                     
 10247                           ;MCAL_layer/ADC/mcal_adc.c: 342:     (PIR1bits.ADIF =0);
 10248   00403E  9C9E               	bcf	158,6,c	;volatile
 10249   004040  0012               	return		;funcret
 10250   004042                     __end_of_ADC_ISR:
 10251                           	callstack 0
 10252                           
 10253                           	psect	rparam
 10254   000000                     
 10255                           	psect	temp
 10256   000077                     btemp:
 10257                           	callstack 0
 10258   000077                     	ds	1
 10259   000000                     int$flags	set	btemp
 10260   000000                     wtemp8	set	btemp+1
 10261   000000                     ttemp5	set	btemp+1
 10262   000000                     ttemp6	set	btemp+4
 10263   000000                     ttemp7	set	btemp+8
 10264                           
 10265                           	psect	config
 10266                           
 10267                           ; Padding undefined space
 10268   300000                     	org	3145728
 10269   300000  FF                 	db	255
 10270                           
 10271                           ;Config register CONFIG1H @ 0x300001
 10272                           ;	Oscillator Selection bits
 10273                           ;	OSC = HS, HS oscillator
 10274                           ;	Fail-Safe Clock Monitor Enable bit
 10275                           ;	FCMEN = OFF, Fail-Safe Clock Monitor disabled
 10276                           ;	Internal/External Oscillator Switchover bit
 10277                           ;	IESO = OFF, Oscillator Switchover mode disabled
 10278   300001                     	org	3145729
 10279   300001  02                 	db	2
 10280                           
 10281                           ;Config register CONFIG2L @ 0x300002
 10282                           ;	Power-up Timer Enable bit
 10283                           ;	PWRT = OFF, PWRT disabled
 10284                           ;	Brown-out Reset Enable bits
 10285                           ;	BOREN = OFF, Brown-out Reset disabled in hardware and software
 10286                           ;	Brown Out Reset Voltage bits
 10287                           ;	BORV = 1, 
 10288   300002                     	org	3145730
 10289   300002  09                 	db	9
 10290                           
 10291                           ;Config register CONFIG2H @ 0x300003
 10292                           ;	Watchdog Timer Enable bit
 10293                           ;	WDT = OFF, WDT disabled (control is placed on the SWDTEN bit)
 10294                           ;	Watchdog Timer Postscale Select bits
 10295                           ;	WDTPS = 32768, 1:32768
 10296   300003                     	org	3145731
 10297   300003  1E                 	db	30
 10298                           
 10299                           ; Padding undefined space
 10300   300004                     	org	3145732
 10301   300004  FF                 	db	255
 10302                           
 10303                           ;Config register CONFIG3H @ 0x300005
 10304                           ;	CCP2 MUX bit
 10305                           ;	CCP2MX = PORTC, CCP2 input/output is multiplexed with RC1
 10306                           ;	PORTB A/D Enable bit
 10307                           ;	PBADEN = OFF, PORTB<4:0> pins are configured as digital I/O on Reset
 10308                           ;	Low-Power Timer1 Oscillator Enable bit
 10309                           ;	LPT1OSC = OFF, Timer1 configured for higher power operation
 10310                           ;	MCLR Pin Enable bit
 10311                           ;	MCLRE = ON, MCLR pin enabled; RE3 input pin disabled
 10312   300005                     	org	3145733
 10313   300005  81                 	db	129
 10314                           
 10315                           ;Config register CONFIG4L @ 0x300006
 10316                           ;	Stack Full/Underflow Reset Enable bit
 10317                           ;	STVREN = ON, Stack full/underflow will cause Reset
 10318                           ;	Single-Supply ICSP Enable bit
 10319                           ;	LVP = OFF, Single-Supply ICSP disabled
 10320                           ;	Extended Instruction Set Enable bit
 10321                           ;	XINST = OFF, Instruction set extension and Indexed Addressing mode disabled (Legacy mo
      +                          de)
 10322                           ;	Background Debugger Enable bit
 10323                           ;	DEBUG = 0x1, unprogrammed default
 10324   300006                     	org	3145734
 10325   300006  81                 	db	129
 10326                           
 10327                           ; Padding undefined space
 10328   300007                     	org	3145735
 10329   300007  FF                 	db	255
 10330                           
 10331                           ;Config register CONFIG5L @ 0x300008
 10332                           ;	Code Protection bit
 10333                           ;	CP0 = OFF, Block 0 (000800-003FFFh) not code-protected
 10334                           ;	Code Protection bit
 10335                           ;	CP1 = OFF, Block 1 (004000-007FFFh) not code-protected
 10336                           ;	Code Protection bit
 10337                           ;	CP2 = OFF, Block 2 (008000-00BFFFh) not code-protected
 10338                           ;	Code Protection bit
 10339                           ;	CP3 = OFF, Block 3 (00C000-00FFFFh) not code-protected
 10340   300008                     	org	3145736
 10341   300008  0F                 	db	15
 10342                           
 10343                           ;Config register CONFIG5H @ 0x300009
 10344                           ;	Boot Block Code Protection bit
 10345                           ;	CPB = OFF, Boot block (000000-0007FFh) not code-protected
 10346                           ;	Data EEPROM Code Protection bit
 10347                           ;	CPD = OFF, Data EEPROM not code-protected
 10348   300009                     	org	3145737
 10349   300009  C0                 	db	192
 10350                           
 10351                           ;Config register CONFIG6L @ 0x30000A
 10352                           ;	Write Protection bit
 10353                           ;	WRT0 = OFF, Block 0 (000800-003FFFh) not write-protected
 10354                           ;	Write Protection bit
 10355                           ;	WRT1 = OFF, Block 1 (004000-007FFFh) not write-protected
 10356                           ;	Write Protection bit
 10357                           ;	WRT2 = OFF, Block 2 (008000-00BFFFh) not write-protected
 10358                           ;	Write Protection bit
 10359                           ;	WRT3 = OFF, Block 3 (00C000-00FFFFh) not write-protected
 10360   30000A                     	org	3145738
 10361   30000A  0F                 	db	15
 10362                           
 10363                           ;Config register CONFIG6H @ 0x30000B
 10364                           ;	Configuration Register Write Protection bit
 10365                           ;	WRTC = OFF, Configuration registers (300000-3000FFh) not write-protected
 10366                           ;	Boot Block Write Protection bit
 10367                           ;	WRTB = OFF, Boot Block (000000-0007FFh) not write-protected
 10368                           ;	Data EEPROM Write Protection bit
 10369                           ;	WRTD = OFF, Data EEPROM not write-protected
 10370   30000B                     	org	3145739
 10371   30000B  E0                 	db	224
 10372                           
 10373                           ;Config register CONFIG7L @ 0x30000C
 10374                           ;	Table Read Protection bit
 10375                           ;	EBTR0 = OFF, Block 0 (000800-003FFFh) not protected from table reads executed in other
      +                           blocks
 10376                           ;	Table Read Protection bit
 10377                           ;	EBTR1 = OFF, Block 1 (004000-007FFFh) not protected from table reads executed in other
      +                           blocks
 10378                           ;	Table Read Protection bit
 10379                           ;	EBTR2 = OFF, Block 2 (008000-00BFFFh) not protected from table reads executed in other
      +                           blocks
 10380                           ;	Table Read Protection bit
 10381                           ;	EBTR3 = OFF, Block 3 (00C000-00FFFFh) not protected from table reads executed in other
      +                           blocks
 10382   30000C                     	org	3145740
 10383   30000C  0F                 	db	15
 10384                           
 10385                           ;Config register CONFIG7H @ 0x30000D
 10386                           ;	Boot Block Table Read Protection bit
 10387                           ;	EBTRB = OFF, Boot Block (000000-0007FFh) not protected from table reads executed in ot
      +                          her blocks
 10388   30000D                     	org	3145741
 10389   30000D  40                 	db	64
 10390                           tosu	equ	0xFFF
 10391                           tosh	equ	0xFFE
 10392                           tosl	equ	0xFFD
 10393                           stkptr	equ	0xFFC
 10394                           pclatu	equ	0xFFB
 10395                           pclath	equ	0xFFA
 10396                           pcl	equ	0xFF9
 10397                           tblptru	equ	0xFF8
 10398                           tblptrh	equ	0xFF7
 10399                           tblptrl	equ	0xFF6
 10400                           tablat	equ	0xFF5
 10401                           prodh	equ	0xFF4
 10402                           prodl	equ	0xFF3
 10403                           indf0	equ	0xFEF
 10404                           postinc0	equ	0xFEE
 10405                           postdec0	equ	0xFED
 10406                           preinc0	equ	0xFEC
 10407                           plusw0	equ	0xFEB
 10408                           fsr0h	equ	0xFEA
 10409                           fsr0l	equ	0xFE9
 10410                           wreg	equ	0xFE8
 10411                           indf1	equ	0xFE7
 10412                           postinc1	equ	0xFE6
 10413                           postdec1	equ	0xFE5
 10414                           preinc1	equ	0xFE4
 10415                           plusw1	equ	0xFE3
 10416                           fsr1h	equ	0xFE2
 10417                           fsr1l	equ	0xFE1
 10418                           bsr	equ	0xFE0
 10419                           indf2	equ	0xFDF
 10420                           postinc2	equ	0xFDE
 10421                           postdec2	equ	0xFDD
 10422                           preinc2	equ	0xFDC
 10423                           plusw2	equ	0xFDB
 10424                           fsr2h	equ	0xFDA
 10425                           fsr2l	equ	0xFD9
 10426                           status	equ	0xFD8

Data Sizes:
    Strings     6
    Constant    12
    Data        99
    BSS         76
    Persistent  0
    Stack       0

Auto Spaces:
    Space          Size  Autos    Used
    COMRAM          126     60     118
    BANK0           128     61     127
    BANK1           256      8      59
    BANK2           256      0       0
    BANK3           256      0       0
    BANK4           256      0       0
    BANK5           256      0       0
    BANK6           256      0       0
    BANK7           256      0       0
    BANK8           256      0       0
    BANK9           256      0       0
    BANK10          256      0       0
    BANK11          256      0       0
    BANK12          256      0       0
    BANK13          256      0       0
    BANK14          256      0       0
    BANK15          128      0       0

Pointer List with Targets:

    adc_configure_result_format@adc_obj	PTR const struct . size(2) Largest target is 6
		 -> lm35_reseption(BANK1[6]), lm35_room1(BANK1[6]), lm35_room2(BANK1[6]), 

    adc_configure_result_format@adc_obj$ADC_InterruptHandler	PTR FTN()void  size(2) Largest target is 1
		 -> NULL(), 

    adc_configure_voltage_refrence@adc_obj	PTR const struct . size(2) Largest target is 6
		 -> lm35_reseption(BANK1[6]), lm35_room1(BANK1[6]), lm35_room2(BANK1[6]), 

    adc_configure_voltage_refrence@adc_obj$ADC_InterruptHandler	PTR FTN()void  size(2) Largest target is 1
		 -> NULL(), 

    ADC_GetConversion_Blocking@adc_obj	PTR const struct . size(2) Largest target is 6
		 -> lm35_reseption(BANK1[6]), lm35_room1(BANK1[6]), lm35_room2(BANK1[6]), 

    ADC_GetConversion_Blocking@conversion_result	PTR unsigned short  size(1) Largest target is 2
		 -> LM35_GetTempCelsius@l_conversion_res(COMRAM[2]), 

    ADC_GetConversionResult@adc_obj	PTR const struct . size(2) Largest target is 6
		 -> lm35_reseption(BANK1[6]), lm35_room1(BANK1[6]), lm35_room2(BANK1[6]), 

    ADC_GetConversionResult@adc_obj$ADC_InterruptHandler	PTR FTN()void  size(2) Largest target is 1
		 -> NULL(), 

    ADC_GetConversionResult@conversion_result	PTR unsigned short  size(1) Largest target is 2
		 -> LM35_GetTempCelsius@l_conversion_res(COMRAM[2]), 

    ADC_Init@adc_obj	PTR const struct . size(2) Largest target is 6
		 -> lm35_reseption(BANK1[6]), lm35_room1(BANK1[6]), lm35_room2(BANK1[6]), 

    ADC_Init@adc_obj$ADC_InterruptHandler	PTR FTN()void  size(2) Largest target is 1
		 -> NULL(), 

    ADC_InterruptHandler	PTR FTN()void  size(2) Largest target is 1
		 -> NULL(), 

    ADC_SelectChannel@adc_obj	PTR const struct . size(2) Largest target is 6
		 -> lm35_reseption(BANK1[6]), lm35_room1(BANK1[6]), lm35_room2(BANK1[6]), 

    ADC_StartConversion@adc_obj	PTR const struct . size(2) Largest target is 6
		 -> lm35_reseption(BANK1[6]), lm35_room1(BANK1[6]), lm35_room2(BANK1[6]), 

    CCP1_InterruptHandler	PTR FTN()void  size(2) Largest target is 1
		 -> NULL(), 

    CCP2_InterruptHandler	PTR FTN()void  size(2) Largest target is 1
		 -> NULL(), 

    CCP_DeInit@_ccp$ccp_InterruptHandler	PTR FTN()void  size(2) Largest target is 0

    CCP_Init@_ccp$ccp_InterruptHandler	PTR FTN()void  size(2) Largest target is 0

    CCP_PWMEnd@_ccp$ccp_InterruptHandler	PTR FTN()void  size(2) Largest target is 0

    CCP_PWMSetDuty@_ccp$ccp_InterruptHandler	PTR FTN()void  size(2) Largest target is 0

    CCP_PWMStart@_ccp$ccp_InterruptHandler	PTR FTN()void  size(2) Largest target is 0

    eusart_async_baudrate_calculation@_eusart	PTR const struct . size(2) Largest target is 14
		 -> master_uart(BANK1[14]), 

    eusart_async_baudrate_calculation@_eusart$EUSART_FramingErrorHandler	PTR FTN()void  size(2) Largest target is 1
		 -> NULL(), 

    eusart_async_baudrate_calculation@_eusart$EUSART_OverRunErrorHandler	PTR FTN()void  size(2) Largest target is 1
		 -> NULL(), 

    eusart_async_baudrate_calculation@_eusart$EUSART_RXDefaultInterruptHandler	PTR FTN()void  size(2) Largest target is 1
		 -> EUSART_RXDefaultInterruptHandler(), 

    eusart_async_baudrate_calculation@_eusart$EUSART_TXDefaultInterruptHandler	PTR FTN()void  size(2) Largest target is 1
		 -> NULL(), 

    EUSART_ASYNC_FramingErrorHandler	PTR FTN()void  size(2) Largest target is 1
		 -> NULL(), 

    EUSART_ASYNC_Init@_eusart	PTR const struct . size(2) Largest target is 14
		 -> master_uart(BANK1[14]), 

    EUSART_ASYNC_OverRunErrorHandler	PTR FTN()void  size(2) Largest target is 1
		 -> NULL(), 

    EUSART_ASYNC_ReadByteBlocking@_data	PTR unsigned char  size(1) Largest target is 1
		 -> r1_ac_temp(BANK0[1]), r2_ac_temp(BANK0[1]), re_ac_temp(BANK0[1]), 

    EUSART_ASYNC_ReadByteNonBlocking@_data	PTR unsigned char  size(1) Largest target is 1
		 -> euart_val(COMRAM[1]), 

    eusart_async_rx_configure@_eusart	PTR const struct . size(2) Largest target is 14
		 -> master_uart(BANK1[14]), 

    eusart_async_rx_configure@_eusart$EUSART_FramingErrorHandler	PTR FTN()void  size(2) Largest target is 1
		 -> NULL(), 

    eusart_async_rx_configure@_eusart$EUSART_OverRunErrorHandler	PTR FTN()void  size(2) Largest target is 1
		 -> NULL(), 

    eusart_async_rx_configure@_eusart$EUSART_RXDefaultInterruptHandler	PTR FTN()void  size(2) Largest target is 1
		 -> EUSART_RXDefaultInterruptHandler(), 

    eusart_async_rx_configure@_eusart$EUSART_TXDefaultInterruptHandler	PTR FTN()void  size(2) Largest target is 1
		 -> NULL(), 

    EUSART_ASYNC_RX_InterruptHandler	PTR FTN()void  size(2) Largest target is 1
		 -> EUSART_RXDefaultInterruptHandler(), NULL(), 

    eusart_async_tx_configure@_eusart	PTR const struct . size(2) Largest target is 14
		 -> master_uart(BANK1[14]), 

    eusart_async_tx_configure@_eusart$EUSART_FramingErrorHandler	PTR FTN()void  size(2) Largest target is 1
		 -> NULL(), 

    eusart_async_tx_configure@_eusart$EUSART_OverRunErrorHandler	PTR FTN()void  size(2) Largest target is 1
		 -> NULL(), 

    eusart_async_tx_configure@_eusart$EUSART_RXDefaultInterruptHandler	PTR FTN()void  size(2) Largest target is 1
		 -> EUSART_RXDefaultInterruptHandler(), 

    eusart_async_tx_configure@_eusart$EUSART_TXDefaultInterruptHandler	PTR FTN()void  size(2) Largest target is 1
		 -> NULL(), 

    EUSART_ASYNC_TX_InterruptHandler	PTR FTN()void  size(2) Largest target is 1
		 -> NULL(), 

    f$.$buffer	PTR unsigned char  size(2) Largest target is 0

    f$.$source	PTR const unsigned char  size(2) Largest target is 0

    F3222$Timer2Interrupt	PTR FTN()void  size(2) Largest target is 1
		 -> NULL(NULL[0]), NULL(), 

    F3233$Timer2Interrupt	PTR FTN()void  size(2) Largest target is 1
		 -> NULL(NULL[0]), NULL(), 

    gpio_pin_direction_init@_pin_config	PTR const struct . size(1) Largest target is 1
		 -> CCP1_PIN_PWM_MODE(COMRAM[1]), CCP2_PIN_PWM_MODE(COMRAM[1]), led_initialize@pin_obj(BANK0[1]), timer0_ModeConfigure@timer0_External_Clock_Input_Pin(BANK0[1]), 

    gpio_pin_init@_pin_config	PTR const struct . size(1) Largest target is 1
		 -> CCP1_PIN_PWM_MODE(COMRAM[1]), led_initialize@pin_obj(BANK0[1]), 

    gpio_pin_write_logic@_pin_config	PTR const struct . size(1) Largest target is 1
		 -> CCP1_PIN_PWM_MODE(COMRAM[1]), led_initialize@pin_obj(BANK0[1]), led_turn_off@pin_obj(BANK0[1]), led_turn_on@pin_obj(BANK0[1]), 

    INT0_InterruptHandler	PTR FTN()void  size(2) Largest target is 1
		 -> NULL(), 

    INT1_InterruptHandler	PTR FTN()void  size(2) Largest target is 1
		 -> NULL(), 

    INT2_InterruptHandler	PTR FTN()void  size(2) Largest target is 1
		 -> NULL(), 

    Interrupt_ADC_Init@adc_obj	PTR const struct . size(2) Largest target is 6
		 -> lm35_reseption(BANK1[6]), lm35_room1(BANK1[6]), lm35_room2(BANK1[6]), 

    Interrupt_ADC_Init@adc_obj$ADC_InterruptHandler	PTR FTN()void  size(2) Largest target is 1
		 -> NULL(), 

    Interrupt_INTx_Disable@int_obj$EXT_InterruptHandler	PTR FTN()void  size(2) Largest target is 0

    Interrupt_INTx_Edge_Init@int_obj$EXT_InterruptHandler	PTR FTN()void  size(2) Largest target is 0

    Interrupt_INTx_Enable@int_obj$EXT_InterruptHandler	PTR FTN()void  size(2) Largest target is 0

    Interrupt_INTx_Flag_Clear@int_obj$EXT_InterruptHandler	PTR FTN()void  size(2) Largest target is 0

    Interrupt_INTx_Pin_Init@int_obj$EXT_InterruptHandler	PTR FTN()void  size(2) Largest target is 0

    Interrupt_INTx_SetInterruptHandler@int_obj$EXT_InterruptHandler	PTR FTN()void  size(2) Largest target is 0

    Interrupt_RBx_Pin_Init@int_obj$EXT_InterruptHandler_High	PTR FTN()void  size(2) Largest target is 0

    Interrupt_RBx_Pin_Init@int_obj$EXT_InterruptHandler_Low	PTR FTN()void  size(2) Largest target is 0

    Interrupt_RBx_SetInterruptHandler@int_obj$EXT_InterruptHandler_High	PTR FTN()void  size(2) Largest target is 0

    Interrupt_RBx_SetInterruptHandler@int_obj$EXT_InterruptHandler_Low	PTR FTN()void  size(2) Largest target is 0

    lat_regs	PTR volatile unsigned char [5] size(2) Largest target is 1
		 -> LATA(BITBIGSFRlllll[1]), LATB(BITBIGSFRllllh[1]), LATC(BITBIGSFRllllh[1]), LATD(BITBIGSFRllllh[1]), 
		 -> LATE(BITBIGSFRllllh[1]), 

    led_initialize@led	PTR const struct . size(1) Largest target is 3
		 -> reseption_AC(BANK0[3]), reseption_light(BANK0[3]), reseption_TV(BANK0[3]), room_1_AC(BANK0[3]), 
		 -> room_1_light(BANK0[3]), room_2_AC(BANK0[3]), room_2_light(BANK0[3]), 

    led_turn_off@led	PTR const struct . size(1) Largest target is 3
		 -> reseption_AC(BANK0[3]), reseption_light(BANK0[3]), reseption_TV(BANK0[3]), room_1_AC(BANK0[3]), 
		 -> room_1_light(BANK0[3]), room_2_AC(BANK0[3]), room_2_light(BANK0[3]), 

    led_turn_on@led	PTR const struct . size(1) Largest target is 3
		 -> reseption_AC(BANK0[3]), reseption_light(BANK0[3]), reseption_TV(BANK0[3]), room_1_AC(BANK0[3]), 
		 -> room_1_light(BANK0[3]), room_2_AC(BANK0[3]), room_2_light(BANK0[3]), 

    LM35_GetTempCelsius@adc_obj	PTR const struct . size(2) Largest target is 6
		 -> lm35_reseption(BANK1[6]), lm35_room1(BANK1[6]), lm35_room2(BANK1[6]), 

    LM35_GetTempCelsius@adc_obj$ADC_InterruptHandler	PTR FTN()void  size(2) Largest target is 1
		 -> NULL(), 

    LM35_GetTempCelsius@Temp_celsius_res	PTR unsigned short  size(1) Largest target is 2
		 -> r1_temp(BANK0[2]), r2_temp(BANK0[2]), re_temp(BANK0[2]), 

    LM35_Init@adc_obj	PTR const struct . size(2) Largest target is 6
		 -> lm35_reseption(BANK1[6]), lm35_room1(BANK1[6]), lm35_room2(BANK1[6]), 

    lm35_reseption$ADC_InterruptHandler	PTR FTN()void  size(2) Largest target is 1
		 -> NULL(), 

    lm35_room1$ADC_InterruptHandler	PTR FTN()void  size(2) Largest target is 1
		 -> NULL(), 

    lm35_room2$ADC_InterruptHandler	PTR FTN()void  size(2) Largest target is 1
		 -> NULL(), 

    master_uart$EUSART_FramingErrorHandler	PTR FTN()void  size(2) Largest target is 1
		 -> NULL(), 

    master_uart$EUSART_OverRunErrorHandler	PTR FTN()void  size(2) Largest target is 1
		 -> NULL(), 

    master_uart$EUSART_RXDefaultInterruptHandler	PTR FTN()void  size(2) Largest target is 1
		 -> EUSART_RXDefaultInterruptHandler(), 

    master_uart$EUSART_TXDefaultInterruptHandler	PTR FTN()void  size(2) Largest target is 1
		 -> NULL(), 

    port_regs	PTR volatile unsigned char [5] size(2) Largest target is 1
		 -> PORTA(BITBIGSFRlllll[1]), PORTB(BITBIGSFRlllll[1]), PORTC(BITBIGSFRlllll[1]), PORTD(BITBIGSFRlllll[1]), 
		 -> PORTE(BITBIGSFRlllll[1]), 

    RB4_InterruptHandler_High	PTR FTN()void  size(2) Largest target is 1
		 -> NULL(), 

    RB4_InterruptHandler_Low	PTR FTN()void  size(2) Largest target is 1
		 -> NULL(), 

    RB5_InterruptHandler_High	PTR FTN()void  size(2) Largest target is 1
		 -> NULL(), 

    RB5_InterruptHandler_Low	PTR FTN()void  size(2) Largest target is 1
		 -> NULL(), 

    RB6_InterruptHandler_High	PTR FTN()void  size(2) Largest target is 1
		 -> NULL(), 

    RB6_InterruptHandler_Low	PTR FTN()void  size(2) Largest target is 1
		 -> NULL(), 

    RB7_InterruptHandler_High	PTR FTN()void  size(2) Largest target is 1
		 -> NULL(), 

    RB7_InterruptHandler_Low	PTR FTN()void  size(2) Largest target is 1
		 -> NULL(), 

    S1370$Timer2Interrupt	PTR FTN()void  size(2) Largest target is 1
		 -> NULL(NULL[0]), NULL(), 

    S2816$EXT_InterruptHandler	PTR FTN()void  size(2) Largest target is 0

    S2924$EXT_InterruptHandler_High	PTR FTN()void  size(2) Largest target is 0

    S2924$EXT_InterruptHandler_Low	PTR FTN()void  size(2) Largest target is 0

    S32$ccp_InterruptHandler	PTR FTN()void  size(2) Largest target is 0

    S3467$Timer1_Interrupt	PTR FTN()void  size(2) Largest target is 0

    S3856$Timer3_Interrupt	PTR FTN()void  size(2) Largest target is 0

    S4762$buffer	PTR unsigned char  size(2) Largest target is 0

    S4762$source	PTR const unsigned char  size(2) Largest target is 0

    S572$ADC_InterruptHandler	PTR FTN()void  size(2) Largest target is 1
		 -> NULL(), 

    S635$EUSART_FramingErrorHandler	PTR FTN()void  size(2) Largest target is 1
		 -> NULL(), 

    S635$EUSART_OverRunErrorHandler	PTR FTN()void  size(2) Largest target is 1
		 -> NULL(), 

    S635$EUSART_RXDefaultInterruptHandler	PTR FTN()void  size(2) Largest target is 1
		 -> EUSART_RXDefaultInterruptHandler(), 

    S635$EUSART_TXDefaultInterruptHandler	PTR FTN()void  size(2) Largest target is 1
		 -> NULL(), 

    S671$Timer0Interrupt	PTR FTN()void  size(2) Largest target is 1
		 -> TIMER0_InterruptHandler(), 

    sp__memset	PTR void  size(2) Largest target is 0

    Timer0_Init@timer0_obj	PTR const struct . size(2) Largest target is 9
		 -> timer0_obj(BANK1[9]), 

    timer0_InterruptConfigure@timer0_obj	PTR const struct . size(2) Largest target is 9
		 -> timer0_obj(BANK1[9]), 

    timer0_InterruptConfigure@timer0_obj$Timer0Interrupt	PTR FTN()void  size(2) Largest target is 1
		 -> TIMER0_InterruptHandler(), 

    Timer0_InterruptHandler	PTR FTN()void  size(2) Largest target is 1
		 -> TIMER0_InterruptHandler(), NULL(), 

    timer0_ModeConfigure@timer0_obj	PTR const struct . size(2) Largest target is 9
		 -> timer0_obj(BANK1[9]), 

    timer0_ModeConfigure@timer0_obj$Timer0Interrupt	PTR FTN()void  size(2) Largest target is 1
		 -> TIMER0_InterruptHandler(), 

    timer0_obj$Timer0Interrupt	PTR FTN()void  size(2) Largest target is 1
		 -> TIMER0_InterruptHandler(), 

    timer0_PreLoadConfigure@timer0_obj	PTR const struct . size(2) Largest target is 9
		 -> timer0_obj(BANK1[9]), 

    timer0_PreLoadConfigure@timer0_obj$Timer0Interrupt	PTR FTN()void  size(2) Largest target is 1
		 -> TIMER0_InterruptHandler(), 

    timer0_PreScalerConfigure@timer0_obj	PTR const struct . size(2) Largest target is 9
		 -> timer0_obj(BANK1[9]), 

    timer0_PreScalerConfigure@timer0_obj$Timer0Interrupt	PTR FTN()void  size(2) Largest target is 1
		 -> TIMER0_InterruptHandler(), 

    timer0_PreScalerValueConfigure@timer0_obj	PTR const struct . size(2) Largest target is 9
		 -> timer0_obj(BANK1[9]), 

    timer0_PreScalerValueConfigure@timer0_obj$Timer0Interrupt	PTR FTN()void  size(2) Largest target is 1
		 -> TIMER0_InterruptHandler(), 

    Timer0_Read_Value@timer0_obj$Timer0Interrupt	PTR FTN()void  size(2) Largest target is 1
		 -> TIMER0_InterruptHandler(), 

    timer0_ResolutionConfigure@timer0_obj	PTR const struct . size(2) Largest target is 9
		 -> timer0_obj(BANK1[9]), 

    timer0_ResolutionConfigure@timer0_obj$Timer0Interrupt	PTR FTN()void  size(2) Largest target is 1
		 -> TIMER0_InterruptHandler(), 

    Timer0_Write_Value@timer0_obj$Timer0Interrupt	PTR FTN()void  size(2) Largest target is 1
		 -> TIMER0_InterruptHandler(), 

    timer1_interrupt_configure@timer1$Timer1_Interrupt	PTR FTN()void  size(2) Largest target is 0

    TIMER1_InterruptHandler	PTR FTN()void  size(2) Largest target is 1
		 -> NULL(NULL[0]), NULL(), 

    timer1_mode_configure@timer1$Timer1_Interrupt	PTR FTN()void  size(2) Largest target is 0

    timer1_operation_mode_configure@timer1$Timer1_Interrupt	PTR FTN()void  size(2) Largest target is 0

    timer1_oscillator_configure@timer1$Timer1_Interrupt	PTR FTN()void  size(2) Largest target is 0

    timer1_preload_value_configure@timer1$Timer1_Interrupt	PTR FTN()void  size(2) Largest target is 0

    timer1_prescaler_configure@timer1$Timer1_Interrupt	PTR FTN()void  size(2) Largest target is 0

    timer2$Timer2Interrupt	PTR FTN()void  size(2) Largest target is 1
		 -> NULL(NULL[0]), NULL(), 

    Timer2_Init@timer2$Timer2Interrupt	PTR FTN()void  size(2) Largest target is 1
		 -> NULL(NULL[0]), NULL(), 

    TIMER2_InterruptHandler	PTR FTN()void  size(2) Largest target is 1
		 -> NULL(NULL[0]), NULL(), 

    Timer3_Init@timer3$Timer3_Interrupt	PTR FTN()void  size(2) Largest target is 0

    Timer3_InterruptHandler	PTR FTN()void  size(2) Largest target is 1
		 -> NULL(), 

    TIMER3_MODE_CONFIGURE@timer3$Timer3_Interrupt	PTR FTN()void  size(2) Largest target is 0

    TIMER3_RW_MODE_CONFIGURE@timer3$Timer3_Interrupt	PTR FTN()void  size(2) Largest target is 0

    tris_regs	PTR volatile unsigned char [5] size(2) Largest target is 1
		 -> TRISA(BITBIGSFRlllll[1]), TRISB(ABS[1]), TRISC(SFR[1]), TRISD(ABS[1]), 
		 -> TRISE(ABS[1]), 

    vfprintf$0	PTR struct _IO_FILE size(1) Largest target is 12
		 -> sprintf@f(COMRAM[12]), 

    vfprintf$1	PTR const unsigned char  size(1) Largest target is 3
		 -> STR_1(CODE[3]), STR_2(CODE[3]), STR_3(CODE[3]), 

    vfprintf$2	PTR PTR void  size(1) Largest target is 1
		 -> sprintf@ap(COMRAM[1]), 


Critical Paths under _main in COMRAM

    None.

Critical Paths under _InterruptManager in COMRAM

    _TIMER0_InterruptHandler->_LM35_GetTempCelsius
    _LM35_GetTempCelsius->i2___fltol
    i2___fltol->___flmul
    ___flmul->i2___xxtofl
    _ADC_GetConversion_Blocking->_ADC_SelectChannel
    _ADC_SelectChannel->i2_adc_input_cahnnel_port_configure
    _EUSART_RXDefaultInterruptHandler->i2_led_turn_off
    _EUSART_RXDefaultInterruptHandler->i2_led_turn_on
    i2_led_turn_on->i2_gpio_pin_write_logic
    i2_led_turn_off->i2_gpio_pin_write_logic

Critical Paths under _main in BANK0

    _mcal_layer_initialize->_EUSART_ASYNC_Init
    _Timer0_Init->_timer0_ModeConfigure
    _timer0_PreScalerConfigure->_timer0_PreScalerValueConfigure
    _timer0_ModeConfigure->_gpio_pin_direction_init
    _EUSART_ASYNC_Init->_eusart_async_baudrate_calculation
    _eusart_async_baudrate_calculation->___fladd
    ___fldiv->___xxtofl
    ___fladd->___fldiv
    _ecu_layer_initialize->_led_initialize
    _led_initialize->_gpio_pin_init
    _gpio_pin_init->_gpio_pin_write_logic
    _LM35_Init->_ADC_Init
    _ADC_Init->_Interrupt_ADC_Init
    _AirConditioner_TempHandler->_led_turn_off
    _AirConditioner_TempHandler->_led_turn_on
    _led_turn_on->_gpio_pin_write_logic
    _led_turn_off->_gpio_pin_write_logic

Critical Paths under _InterruptManager in BANK0

    None.

Critical Paths under _main in BANK1

    _EUSART_ASYNC_Init->_eusart_async_baudrate_calculation

Critical Paths under _InterruptManager in BANK1

    None.

Critical Paths under _main in BANK2

    None.

Critical Paths under _InterruptManager in BANK2

    None.

Critical Paths under _main in BANK3

    None.

Critical Paths under _InterruptManager in BANK3

    None.

Critical Paths under _main in BANK4

    None.

Critical Paths under _InterruptManager in BANK4

    None.

Critical Paths under _main in BANK5

    None.

Critical Paths under _InterruptManager in BANK5

    None.

Critical Paths under _main in BANK6

    None.

Critical Paths under _InterruptManager in BANK6

    None.

Critical Paths under _main in BANK7

    None.

Critical Paths under _InterruptManager in BANK7

    None.

Critical Paths under _main in BANK8

    None.

Critical Paths under _InterruptManager in BANK8

    None.

Critical Paths under _main in BANK9

    None.

Critical Paths under _InterruptManager in BANK9

    None.

Critical Paths under _main in BANK10

    None.

Critical Paths under _InterruptManager in BANK10

    None.

Critical Paths under _main in BANK11

    None.

Critical Paths under _InterruptManager in BANK11

    None.

Critical Paths under _main in BANK12

    None.

Critical Paths under _InterruptManager in BANK12

    None.

Critical Paths under _main in BANK13

    None.

Critical Paths under _InterruptManager in BANK13

    None.

Critical Paths under _main in BANK14

    None.

Critical Paths under _InterruptManager in BANK14

    None.

Critical Paths under _main in BANK15

    None.

Critical Paths under _InterruptManager in BANK15

    None.

Call Graph Tables:

 ---------------------------------------------------------------------------------
 (Depth) Function   	        Calls       Base Space   Used Autos Params    Refs
 ---------------------------------------------------------------------------------
 (0) _main                                                 0     0      0   32434
         _AirConditioner_TempHandler
                   _application_init
 ---------------------------------------------------------------------------------
 (1) _application_init                                     0     0      0   22847
               _ecu_layer_initialize
              _mcal_layer_initialize
 ---------------------------------------------------------------------------------
 (2) _mcal_layer_initialize                                0     0      0   15493
                  _EUSART_ASYNC_Init
                        _Timer0_Init
 ---------------------------------------------------------------------------------
 (3) _Timer0_Init                                          3     1      2    2509
                                             12 BANK0      2     0      2
          _timer0_InterruptConfigure
               _timer0_ModeConfigure
            _timer0_PreLoadConfigure
          _timer0_PreScalerConfigure
         _timer0_ResolutionConfigure
 ---------------------------------------------------------------------------------
 (4) _timer0_ResolutionConfigure                           4     2      2     195
                                              0 BANK0      4     2      2
 ---------------------------------------------------------------------------------
 (4) _timer0_PreScalerConfigure                            4     2      2     387
                                              4 BANK0      4     2      2
     _timer0_PreScalerValueConfigure
 ---------------------------------------------------------------------------------
 (5) _timer0_PreScalerValueConfigure                       5     3      2     158
                                              0 BANK0      4     2      2
 ---------------------------------------------------------------------------------
 (4) _timer0_PreLoadConfigure                              5     3      2     350
                                              0 BANK0      5     3      2
 ---------------------------------------------------------------------------------
 (4) _timer0_ModeConfigure                                 5     3      2    1081
                                              7 BANK0      5     3      2
            _gpio_pin_direction_init
 ---------------------------------------------------------------------------------
 (4) _timer0_InterruptConfigure                            5     3      2     192
                                              0 BANK0      5     3      2
 ---------------------------------------------------------------------------------
 (3) _EUSART_ASYNC_Init                                    3     1      2   12984
                                             59 BANK0      2     0      2
  _eusart_async_baudrate_calculation
          _eusart_async_rx_configure
          _eusart_async_tx_configure
 ---------------------------------------------------------------------------------
 (4) _eusart_async_tx_configure                            2     0      2     307
                                              0 BANK0      2     0      2
 ---------------------------------------------------------------------------------
 (4) _eusart_async_rx_configure                            2     0      2     369
                                              0 BANK0      2     0      2
 ---------------------------------------------------------------------------------
 (4) _eusart_async_baudrate_calculation                   12    10      2   12078
                                             55 BANK0      4     2      2
                                              0 BANK1      8     8      0
                            ___fladd
                            ___fldiv
                            ___fltol
                           ___xxtofl
 ---------------------------------------------------------------------------------
 (5) ___xxtofl                                            14    10      4    1489
                                              0 BANK0     14    10      4
 ---------------------------------------------------------------------------------
 (5) ___fltol                                             10     6      4    1542
                                              0 BANK0     10     6      4
 ---------------------------------------------------------------------------------
 (5) ___fldiv                                             25    17      8    3763
                                             14 BANK0     25    17      8
                           ___xxtofl (ARG)
 ---------------------------------------------------------------------------------
 (5) ___fladd                                             16     8      8    4442
                                             39 BANK0     16     8      8
                            ___fldiv (ARG)
                           ___xxtofl (ARG)
 ---------------------------------------------------------------------------------
 (2) _ecu_layer_initialize                                 0     0      0    7354
                          _LM35_Init
                     _led_initialize
 ---------------------------------------------------------------------------------
 (3) _led_initialize                                       4     3      1    6067
                                             10 BANK0      3     2      1
                      _gpio_pin_init
 ---------------------------------------------------------------------------------
 (4) _gpio_pin_init                                        2     1      1    5209
                                              8 BANK0      2     1      1
            _gpio_pin_direction_init
               _gpio_pin_write_logic
 ---------------------------------------------------------------------------------
 (5) _gpio_pin_direction_init                              7     6      1     766
                                              0 BANK0      7     6      1
 ---------------------------------------------------------------------------------
 (3) _LM35_Init                                            3     1      2    1287
                                              9 BANK0      2     0      2
                           _ADC_Init
 ---------------------------------------------------------------------------------
 (4) _ADC_Init                                             4     2      2     939
                                              5 BANK0      4     2      2
                 _Interrupt_ADC_Init
        _adc_configure_result_format
     _adc_configure_voltage_refrence
   _adc_input_cahnnel_port_configure
 ---------------------------------------------------------------------------------
 (5) _adc_input_cahnnel_port_configure                     3     3      0      31
                                              0 BANK0      3     3      0
 ---------------------------------------------------------------------------------
 (5) _adc_configure_voltage_refrence                       2     0      2     152
                                              0 BANK0      2     0      2
 ---------------------------------------------------------------------------------
 (5) _adc_configure_result_format                          2     0      2     152
                                              0 BANK0      2     0      2
 ---------------------------------------------------------------------------------
 (5) _Interrupt_ADC_Init                                   5     3      2     223
                                              0 BANK0      5     3      2
 ---------------------------------------------------------------------------------
 (1) _AirConditioner_TempHandler                           2     2      0    9587
                                             11 BANK0      2     2      0
                       _led_turn_off
                        _led_turn_on
 ---------------------------------------------------------------------------------
 (2) _led_turn_on                                          4     3      1    4601
                                              8 BANK0      3     2      1
               _gpio_pin_write_logic
 ---------------------------------------------------------------------------------
 (2) _led_turn_off                                         4     3      1    4986
                                              8 BANK0      3     2      1
               _gpio_pin_write_logic
 ---------------------------------------------------------------------------------
 (5) _gpio_pin_write_logic                                 8     6      2    3466
                                              0 BANK0      8     6      2
 ---------------------------------------------------------------------------------
 Estimated maximum stack depth 5
 ---------------------------------------------------------------------------------
 (Depth) Function   	        Calls       Base Space   Used Autos Params    Refs
 ---------------------------------------------------------------------------------
 (6) _InterruptManager                                     6     6      0    8150
                                             54 COMRAM     6     6      0
                            _ADC_ISR
                _EUSART_ASYNC_RX_ISR
                _EUSART_ASYNC_TX_ISR
                         _TIMER0_ISR
 ---------------------------------------------------------------------------------
 (7) _TIMER0_ISR                                           0     0      0    6461
                                NULL *
            _TIMER0_InterruptHandler *
 ---------------------------------------------------------------------------------
 (8) _TIMER0_InterruptHandler                              0     0      0    6461
     _EUSART_ASYNC_WrireByteBlocking
                _LM35_GetTempCelsius
 ---------------------------------------------------------------------------------
 (9) _LM35_GetTempCelsius                                  6     3      3    6431
                                             49 COMRAM     5     2      3
         _ADC_GetConversion_Blocking
                            ___flmul
                            ___lwdiv
                          i2___fltol
                         i2___xxtofl
 ---------------------------------------------------------------------------------
 (10) i2___xxtofl                                         14    10      4     257
                                              0 COMRAM    14    10      4
 ---------------------------------------------------------------------------------
 (10) i2___fltol                                          10     6      4     255
                                             39 COMRAM    10     6      4
                            ___flmul (ARG)
                         i2___xxtofl (ARG)
 ---------------------------------------------------------------------------------
 (10) ___lwdiv                                             7     3      4     314
                                              0 COMRAM     7     3      4
 ---------------------------------------------------------------------------------
 (10) ___flmul                                            25    17      8    2560
                                             14 COMRAM    25    17      8
                         i2___xxtofl (ARG)
 ---------------------------------------------------------------------------------
 (10) _ADC_GetConversion_Blocking                          6     2      4    2189
                                              8 COMRAM     6     2      4
            _ADC_GetConversionResult
                  _ADC_SelectChannel
                _ADC_StartConversion
 ---------------------------------------------------------------------------------
 (11) _ADC_StartConversion                                 3     1      2     341
                                              0 COMRAM     3     1      2
 ---------------------------------------------------------------------------------
 (11) _ADC_SelectChannel                                   5     2      3     695
                                              3 COMRAM     5     2      3
 i2_adc_input_cahnnel_port_configure
 ---------------------------------------------------------------------------------
 (12) i2_adc_input_cahnnel_port_configure                  3     3      0      22
                                              0 COMRAM     3     3      0
 ---------------------------------------------------------------------------------
 (11) _ADC_GetConversionResult                             7     4      3     617
                                              0 COMRAM     7     4      3
 ---------------------------------------------------------------------------------
 (9) _EUSART_ASYNC_WrireByteBlocking                       2     2      0      30
                                              0 COMRAM     1     1      0
 ---------------------------------------------------------------------------------
 (7) _EUSART_ASYNC_TX_ISR                                  0     0      0       0
 ---------------------------------------------------------------------------------
 (7) _EUSART_ASYNC_RX_ISR                                  0     0      0    1689
                                NULL *
   _EUSART_RXDefaultInterruptHandler *
 ---------------------------------------------------------------------------------
 (8) _EUSART_RXDefaultInterruptHandler                     0     0      0    1689
      _EUSART_ASYNC_ReadByteBlocking
   _EUSART_ASYNC_ReadByteNonBlocking
                     i2_led_turn_off
                      i2_led_turn_on
 ---------------------------------------------------------------------------------
 (9) i2_led_turn_on                                        4     3      1     571
                                              8 COMRAM     3     2      1
             i2_gpio_pin_write_logic
 ---------------------------------------------------------------------------------
 (9) i2_led_turn_off                                       4     3      1     753
                                              8 COMRAM     3     2      1
             i2_gpio_pin_write_logic
 ---------------------------------------------------------------------------------
 (10) i2_gpio_pin_write_logic                              8     6      2     261
                                              0 COMRAM     8     6      2
 ---------------------------------------------------------------------------------
 (9) _EUSART_ASYNC_ReadByteNonBlocking                     2     1      1     107
                                              0 COMRAM     1     0      1
 ---------------------------------------------------------------------------------
 (9) _EUSART_ASYNC_ReadByteBlocking                        2     1      1     258
                                              0 COMRAM     1     0      1
 ---------------------------------------------------------------------------------
 (8) NULL(Fake)                                            0     0      0       0
 ---------------------------------------------------------------------------------
 (7) _ADC_ISR                                              0     0      0       0
 ---------------------------------------------------------------------------------
 Estimated maximum stack depth 12
 ---------------------------------------------------------------------------------

 Call Graph Graphs:

 _main (ROOT)
   _AirConditioner_TempHandler
     _led_turn_off
       _gpio_pin_write_logic
     _led_turn_on
       _gpio_pin_write_logic
   _application_init
     _ecu_layer_initialize
       _LM35_Init
         _ADC_Init
           _Interrupt_ADC_Init
           _adc_configure_result_format
           _adc_configure_voltage_refrence
           _adc_input_cahnnel_port_configure
       _led_initialize
         _gpio_pin_init
           _gpio_pin_direction_init
           _gpio_pin_write_logic
     _mcal_layer_initialize
       _EUSART_ASYNC_Init
         _eusart_async_baudrate_calculation
           ___fladd
             ___fldiv (ARG)
               ___xxtofl (ARG)
             ___xxtofl (ARG)
           ___fldiv
           ___fltol
           ___xxtofl
         _eusart_async_rx_configure
         _eusart_async_tx_configure
       _Timer0_Init
         _timer0_InterruptConfigure
         _timer0_ModeConfigure
           _gpio_pin_direction_init
         _timer0_PreLoadConfigure
         _timer0_PreScalerConfigure
           _timer0_PreScalerValueConfigure
         _timer0_ResolutionConfigure

 _InterruptManager (ROOT)
   _ADC_ISR
   _EUSART_ASYNC_RX_ISR
     NULL(Fake) *
     _EUSART_RXDefaultInterruptHandler *
       _EUSART_ASYNC_ReadByteBlocking
       _EUSART_ASYNC_ReadByteNonBlocking
       i2_led_turn_off
         i2_gpio_pin_write_logic
       i2_led_turn_on
         i2_gpio_pin_write_logic
   _EUSART_ASYNC_TX_ISR
   _TIMER0_ISR
     NULL(Fake) *
     _TIMER0_InterruptHandler *
       _EUSART_ASYNC_WrireByteBlocking
       _LM35_GetTempCelsius
         _ADC_GetConversion_Blocking
           _ADC_GetConversionResult
           _ADC_SelectChannel
             i2_adc_input_cahnnel_port_configure
           _ADC_StartConversion
         ___flmul
           i2___xxtofl (ARG)
         ___lwdiv
         i2___fltol
           ___flmul (ARG)
           i2___xxtofl (ARG)
         i2___xxtofl

 Address spaces:
Name               Size   Autos  Total    Cost      Usage
BIGRAM             F7F      0       0      49        0.0%
EEDATA             400      0       0       0        0.0%
BITBANK14          100      0       0      33        0.0%
BANK14             100      0       0      34        0.0%
BITBANK13          100      0       0      31        0.0%
BANK13             100      0       0      32        0.0%
BITBANK12          100      0       0      29        0.0%
BANK12             100      0       0      30        0.0%
BITBANK11          100      0       0      27        0.0%
BANK11             100      0       0      28        0.0%
BITBANK10          100      0       0      25        0.0%
BANK10             100      0       0      26        0.0%
BITBANK9           100      0       0      23        0.0%
BANK9              100      0       0      24        0.0%
BITBANK8           100      0       0      21        0.0%
BANK8              100      0       0      22        0.0%
BITBANK7           100      0       0      19        0.0%
BANK7              100      0       0      20        0.0%
BITBANK6           100      0       0      17        0.0%
BANK6              100      0       0      18        0.0%
BITBANK5           100      0       0      15        0.0%
BANK5              100      0       0      16        0.0%
BITBANK4           100      0       0      13        0.0%
BANK4              100      0       0      14        0.0%
BITBANK3           100      0       0      10        0.0%
BANK3              100      0       0      11        0.0%
BITBANK2           100      0       0       8        0.0%
BANK2              100      0       0       9        0.0%
BITBANK1           100      0       0       6        0.0%
BANK1              100      8      3B       7       23.0%
BITBANK15           80      0       0      35        0.0%
BANK15              80      0       0      36        0.0%
BITBANK0            80      0       0       4        0.0%
BANK0               80     3D      7F       5       99.2%
BITCOMRAM           7E      0       0       0        0.0%
COMRAM              7E     3C      76       1       93.7%
BITBIGSFRhhlhlh     18      0       0      38        0.0%
BITBIGSFRhhh         D      0       0      37        0.0%
BITBIGSFRlllhh       6      0       0      46        0.0%
BITBIGSFRhhlhll      5      0       0      39        0.0%
BITBIGSFRllhllh      4      0       0      43        0.0%
BITBIGSFRllllh       4      0       0      47        0.0%
BITBIGSFRllhllh      4      0       0      44        0.0%
BITBIGSFRlllll       4      0       0      48        0.0%
BITBIGSFRllhllh      1      0       0      42        0.0%
BITBIGSFRllhlh       1      0       0      41        0.0%
BITBIGSFRllhh        1      0       0      40        0.0%
BITBIGSFRllhlll      1      0       0      45        0.0%
BIGSFR               0      0       0     200        0.0%
BITSFR               0      0       0     200        0.0%
SFR                  0      0       0     200        0.0%
STACK                0      0       0       2        0.0%
NULL                 0      0       0       0        0.0%
ABS                  0      0     130      12        0.0%
DATA                 0      0     130       3        0.0%
CODE                 0      0       0       0        0.0%


Microchip Technology PIC18 Macro Assembler V2.46 build 20240104201356 
Symbol Table                                                                                   Sat Jun 08 11:32:29 2024

                                 ??_InterruptManager 0037                     eusart_async_rx_configure@_eusart 0080  
         __end_ofi2_adc_input_cahnnel_port_configure 3124             __end_of_adc_input_cahnnel_port_configure 304C  
               ??i2_adc_input_cahnnel_port_configure 0001                  ?i2_adc_input_cahnnel_port_configure 0001  
                  ?_adc_input_cahnnel_port_configure 0001                   ??_adc_input_cahnnel_port_configure 0080  
                 i2_adc_input_cahnnel_port_configure 304C                     _adc_input_cahnnel_port_configure 2F70  
                          timer0_ModeConfigure@F3124 0070                                         ___fldiv@aexp 00A6  
                                       ___fldiv@bexp 00A5                                         ___fldiv@sign 009E  
                                        _SSPSTATbits 0FC7                   __end_of_timer0_ResolutionConfigure 3CEC  
                         _timer0_ResolutionConfigure 3C9A                                                  l231 39D2  
                                                l241 3812                                                  l305 3AB8  
                                                l234 379A                                                  l227 3976  
                                                l340 33B0                                                  l245 3872  
                                                l261 3F84                                                  l238 37FA  
                                                l342 344A                                                  l423 3E06  
                                                l441 3C78                                                  l425 3E08  
                                                l433 3D2A                                                  l418 304A  
                                                l436 3D32                                                  l445 3C98  
                                                l429 3D08                                                  l438 3D36  
                                                l622 3D96                                                  l624 3DC2  
                                                l803 3E92                                                  l661 10F0  
                                                l662 11AE                                                  l663 12A6  
                                                l664 1364                                                  l665 1420  
                                                l681 31F6                                                  l682 31F6  
                                                l667 1534                                                  l659 1018  
                                                l757 2D88                                                  l696 2C90  
                                                l697 2C90                                                  l779 2E7E  
                                                _PR2 0FCB                         ADC_SelectChannel@error_state 0008  
                                    __end_of_ADC_ISR 4042                                           i2___xxtofl 2682  
                                led_initialize@F3058 00F5                                                  tosl 0FFD  
                                                wreg 0FE8                            _RB5_InterruptHandler_High 0055  
                                       ?_led_turn_on 0088                                         ___flmul@aexp 0020  
                                       ___flmul@bexp 0021               __end_of_timer0_PreScalerValueConfigure 3394  
                     _timer0_PreScalerValueConfigure 32C8                                         ___flmul@sign 001B  
                                       ___flmul@temp 0026                                         ___flmul@prod 0022  
                                       ___fltol@exp1 0089                                                 l1312 3B8A  
                                               l1305 365C                                                 l1330 34FE  
                                               l2019 2A8E                                                 l1260 3C00  
                                               l1333 3500                                                 l1309 3B88  
                                               l1326 3392                                                 l1262 3C40  
                                               l2304 21BC                                                 l1336 3D5C  
                                               l2250 1726                                                 l2306 201C  
                                               l1338 3D7C                                                 l2251 1714  
                                               l2315 2062                                                 l2252 16DA  
                                               l1292 3CEA                                                 l2317 20DA  
                                               l2309 1FE0                                                 l2318 20C8  
                                               l1289 3CE8                                                 l1298 365A  
                                               l1562 3FC6                                                 l2267 1840  
                                               l2259 19F6                                                 l1643 4030  
                                               l2276 1910                                                 l2380 2680  
                                               l2277 18FE                                                 l1637 401C  
                                               l2391 2618                                                 l2384 25BC  
                                               l2377 2524                                                 l1667 2986  
                                               l9000 200A                                                 l9010 2052  
                                               l9002 201A                                                 l9020 2092  
                                               l9012 2060                                                 l9004 202C  
                                               l9030 2104                                                 l9022 20C0  
                                               l9006 2042                                                 l9014 2072  
                                               l9110 254A                                                 l9102 24CE  
                                               l9040 217C                                                 l9032 212E  
                                               l9016 2080                                                 l9008 2048  
                                               l9120 25A4                                                 l9104 24E0  
                                               l9200 101E                                                 l9050 21B2  
                                               l9042 2198                                                 l9026 20EA  
                                               l9034 2132                                                 l9018 2084  
                                               l9130 2608                                                 l9122 25A6  
                                               l9114 255E                                                 l9106 24EE  
                                               l9202 1076                                                 l9044 219C  
                                               l9036 214C                                                 l9028 20F6  
                                               l9060 29A0                                                 l9140 2660  
                                               l9132 2626                                                 l9124 25B2  
                                               l9116 2566                                                 l9108 2534  
                                               l9220 12AC                                                 l9212 11B4  
                                               l9204 10D2                                                 l9300 2C4C  
                                               l9150 3E62                                                 l9046 21AA  
                                               l9038 2162                                                 l9070 29F0  
                                               l9142 266E                                                 l9134 2628  
                                               l9126 25EE                                                 l9118 2572  
                                               l9230 13C0                                                 l9222 1304  
                                               l9214 120C                                                 l9206 10F6  
                                               l9310 2C8A                                                 l9302 2C4E  
                                               l9160 3394                                                 l9152 3E6A  
                                               l9048 21B0                                                 l9080 2A1A  
                                               l9072 29F4                                                 l9064 29B4  
                                               l9144 2670                                                 l9136 262C  
                                               l9128 25FA                                                 l9216 1268  
                                               l9208 114E                                                 l9304 2C50  
                                               l9400 344C                                                 l9320 3CC2  
                                               l9312 3C9A                                                 l8610 3C56  
                                               l9170 3428                                                 l9162 33A8  
                                               l9154 3E90                                                 l9090 2A42  
                                               l9082 2A24                                                 l9074 2A02  
                                               l9066 29DE                                                 l9058 2988  
                                               l9138 2650                                                 l9218 1282  
                                               l9306 2C6A                                                 l9330 35B8  
                                               l9410 34B4                                                 l9402 344C  
                                               l9322 3CDE                                                 l9314 3C9A  
                                               l8532 2D8A                                                 l8620 3C96  
                                               l8612 3C70                                                 l9172 3434  
                                               l9164 33B2                                                 l9148 3E50  
                                               l9420 3972                                                 l9092 2A4E  
                                               l9084 2A2E                                                 l9068 29E0  
                                               l9236 1424                                                 l9228 1368  
                                               l9244 14DC                                                 l9308 2C70  
                                               l9260 3162                                                 l9252 3124  
                                               l9340 35E4                                                 l9332 35B8  
                                               l9404 346A                                                 l8700 3310  
                                               l9316 3CB8                                                 l8534 2DA0  
                                               l8542 2E52                                                 l8614 3C80  
                                               l8606 3C42                                                 l8630 3E00  
                                               l9174 3440                                                 l9166 340A  
                                               l9158 3394                                                 l9430 3F60  
                                               l9422 397A                                                 l9094 2A5E  
                                               l9238 147C                                                 l9270 31B2  
                                               l9262 317C                                                 l9254 3140  
                                               l9350 3624                                                 l9342 3600  
                                               l9334 35BC                                                 l9414 34FA  
                                               l9406 3490                                                 l8702 331C  
                                               l9326 3CE4                                                 l9318 3CBA  
                                               l8536 2DA8                                                 l8544 2E7C  
                                               l8616 3C90                                                 l8608 3C42  
                                               l8624 3DC4                                                 l8632 3CEC  
                                               l9176 3442                                                 l9168 341C  
                                               l9432 3F60                                                 l8552 2C92  
                                               l9424 39AC                                                 l8800 16A6  
                                               l8720 1544                                                 l9096 2A6E  
                                               l9280 31F0                                                 l9272 31B4  
                                               l9264 3182                                                 l9256 3146  
                                               l9352 3640                                                 l9344 3602  
                                               l9360 3656                                                 l9336 35DA  
                                               l9408 3498                                                 l8704 3324  
                                               l9600 3FB8                                                 l8538 2E00  
                                               l8618 3C92                                                 l8626 3DE0  
                                               l8634 3D10                                                 l8570 2F78  
                                               l9178 3448                                                 l9434 3F74  
                                               l8554 2CA8                                                 l8562 2D5A  
                                               l9426 39CA                                                 l9418 3960  
                                               l8810 16F8                                                 l8802 16C2  
                                               l8730 1584                                                 l8722 1552  
                                               l9098 2A7E                                                 l9290 2BD4  
                                               l9282 2B96                                                 l9266 319C  
                                               l9274 31B6                                                 l9258 3160  
                                               l9346 361E                                                 l9338 35DC  
                                               l8706 3328                                                 l9370 3B4C  
                                               l9700 287E                                                 l8628 3DE6  
                                               l8580 2F96                                                 l8572 2F7E  
                                               l9436 3F78                                                 l8556 2CB0  
                                               l8564 2D86                                                 l8900 1996  
                                               l8820 1744                                                 l8812 1706  
                                               l8804 16D2                                                 l8740 15B6  
                                               l8732 1586                                                 l8724 1554  
                                               l9292 2BEE                                                 l9284 2BB2  
                                               l9276 31D0                                                 l9268 31B0  
                                               l9460 3D92                                                 l9356 3646  
                                               l9348 3620                                                 l8708 3390  
                                               l9380 3B84                                                 l9372 3B58  
                                               l9364 3B2C                                                 l9710 28BA  
                                               l8590 2FB4                                                 l8582 2F9C  
                                               l8574 2F84                                                 l8558 2D08  
                                               l8910 19D0                                                 l8902 19B6  
                                               l8830 1784                                                 l8814 1708  
                                               l8806 16E8                                                 l8750 15DE  
                                               l8742 15B8                                                 l8726 1564  
                                               l8734 158E                                                 l8718 1536  
                                               l9198 1014                                                 l9294 2BF4  
                                               l9286 2BB8                                                 l9278 31D6  
                                               l9462 3D9C                                                 l9390 3D62  
                                               l9358 3646                                                 l9374 3B62  
                                               l9366 3B2C                                                 l9470 3BE8  
                                               l9720 2902                                                 l9712 28D6  
                                               l9704 2892                                                 l8592 2FBA  
                                               l8584 2FA2                                                 l8576 2F8A  
                                               l8568 2F74                                                 l8912 19D6  
                                               l8904 19BA                                                 l8840 17AE  
                                               l8832 1790                                                 l8824 1758  
                                               l8816 1712                                                 l8808 16F4  
                                               l8760 1618                                                 l8752 15EE  
                                               l8744 15BE                                                 l8736 159E  
                                               l8728 1574                                                 l8920 1E22  
                                               l9296 2C0E                                                 l9288 2BD2  
                                               l9464 3DC0                                                 l9456 3D7E  
                                               l9392 3D68                                                 l9384 3D38  
                                               l9376 3B7E                                                 l9368 3B4A  
                                               l9480 3C1A                                                 l9472 3BE8  
                                               l9570 379E                                                 l9730 2952  
                                               l9714 28E2                                                 l8594 2FC0  
                                               l8586 2FA8                                                 l8578 2F90  
                                               l8914 19E4                                                 l8906 19C8  
                                               l8850 1820                                                 l8834 1794  
                                               l8826 1768                                                 l8818 1734  
                                               l8842 17B4                                                 l8770 1644  
                                               l8762 162A                                                 l8754 15FE  
                                               l8746 15CC                                                 l8738 15A4  
                                               l8930 1E60                                                 l8922 1E30  
                                               l9298 2C4A                                                 l9466 3DC2  
                                               l9458 3D7E                                                 l9394 3D78  
                                               l9386 3D38                                                 l8690 32D4  
                                               l9482 3C26                                                 l9474 3BFC  
                                               l9580 380E                                                 l9572 37D0  
                                               l9732 295E                                                 l9724 2916  
                                               l9716 28EE                                                 l9708 28A6  
                                               l8588 2FAE                                                 l8916 19E6  
                                               l8908 19CE                                                 l8860 187A  
                                               l8844 17DA                                                 l8852 1830  
                                               l8836 17A2                                                 l8828 1776  
                                               l8780 1658                                                 l8772 1648  
                                               l8764 1638                                                 l8756 1600  
                                               l8748 15CE                                                 l8940 1E90  
                                               l8932 1E70                                                 l8924 1E3E  
                                               l9396 3D7A                                                 l9388 3D52  
                                               l8692 32E0                                                 l9484 3C32  
                                               l9476 3C02                                                 l9582 3816  
                                               l9574 37EE                                                 l9566 3784  
                                               l9726 292A                                                 l8598 2FC6  
                                               l9590 3A48                                                 l8870 18AA  
                                               l8862 1884                                                 l8854 1856  
                                               l8846 180E                                                 l8838 17A4  
                                               l8790 166C                                                 l8782 165C  
                                               l8774 164C                                                 l8766 163C  
                                               l8758 1608                                                 l8950 1EC6  
                                               l8942 1E96                                                 l8934 1E72  
                                               l8926 1E40                                                 l8694 32EC  
                                               l8686 32C8                                                 l9486 3C3E  
                                               l9478 3C0E                                                 l9584 3848  
                                               l9568 3796                                                 l9736 2972  
                                               l9728 2946                                                 l9592 3A8E  
                                               l8880 18D2                                                 l8872 18AE  
                                               l8864 1892                                                 l8856 1866  
                                               l8848 1810                                                 l8792 1670  
                                               l8784 1660                                                 l8776 1650  
                                               l8768 1640                                                 l8960 1F06  
                                               l8952 1ED6                                                 l8944 1EA4  
                                               l8928 1E50                                                 l8936 1E7A  
                                               l8696 32F8                                                 l8688 32CC  
                                               l9586 3866                                                 l9578 37FC  
                                               l9594 3A9C                                                 l8890 192C  
                                               l8882 18E0                                                 l8874 18BE  
                                               l8866 1894                                                 l8794 1674  
                                               l8786 1664                                                 l8778 1654  
                                               l8962 1F16                                                 l8970 1F36  
                                               l8954 1ED8                                                 l8946 1EA6  
                                               l8938 1E8A                                                 l8698 3304  
                                               l9690 4028                                                 l9692 2836  
                                               l9596 3AAA                                                 l8892 193A  
                                               l8884 18F6                                                 l8868 18A2  
                                               l8876 18C0                                                 l8788 1668  
                                               l8796 1678                                                 l8980 1F74  
                                               l8972 1F46                                                 l8964 1F1E  
                                               l8948 1EB6                                                 l8956 1EE0  
                                               l9694 284A                                                 l8894 1974  
                                               l8878 18CE                                                 l8798 167C  
                                               l8990 1FBC                                                 l8982 1F84  
                                               l8974 1F46                                                 l8966 1F22  
                                               l8958 1EF0                                                 l9598 3FAA  
                                               STR_1 100D                                                 l9696 2866  
                                               l8888 1920                                                 l8896 1976  
                                               l8992 1FD0                                                 l8984 1F94  
                                               STR_3 1010                                                 l9698 2872  
                                               l8898 1986                                                 l8994 1FDE  
                                               l8986 1FA4                                                 l8978 1F5A  
                                               l8996 1FEA                                                 l8988 1FAC  
                                               l8998 2008                                                 _LATA 0F89  
                                               _LATB 0F8A                                                 _LATC 0F8B  
                                               _LATD 0F8C                                                 _LATE 0F8D  
                                               u8000 20EA                                                 u8001 20E6  
                                               u8010 2104                                                 u8011 2100  
                                               u7300 2D70                                                 u8020 214C  
                                               u8100 2A5E                                                 u7301 2D6A  
                                               u8021 2148                                                 u8101 2A5A  
                                               u7310 3C56                                                 u8030 217C  
                                               u8110 2A6E                                                 u7311 3C52  
                                               u8031 2178                                                 u8111 2A6A  
                                               u7240 2DA0                                                 u7320 3C70  
                                               u8040 21AA                                                 u8200 2660  
                                               u8120 24E0                                                 u7241 2D9C  
                                               u7321 3C6C                                                 u8041 21A6  
                                               u8201 265C                                                 u8121 24DC  
                                               u7330 3DE0                                                 u7306 2D72  
                                               u8050 29A0                                                 u8210 266E  
                                               u8130 24EE                                                 u7331 3DDC  
                                               u8051 299C                                                 u8211 266A  
                                               u8131 24EA                                                 u7340 3E00  
                                               u8220 3E62                                                 u7500 162A  
                                               u8060 29D4                                                 u8140 254A  
                                               u8300 319C                                                 u7341 3DFC  
                                               u8221 3E5E                                                 u7501 1626  
                                               u8141 2546                                                 u8301 3198  
                                               u7254 2DC6                                                 u7350 3D08  
                                               u8230 33A8                                                 u7270 2CA8  
                                               u7510 1638                                                 u7430 1552  
                                               u8070 2A02                                                 u8150 25A0  
                                               u8310 31D0                                                 u7255 2DC2  
                                               u7351 3D04                                                 u8231 33A4  
                                               u7271 2CA4                                                 u7511 1634  
                                               u7431 154E                                                 u8071 29FE  
                                               u8151 259C                                                 u8311 31CC  
                                               u7264 2E1E                                                 u7360 3D2A  
                                               u7600 1776                                                 u7520 16A6  
                                               u7440 1564                                                 u8080 2A16  
                                               u8160 25EA                                                 u8320 31F0  
                                               u8400 3CDE                                                 u7265 2E1A  
                                               u7361 3D26                                                 u7601 1772  
                                               u7521 16A2                                                 u7441 1560  
                                               u8081 2A12                                                 u8065 29CA  
                                               u8161 25E6                                                 u8321 31EC  
                                               u8401 3CDA                                                 u7610 1784  
                                               u7530 16BE                                                 u7450 1574  
                                               u8090 2A3E                                                 u8170 2608  
                                               u8330 2BB2                                                 u8410 35DA  
                                               u7611 1780                                                 u7531 16B8  
                                               u7451 1570                                                 u8091 2A3A  
                                               u8171 2604                                                 u8331 2BAE  
                                               u8411 35D6                                                 u7284 2CCE  
                                               u8500 3972                                                 u7700 18CE  
                                               u7620 17A2                                                 u7540 16C0  
                                               u7460 15B6                                                 u8180 2618  
                                               u8340 2BD2                                                 u8420 3600  
                                               u7285 2CCA                                                 u8501 396E  
                                               u7701 18CA                                                 u7621 179E  
                                               u7461 15B2                                                 u8181 2614  
                                               u8341 2BCE                                                 u8421 35FC  
                                               u8510 3F74                                                 u7294 2D26  
                                               u7710 18E0                                                 u7630 17DA  
                                               u7550 16E8                                                 u7470 15CC  
                                               u8190 2626                                                 u8350 2BEE  
                                               u8270 3140                                                 u8430 361E  
                                               u8511 3F70                                                 u7295 2D22  
                                               u7711 18DC                                                 u7631 17D6  
                                               u7551 16E4                                                 u7471 15C8  
                                               u8191 2622                                                 u8351 2BEA  
                                               u8271 313C                                                 u8431 361A  
                                               u8600 3796                                                 u7800 19C8  
                                               u7720 18F6                                                 u7640 1820  
                                               u7560 1706                                                 u7480 15DE  
                                               u8360 2C0E                                                 u8280 3160  
                                               u8440 3640                                                 u8601 3792  
                                               u7801 19C4                                                 u7721 18F2  
                                               u7641 181C                                                 u7561 1702  
                                               u7481 15DA                                                 u8361 2C0A  
                                               u8281 315C                                                 u8441 363C  
                                               u8610 380E                                                 u7810 19E4  
                                               u7730 190C                                                 u7650 1856  
                                               u7570 1726                                                 u7490 15EE  
                                               u8370 2C6A                                                 u8290 317C  
                                               u8450 3B4A                                                 u8611 380A  
                                               u7811 19E0                                                 u7731 1908  
                                               u7651 1852                                                 u7571 1722  
                                               u7491 15EA                                                 u8371 2C66  
                                               u8291 3178                                                 u8451 3B46  
                                               u8700 284A                                                 u7740 1920  
                                               u7660 1866                                                 u7580 1734  
                                               u7900 1FBC                                                 u7820 1E3E  
                                               u8380 2C8A                                                 u8540 3D92  
                                               u8460 3B7E                                                 u8701 2846  
                                               u7741 191C                                                 u7661 1862  
                                               u7581 1730                                                 u7901 1FB8  
                                               u7821 1E3A                                                 u8381 2C86  
                                               u8541 3D8E                                                 u8461 3B7A  
                                               u8710 2866                                                 u7750 193A  
                                               u7670 1892                                                 u7590 1744  
                                               u7910 1FDE                                                 u7830 1E50  
                                               u8470 3D52                                                 u8390 3CB8  
                                               u8550 3BFC                                                 u8711 2862  
                                               u7751 1936                                                 u7671 188E  
                                               u7591 1740                                                 u7911 1FDA  
                                               u7831 1E4C                                                 u8471 3D4E  
                                               u8391 3CB4                                                 u8551 3BF8  
                                               u8800 296E                                                 u8720 288E  
                                               u7760 1974                                                 u7680 18A2  
                                               u7920 2008                                                 u7840 1E60  
                                               u8480 346A                                                 u8801 296A  
                                               u8721 288A                                                 u7761 1970  
                                               u7681 189E                                                 u7921 2004  
                                               u7841 1E5C                                                 u8481 3466  
                                               u8810 2982                                                 u8730 28A2  
                                               u7770 1986                                                 u7690 18BE  
                                               u7930 202C                                                 u7850 1EA4  
                                               u8490 34B4                                                 u8811 297E  
                                               u8731 289E                                                 u7771 1982  
                                               u7691 18BA                                                 u7931 2028  
                                               u7851 1EA0                                                 u8491 34B0  
                                               u8740 28BA                                                 u7780 1996  
                                               u7940 2042                                                 u7860 1EB6  
                                               u8741 28B6                                                 u7781 1992  
                                               u7941 203E                                                 u7861 1EB2  
                                               u8750 28D6                                                 u7790 19B6  
                                               u7950 2060                                                 u7870 1EC6  
                                               u8751 28D2                                                 u7791 19B2  
                                               u7951 205C                                                 u7871 1EC2  
                                               u8760 28FE                                                 u7960 2080  
                                               u7880 1F06                                                 u8761 28FA  
                                               u7961 207C                                                 u7881 1F02  
                                               u8770 2912                                                 u7970 2092  
                                               u7890 1F46                                                 u8771 290E  
                                               u7971 208E                                                 u7891 1F42  
                                               u8780 292A                                                 u7980 20C0  
                                               u8781 2926                                                 u7981 20BC  
                                               u8790 2946                                                 u7990 20D6  
                                               u8791 2942                                                 u7991 20D2  
                                               _TMR2 0FCC                        __end_of_mcal_layer_initialize 3FC8  
                                               _main 4018                             _RB4_InterruptHandler_Low 0057  
                                               fsr2h 0FDA                                                 indf2 0FDF  
                                               fsr1l 0FE1                                                 fsr2l 0FD9  
                           ?_gpio_pin_direction_init 0080                                                 btemp 0077  
                             __end_of_led_initialize 39D4                             _RB7_InterruptHandler_Low 004B  
                                   __end_of_ADC_Init 344C                                                 prodh 0FF4  
                                               prodl 0FF3                                                 start 000E  
                                       i2___fltol@f1 0028                                      ___fldiv@new_exp 009F  
                                      ?_led_turn_off 0088                           ?_eusart_async_tx_configure 0080  
                                       ___param_bank 0000                                 _gpio_pin_write_logic 2D8A  
                                        ?_TIMER0_ISR 0001                                                l10324 4018  
                                              l10480 2FDC                                                l10482 2E66  
                                              l10476 334A                                                l10478 14FE  
                                      ___fltol@sign1 0088                                      __end_of___fladd 19F8  
                                              ?_main 0001                                      __end_of___fldiv 21BE  
                                              _EEADR 0FA9                                      __end_of___flmul 1E22  
                                    __end_of___fltol 2A90                                      __end_of___lwdiv 3A48  
                                              i2l241 38FE                                                i2l234 3888  
                                              i2l245 395E                                                i2l238 38E8  
                                              i2l352 3ECC                                                i2l418 3122  
                                              i2l355 3FA0                                                i2l356 3FA6  
                                              i2l268 32C6                                                i2l357 3FA8  
                                              i2l702 403C                                                i2l382 3B08  
                                              i2l711 3E4E                                                i2l375 3700  
                                              i2l632 3FE6                                                i2l640 3FE4  
                                              i2l449 4040                                                i2l385 3B2A  
                                              i2l635 3FFE                                                i2l646 4002  
                                              i2l648 4010                                                i2l649 4016  
                                              i2l779 2F6E                                                i2l990 355C  
                                              i2l992 357C                                                i2l995 359C  
                                              i2l988 353C                                                _RCREG 0FAE  
                                              _TMR0H 0FD7                                                _TMR1H 0FCF  
                                              _TMR0L 0FD6                                                _TMR1L 0FCE  
                                              _TMR3H 0FB3                                                _TMR3L 0FB2  
                                              _SPBRG 0FAF                                                _PORTA 0F80  
                                              _PORTB 0F81                                                _PORTC 0F82  
                                              _PORTD 0F83                                                _PORTE 0F84  
                                              _TRISA 0F92                                                _TRISB 0F93  
                                              _TRISC 0F94                                                _TRISD 0F95  
                                              _TRISE 0F96                                       _lm35_reseption 012D  
                                              _TXREG 0FAD                                                _r1_ac 00F1  
                                              _r2_ac 00F0                           LM35_GetTempCelsius@adc_obj 0032  
                                              _re_ac 00F2                                                pclath 0FFA  
                                              pclatu 0FFB                                                tablat 0FF5  
                                              ttemp5 0078                                                ttemp6 007B  
                                              ttemp7 007F                          __end_of_EUSART_ASYNC_RX_ISR 3E50  
                                              status 0FD8                                     ??i2_led_turn_off 000A  
                        __end_of_EUSART_ASYNC_TX_ISR 403E                                                wtemp8 0078  
                                    ?_led_initialize 008A                                       ??_led_turn_off 0089  
                               i2led_turn_on@pin_obj 000B                                      __initialization 3702  
               timer0_InterruptConfigure@error_state 0084                                         __end_of_main 4028  
                   ??_EUSART_ASYNC_WrireByteBlocking 0001                      ?_EUSART_ASYNC_WrireByteBlocking 0001  
                              ?_gpio_pin_write_logic 0080                                    __end_of_LM35_Init 3F86  
                         ?_timer0_InterruptConfigure 0080                          i2gpio_pin_write_logic@logic 0002  
                 adc_configure_result_format@adc_obj 0080                                            ??_ADC_ISR 0001  
                         ADC_StartConversion@adc_obj 0001                                               ??_main 00BD  
                                      __activetblptr 0003                                     led_turn_on@F3063 00F4  
                                        ?i2___xxtofl 0001                                               _ADRESH 0FC4  
                                             _EEADRH 0FAA                                               _ADRESL 0FC3  
                                             _EEDATA 0FA8                                               _CCPR1L 0FBE  
                                             _CCPR2L 0FBB                                               _EECON2 0FA7  
                                  _EUSART_ASYNC_Init 3D7E                                               i2l2019 2B94  
                                             i2l2220 3A46                                               i2l2213 3A3E  
                                             i2l1342 3F02                                               i2l2340 1E20  
                                             i2l1711 24C8                                               i2l2343 1CB2  
                                             i2l2336 1ABC                                               i2l2353 1DE2  
                                             i2l2345 1D2A                                               i2l4018 403E  
                                             i2l2346 1D18                                               i2l1716 24C8  
                                             i2l2380 2834                                               i2l2391 27CC  
                                             i2l1719 3BE6                                               i2l2384 2770  
                                             i2l2377 26D8                                               i2l4078 403A  
                                             i2l7000 39F6                                               i2l7010 3A30  
                                             i2l7002 39FE                                               i2l7020 2E9C  
                                             i2l7012 3A32                                               i2l7004 3A0C  
                                             i2l7100 275A                                               i2l7022 2EF2  
                                             i2l7014 3A38                                               i2l7006 3A12  
                                             i2l7110 27DA                                               i2l7102 2766  
                                             i2l7016 2E80                                               i2l7200 4012  
                                             i2l7008 3A28                                               i2l7120 2822  
                                             i2l7112 27DC                                               i2l7104 27A2  
                                             i2l7018 2E94                                               i2l7026 2F42  
                                             i2l7202 4016                                               i2l7050 2AFA  
                                             i2l7042 2ABA                                               i2l7122 2824  
                                             i2l7114 27E0                                               i2l7106 27AE  
                                             i2l7028 2F6C                                               i2l7060 2B2A  
                                             i2l7052 2B08                                               i2l7044 2AE4  
                                             i2l7036 2A90                                               i2l7116 2804  
                                             i2l7108 27BC                                               i2l7230 388C  
                                             i2l7070 2B54                                               i2l7062 2B34  
                                             i2l7046 2AE6                                               i2l7038 2AA6  
                                             i2l7118 2814                                               i2l7240 38FA  
                                             i2l7232 38BE                                               i2l7400 22BA  
                                             i2l7072 2B64                                               i2l7048 2AF6  
                                             i2l7080 2684                                               i2l7242 3902  
                                             i2l7234 38DC                                               i2l7226 3874  
                                             i2l7410 2302                                               i2l7402 22C6  
                                             i2l7074 2B74                                               i2l7058 2B20  
                                             i2l7082 2694                                               i2l7180 3FF4  
                                             i2l7244 3934                                               i2l7228 3884  
                                             i2l7420 2340                                               i2l7412 2314  
                                             i2l7404 22D8                                               i2l7076 2B84  
                                             i2l7068 2B48                                               i2l7092 2712  
                                             i2l7084 26A2                                               i2l7182 3FFE  
                                             i2l7190 3FD6                                               i2l7246 3952  
                                             i2l7238 38EA                                               i2l7430 237E  
                                             i2l7422 234A                                               i2l7414 231C  
                                             i2l7406 22E4                                               i2l7094 271A  
                                             i2l7086 26E8                                               i2l7192 3FE0  
                                             i2l7440 23C6                                               i2l7432 238A  
                                             i2l7424 235C                                               i2l7416 2326  
                                             i2l7408 22F6                                               i2l7096 2726  
                                             i2l7088 26FE                                               i2l7178 3FE6  
                                             i2l7194 3FE4                                               i2l7186 3FC8  
                                             i2l7450 2404                                               i2l7442 23D8  
                                             i2l7434 239C                                               i2l7426 2366  
                                             i2l7418 2338                                               i2l7370 21F6  
                                             i2l7362 21BE                                               i2l7098 2758  
                                             i2l7188 3FC8                                               i2l7460 2442  
                                             i2l7452 240E                                               i2l7444 23E0  
                                             i2l7436 23A8                                               i2l7428 2378  
                                             i2l7380 223E                                               i2l7372 2202  
                                             i2l7364 21C6                                               i2l6900 1ADC  
                                             i2l7470 248E                                               i2l7462 244E  
                                             i2l7454 2420                                               i2l7446 23EA  
                                             i2l7438 23BA                                               i2l7390 227C  
                                             i2l7382 2250                                               i2l7374 2214  
                                             i2l7366 21D8                                               i2l7198 4002  
                                             i2l5950 3058                                               i2l6910 1B1C  
                                             i2l7464 2460                                               i2l7456 242A  
                                             i2l7448 23FC                                               i2l7392 2286  
                                             i2l7384 2258                                               i2l7376 2220  
                                             i2l7368 21E4                                               i2l5960 3076  
                                             i2l5952 305E                                               i2l6920 1B66  
                                             i2l6912 1B28                                               i2l6904 1AF0  
                                             i2l7474 24A2                                               i2l7458 243C  
                                             i2l7394 2298                                               i2l7386 2262  
                                             i2l7378 2232                                               i2l5970 3094  
                                             i2l5962 307C                                               i2l5954 3064  
                                             i2l5946 304E                                               i2l6930 1BB8  
                                             i2l6922 1B72                                               i2l6914 1B40  
                                             i2l6906 1AFC                                               i2l7476 24B4  
                                             i2l7468 247C                                               i2l7396 22A2  
                                             i2l7388 2274                                               i2l5972 309A  
                                             i2l5964 3082                                               i2l5956 306A  
                                             i2l5948 3052                                               i2l6940 1C36  
                                             i2l6932 1BC8                                               i2l6924 1B82  
                                             i2l6916 1B4C                                               i2l6908 1B06  
                                             i2l7398 22B4                                               i2l7582 3E4E  
                                             i2l7574 3E0A                                               i2l5966 3088  
                                             i2l5958 3070                                               i2l9190 3AE8  
                                             i2l9182 3ABA                                               i2l6950 1CB0  
                                             i2l6942 1C6C                                               i2l6934 1BE4  
                                             i2l6926 1B8E                                               i2l6918 1B58  
                                             i2l6870 1A14                                               i2l7576 3E1C  
                                             i2l5968 308E                                               i2l5976 30A0  
                                             i2l8640 3EA6                                               i2l9192 3B16  
                                             i2l9184 3ABE                                               i2l6960 1D10  
                                             i2l6952 1CC2                                               i2l6944 1C7A  
                                             i2l6936 1BF0                                               i2l6928 1B9E  
                                             i2l6880 1A5A                                               i2l6872 1A24  
                                             i2l6864 19F8                                               i2l9440 31F8  
                                             i2l7578 3E38                                               i2l8642 3EAE  
                                             i2l9194 3B28                                               i2l9186 3AD0  
                                             i2l6970 1D7E                                               i2l6954 1CD0  
                                             i2l6946 1C98                                               i2l6938 1C0C  
                                             i2l6890 1A86                                               i2l6882 1A60  
                                             i2l6874 1A34                                               i2l6866 1A04  
                                             i2l9450 3246                                               i2l9442 3200  
                                             i2l9610 3BB0                                               i2l9602 3B8C  
                                             i2l8644 3EC0                                               i2l8636 3E94  
                                             i2l8652 3F86                                               i2l9188 3AE0  
                                             i2l6980 1DE6                                               i2l6964 1D3A  
                                             i2l6972 1D82                                               i2l6956 1CD4  
                                             i2l6948 1CA2                                               i2l6892 1A96  
                                             i2l6884 1A66                                               i2l6876 1A44  
                                             i2l6868 1A12                                               i2l9452 329E  
                                             i2l9444 3212                                               i2l9612 3BCE  
                                             i2l9604 3B92                                               i2l8670 3688  
                                             i2l8662 365E                                               i2l8646 3EC6  
                                             i2l8638 3E94                                               i2l8654 3F86  
                                             i2l6990 1E10                                               i2l6982 1DF6  
                                             i2l6974 1D9C                                               i2l6966 1D46  
                                             i2l6958 1CE2                                               i2l6894 1AA6  
                                             i2l6886 1A74                                               i2l6878 1A4A  
                                             i2l9446 3222                                               i2l9614 3BDE  
                                             i2l9606 3BA2                                               i2l8680 36FA  
                                             i2l8672 36A2                                               i2l8664 365E  
                                             i2l8648 3ECA                                               i2l8656 3F98  
                                             i2l6984 1E04                                               i2l6976 1DB0  
                                             i2l6968 1D54                                               i2l6896 1AAC  
                                             i2l6888 1A76                                               i2l9448 3226  
                                             i2l9608 3BAA                                               i2l8674 36C8  
                                             i2l8682 36FE                                               i2l8666 3670  
                                             i2l8658 3FA2                                               i2l6986 1E06  
                                             i2l6978 1DCA                                               i2l6898 1ACC  
                                             i2l6994 39D4                                               i2l8676 36C8  
                                             i2l8668 3680                                               i2l6988 1E0C  
                                             i2l6996 39DC                                               i2l6998 39EE  
                                             i2l9680 3ECE                                               i2l9682 3ED0  
                                             i2l9684 3ED4                                               i2l9686 3ED8  
                                             i2l9688 3EEA                          __end_of_LM35_GetTempCelsius 32C8  
                  ADC_GetConversion_Blocking@adc_obj 0009                              _TIMER0_InterruptHandler 3B8C  
                                             _SPBRGH 0FB0                                   ?_EUSART_ASYNC_Init 00BB  
                                             _SSPADD 0FC8                                               _SSPBUF 0FC9  
                  ADC_GetConversion_Blocking@channel 000B                                     __end_of___xxtofl 2682  
                                    ADC_Init@adc_obj 0085                                           _r1_ac_temp 00FD  
           __end_of_EUSART_RXDefaultInterruptHandler 24CA                   ??_EUSART_RXDefaultInterruptHandler 000C  
                  ?_EUSART_RXDefaultInterruptHandler 0001                     _EUSART_RXDefaultInterruptHandler 21BE  
                                      ??_Timer0_Init 008E                                           _r2_ac_temp 00FC  
                                ??_EUSART_ASYNC_Init 00BD                                            ??___fladd 00AF  
                                          ??___fldiv 0096                                            ??___flmul 0017  
                                          ??___fltol 0084                                        _gpio_pin_init 3E50  
                                          ??___lwdiv 0005                   EUSART_ASYNC_WrireByteBlocking@data 0001  
                                             clear_0 3768                                               clear_1 3774  
                              led_initialize@pin_obj 008C                                               isa$std 0001  
                        ??_timer0_PreScalerConfigure 0086                                         __pdataCOMRAM 0070  
                                  __end_ofi2___fltol 2B96                                            ?_ADC_Init 0085  
                       ??_AirConditioner_TempHandler 008B                                         __mediumconst 0000  
                                             tblptrh 0FF7                                               tblptrl 0FF6  
                                             tblptru 0FF8                            __end_of_EUSART_ASYNC_Init 3DC4  
                       ?_adc_configure_result_format 0080                              _Timer0_InterruptHandler 0047  
                                       ___xxtofl@arg 008A                                         ___xxtofl@exp 0089  
                                       ___xxtofl@val 0080               _eusart_async_baudrate_calculation$5232 0133  
                                         __accesstop 0080                              __end_of__initialization 377A  
                                     i2___fltol@exp1 0031                                           _lm35_room1 0127  
                                         _lm35_room2 0121                                        ___rparam_used 0001  
                   _EUSART_ASYNC_OverRunErrorHandler 0061                                           ___fltol@f1 0080  
                                  led_initialize@led 008A                                i2led_turn_off@pin_obj 000B  
                    timer0_ModeConfigure@error_state 008B                                    i2led_turn_off@led 0009  
                             ??_gpio_pin_write_logic 0082                                       __pcstackCOMRAM 0001  
                        ??_eusart_async_rx_configure 0082                                     _application_init 4028  
                                       __pidataBANK0 3F37                                         __pidataBANK1 3F04  
                                     ?_gpio_pin_init 0088                         ??_ADC_GetConversion_Blocking 000D  
                                __end_of_Timer0_Init 3C42                                   _KEY_PAD_BTN_VALUES 1001  
                        ?_timer0_ResolutionConfigure 0080                              _ADC_GetConversionResult 365E  
                __end_of_adc_configure_result_format 3E0A                          _adc_configure_result_format 3DC4  
                                         ??_ADC_Init 0087                                 __end_of_led_turn_off 3874  
                          ??_TIMER0_InterruptHandler 0037                                           __pbssBANK0 00E6  
                                ADC_Init@error_state 0088                        ??_adc_configure_result_format 0082  
                              _INT0_InterruptHandler 005F                            _timer0_PreScalerConfigure 3B2C  
                     ADC_GetConversionResult@adc_obj 0001                   gpio_pin_direction_init@_pin_config 0080  
                   eusart_async_tx_configure@_eusart 0080                          ??_eusart_async_tx_configure 0082  
                   ??_adc_configure_voltage_refrence 0082                      ?_adc_configure_voltage_refrence 0080  
                                  led_turn_off@F3068 00F3                                         ??_TIMER0_ISR 0037  
                                            _ADC_ISR 403E                              _TIMER1_InterruptHandler 0045  
                   _EUSART_ASYNC_FramingErrorHandler 0063                                              i2l10250 3538  
                                            i2l10260 358A                                              i2l10252 354A  
                                            i2l10262 3598                                              i2l10254 3558  
                                            i2l10246 351C                                              i2l10256 356A  
                                            i2l10248 352A                                              i2l10258 3578  
                                            i2l10484 30B4                                              i2l10486 2F56  
timer0_ModeConfigure@timer0_External_Clock_Input_Pin 008A                                            ?___xxtofl 0080  
                          _RB6_InterruptHandler_High 0051                            _eusart_async_rx_configure 2B96  
                               led_turn_toggle@F3073 006E                                        i2_led_turn_on 3874  
                                   ??_led_initialize 008B                                   __end_of_TIMER0_ISR 3F04  
                           _RB6_InterruptHandler_Low 004F                                _mcal_layer_initialize 3FAA  
                       __end_of_timer0_ModeConfigure 365E                                 _ADC_InterruptHandler 006B  
                                            __Hparam 0000                                          _Timer0_Init 3BE8  
                                            __Lparam 0000                                      ??_gpio_pin_init 0089  
                                            _r1_temp 00F8                                              _r2_temp 00F6  
                                            ___fladd 1536                                              ___fldiv 1E22  
                                            ___flmul 19F8                                              ___fltol 2988  
                                            ___lwdiv 39D4                                           _re_ac_temp 00FE  
                                       __psmallconst 1000                          ??_timer0_InterruptConfigure 0082  
                          ??_ADC_GetConversionResult 0004                                              __pcinit 3702  
                                            __ramtop 1000                                              __ptext0 4018  
                                            __ptext1 4028                                              __ptext2 3FAA  
                                            __ptext3 3BE8                                              __ptext4 3C9A  
                                            __ptext5 3B2C                                              __ptext6 32C8  
                                            __ptext7 344C                                              __ptext8 35B8  
                                            __ptext9 3D38                                            _LM35_Init 3F60  
                                      CCP_Init@F3222 00EA                                        CCP_Init@F3233 00E6  
                                          _T0CONbits 0FD5                                            _T1CONbits 0FCD  
                 __end_of_AirConditioner_TempHandler 2988                           _AirConditioner_TempHandler 2836  
                                          _T2CONbits 0FCA                                         ??i2___xxtofl 0005  
                                         ??___xxtofl 0084                                            _T3CONbits 0FB1  
                                            _re_temp 00FA                            _eusart_async_tx_configure 3124  
                                     ?i2_led_turn_on 0009                              _timer0_PreLoadConfigure 344C  
                           ??i2_gpio_pin_write_logic 0003                                       __pintcode_body 3502  
                               end_of_initialization 377A          ADC_GetConversion_Blocking@conversion_result 000C  
                                            int_func 3502                  timer0_PreScalerConfigure@timer0_obj 0084  
                                     i2___xxtofl@arg 000B                                       i2___xxtofl@exp 000A  
                                     i2___xxtofl@val 0001                                  led_turn_off@pin_obj 008A  
                                          _RCSTAbits 0FAB                   __end_of_ADC_GetConversion_Blocking 3B2C  
                         _ADC_GetConversion_Blocking 3ABA                                   __end_ofi2___xxtofl 2836  
                                         _timer0_obj 0118                                              postdec1 0FE5  
                                            postdec2 0FDD                                              postinc0 0FEE  
                                            postinc2 0FDE                                _INT1_InterruptHandler 005D  
                                         ?_LM35_Init 0089                                     _InterruptManager 0008  
                LM35_GetTempCelsius@l_conversion_res 0035                                          ___fladd@grs 00B6  
                                      ___xxtofl@sign 0088                                            _TRISCbits 0F94  
                                _ADC_StartConversion 3F86                                          ___fldiv@grs 00A1  
                                        ___fldiv@rem 009A                                      i2___fltol@sign1 0030  
                 gpio_pin_direction_init@error_state 0086                             __end_of_application_init 4032  
           __end_of_EUSART_ASYNC_ReadByteNonBlocking 3FE6                   ??_EUSART_ASYNC_ReadByteNonBlocking 0002  
                  ?_EUSART_ASYNC_ReadByteNonBlocking 0001                     _EUSART_ASYNC_ReadByteNonBlocking 3FC8  
                                          i2___fltol 2A90                            _timer0_InterruptConfigure 3D38  
                                        ___flmul@grs 001C                               ?_mcal_layer_initialize 0001  
                            _TIMER2_InterruptHandler 0041                                          _CCP1CONbits 0FBD  
                                        _CCP2CONbits 0FBA                                            _TXSTAbits 0FAC  
                                   LM35_Init@adc_obj 0089                                 _timer1_preload_value 0043  
                                       _led_turn_off 37FC                                 ?_ADC_StartConversion 0001  
                           EUSART_ASYNC_Init@_eusart 00BB                              _gpio_pin_direction_init 2C92  
                                        _BAUDCONbits 0FB8                                        __pidataCOMRAM 4032  
          __end_of_eusart_async_baudrate_calculation 1536                  ??_eusart_async_baudrate_calculation 00B9  
                 ?_eusart_async_baudrate_calculation 00B7                    _eusart_async_baudrate_calculation 1014  
                 EUSART_ASYNC_ReadByteBlocking@_data 0001                                       _timer2_preload 006D  
                                    ??i2_led_turn_on 000A                            ??_timer0_PreLoadConfigure 0082  
                                start_initialization 3702                                        ??_led_turn_on 0089  
                               _timer0_ModeConfigure 35B8                                           ?i2___fltol 0028  
           ADC_GetConversionResult@conversion_result 0003                                      led_turn_off@led 0088  
                              ??_ADC_StartConversion 0003                           __end_of_Interrupt_ADC_Init 3C9A  
                   _EUSART_ASYNC_TX_InterruptHandler 0067                                          __pdataBANK0 00BD  
                                        __pdataBANK1 0100                                             ?_ADC_ISR 0001  
                  __end_of_timer0_PreScalerConfigure 3B8C                         __end_of_ecu_layer_initialize 3ABA  
                                        ??_LM35_Init 008B                  timer0_InterruptConfigure@timer0_obj 0080  
                                          ___fladd@a 00AB                                            ___fladd@b 00A7  
                    ??_EUSART_ASYNC_ReadByteBlocking 0002                                            ___fldiv@a 0092  
                                          ___fldiv@b 008E                                            ___flmul@a 0013  
                                          ___flmul@b 000F                                          __pbssCOMRAM 003D  
                              ?_timer0_ModeConfigure 0087                                Timer0_Init@timer0_obj 008C  
                                      __pcstackBANK0 0080                                        __pcstackBANK1 0133  
                                   i2led_turn_on@led 0009                        Interrupt_ADC_Init@error_state 0084  
             __end_of_adc_configure_voltage_refrence 3D38                       _adc_configure_voltage_refrence 3CEC  
                  timer0_PreLoadConfigure@timer0_obj 0080                                  __end_of_led_turn_on 37FC  
                           gpio_pin_init@_pin_config 0088                                _INT2_InterruptHandler 005B  
                    __end_of_timer0_PreLoadConfigure 3502                    __end_of_eusart_async_rx_configure 2C92  
                                       ?_Timer0_Init 008C                EUSART_ASYNC_ReadByteNonBlocking@_data 0001  
                                   ___lwdiv@dividend 0001                            ??_gpio_pin_direction_init 0081  
                                          __pintcode 0008                                    _ADC_SelectChannel 3E94  
                                           ?___fladd 00A7                               i2_gpio_pin_write_logic 2E80  
                  i2gpio_pin_write_logic@_pin_config 0001                      gpio_pin_write_logic@_pin_config 0080  
                                           ?___fldiv 008E                                             ?___flmul 000F  
                                           ?___fltol 0080                            Interrupt_ADC_Init@adc_obj 0080  
                                           ?___lwdiv 0001                                   ?_ADC_SelectChannel 0004  
                          gpio_pin_write_logic@logic 0081                  LM35_GetTempCelsius@Temp_celsius_res 0034  
                                        __smallconst 1000                          ?_AirConditioner_TempHandler 0001  
                                ??_ADC_SelectChannel 0007                            _RB4_InterruptHandler_High 0059  
                           ?_TIMER0_InterruptHandler 0001                                             _ADC_Init 3394  
                                          _euart_val 006F                               _g_timer3_preload_value 003F  
                          _RB7_InterruptHandler_High 004D                                  _EUSART_ASYNC_RX_ISR 3E0A  
                                   ___lwdiv@quotient 0005                                  _EUSART_ASYNC_TX_ISR 403A  
                                        ??i2___fltol 002C                             _RB5_InterruptHandler_Low 0053  
                           __end_of_InterruptManager 35B8                                             _RB4_flag 0074  
                                           _PIE1bits 0F9D                                             _PIE2bits 0FA0  
                                           _RB5_flag 0073                                             _RB6_flag 0072  
                                           _RB7_flag 0071                    __end_of_eusart_async_tx_configure 31F8  
                          __end_of_ADC_SelectChannel 3ECE                                             i2u600_40 2250  
                                           i2u600_41 224C                                             i2u601_40 2274  
                                           i2u601_41 2270                                             _PIR1bits 0F9E  
                                           i2u610_40 239C                                             i2u602_40 2298  
                                           i2u610_41 2398                                             i2u602_41 2294  
                                           i2u611_40 23BA                                             i2u603_40 22B4  
                                           i2u611_41 23B6                                             i2u603_41 22B0  
                                           _PIR2bits 0FA1                                             i2u612_40 23D8  
                                           i2u604_40 22D8                                             i2u540_40 1A74  
                                           i2u612_41 23D4                                             i2u604_41 22D4  
                                           i2u540_41 1A70                                             i2u613_40 23FC  
                                           i2u605_40 22F6                                             i2u541_40 1A86  
                                           i2u613_41 23F8                                             i2u605_41 22F2  
                                           i2u541_41 1A82                                             i2u614_40 2420  
                                           i2u606_40 2314                                             i2u550_40 1D26  
                                           i2u542_40 1A96                                             i2u614_41 241C  
                                           i2u606_41 2310                                             i2u550_41 1D22  
                                           i2u542_41 1A92                                   led_turn_on@pin_obj 008A  
                                           i2u615_40 243C                                             i2u607_40 2338  
                                           i2u631_40 3E4A                                             i2u630_48 3E22  
                                           i2u551_40 1D3A                                             i2u543_40 1ACC  
                                           i2u615_41 2438                                             i2u607_41 2334  
                                           i2u631_41 3E46                                             i2u630_49 3E34  
                                           i2u551_41 1D36                                             i2u543_41 1AC8  
                                           i2u616_40 2460                                             i2u608_40 235C  
                                           i2u552_40 1D54                                             i2u544_40 1ADC  
                                           i2u616_41 245C                                             i2u608_41 2358  
                                           i2u552_41 1D50                                             i2u544_41 1AD8  
                                           i2u560_44 2EBA                                             i2u560_45 2EB6  
                                           i2u617_40 248E                                             i2u609_40 2378  
                                           i2u553_40 1D9C                                             i2u545_40 1C56  
                                           i2u537_40 1A12                                             i2u617_41 248A  
                                           i2u609_41 2374                                             i2u553_41 1D98  
                                           i2u537_41 1A0E                                             i2u561_44 2F10  
                                           i2u561_45 2F0C                                             i2u545_45 1C4C  
                                           i2u618_40 24B4                                             i2u554_40 1DCA  
                                           i2u546_40 1CB0                                             i2u538_40 1A24  
                                           i2u562_40 2AA6                                             i2u570_40 26A2  
                                           i2u618_41 24B0                                             i2u554_41 1DC6  
                                           i2u546_41 1CAC                                             i2u538_41 1A20  
                                           i2u562_41 2AA2                                             i2u570_41 269E  
                                           i2u555_40 1E04                                             i2u547_40 1CD0  
                                           i2u539_40 1A34                                             i2u563_40 2ADA  
                                           i2u571_40 26FE                                             i2u555_41 1E00  
                                           i2u547_41 1CCC                                             i2u539_41 1A30  
                                           i2u571_41 26FA                                             i2u563_45 2AD0  
                                           i2u740_40 3680                                             i2u548_40 1CE2  
                                           i2u556_40 39EE                                             i2u564_40 2B08  
                                           i2u572_40 2754                                             i2u740_41 367C  
                                           i2u548_41 1CDE                                             i2u556_41 39EA  
                                           i2u564_41 2B04                                             i2u572_41 2750  
                                           i2u629_40 3E1C                                             i2u741_40 36A2  
                                           i2u549_40 1D10                                             i2u557_40 3A0C  
                                           i2u565_40 2B1C                                             i2u573_40 279E  
                                           i2u629_41 3E18                                             i2u741_41 369E  
                                           i2u549_41 1D0C                                             i2u557_41 3A08  
                                           i2u565_41 2B18                                             i2u573_41 279A  
                                           i2u558_40 3A28                                             i2u566_40 2B44  
                                           i2u574_40 27BC                                             i2u558_41 3A24  
                                           i2u566_41 2B40                                             i2u574_41 27B8  
                                           i2u742_45 36E0                                             i2u559_40 2E94  
                                           i2u567_40 2B64                                             i2u575_40 27CC  
                                           i2u559_41 2E90                                             i2u567_41 2B60  
                                           i2u575_41 27C8                                             i2u584_40 3FF4  
                                           i2u824_40 3AD0                                             i2u568_40 2B74  
                                           i2u576_40 27DA                                             i2u584_41 3FF0  
                                           i2u824_41 3ACC                                             i2u568_41 2B70  
                                           i2u576_41 27D6                                             i2u585_40 3FD6  
                                           i2u737_40 3EA6                                             i2u825_40 3AE0  
                                           i2u577_40 2814                                             i2u569_40 2694  
                                           i2u585_41 3FD2                                             i2u737_41 3EA2  
                                           i2u825_41 3ADC                                             i2u577_41 2810  
                                           i2u569_41 2690                                             i2u586_40 4010  
                                           i2u738_40 3F98                                             i2u826_40 3B16  
                                           i2u578_40 2822                                             i2u930_40 358A  
                                           i2u586_41 400C                                             i2u738_41 3F94  
                                           i2u826_41 3B12                                             i2u578_41 281E  
                                           i2u930_41 3586                                             i2u739_40 3670  
                                           i2u931_40 3598                                             i2u739_41 366C  
                                           i2u931_41 3594                                             i2u588_40 3884  
                                           i2u596_40 21D8                                             i2u852_40 3212  
                                           i2u924_40 352A                                             i2u588_41 3880  
                                           i2u596_41 21D4                                             i2u852_41 320E  
                                           i2u924_41 3526                                             i2u589_40 38FA  
                                           i2u597_40 21F6                                             i2u853_40 3222  
                                           i2u925_40 3538                                             i2u589_41 38F6  
                                           i2u597_41 21F2                                             i2u853_41 321E  
                                           i2u925_41 3534                                             i2u598_40 2214  
                                           i2u926_40 354A                                             i2u598_41 2210  
                                           i2u926_41 3546                                             i2u599_40 2232  
                                           i2u927_40 3558                                             i2u599_41 222E  
                                           i2u927_41 3554                                             i2u928_40 356A  
                                           i2u928_41 3566                                             i2u929_40 3578  
                                           i2u929_41 3574                                             i2u868_40 3EEA  
                                           i2u868_41 3EE6                                             i2u869_48 3EF0  
                                           i2u869_49 3F02                                 ?_EUSART_ASYNC_RX_ISR 0001  
                               ?_EUSART_ASYNC_TX_ISR 0001                          ?_ADC_GetConversion_Blocking 0009  
                              __end_of_gpio_pin_init 3E94                                            _room_1_AC 00D7  
                   ??_timer0_PreScalerValueConfigure 0082                      ?_timer0_PreScalerValueConfigure 0080  
                                          _room_2_AC 00D1                                       i2_led_turn_off 38EA  
                            _Timer3_InterruptHandler 003D             eusart_async_baudrate_calculation@_eusart 00B7  
                                          _port_regs 0100             timer0_PreScalerValueConfigure@timer0_obj 0080  
                           ADC_SelectChannel@adc_obj 0004                                           _ADCON0bits 0FC2  
                                         _ADCON1bits 0FC1                                           _ADCON2bits 0FC0  
                           ADC_SelectChannel@channel 0006                               ??_timer0_ModeConfigure 0089  
                                          _tris_regs 00C7                   ADC_GetConversionResult@error_state 0007  
                 timer0_PreLoadConfigure@error_state 0084                      __end_of_gpio_pin_direction_init 2D8A  
                                        _led_turn_on 3784                                  _LM35_GetTempCelsius 31F8  
              __end_of_EUSART_ASYNC_ReadByteBlocking 4000                        _EUSART_ASYNC_ReadByteBlocking 3FE6  
                            ??_mcal_layer_initialize 00BD                                    ?_application_init 0001  
                                        _INTCON2bits 0FF1                                          _INTCON3bits 0FF0  
                                          copy_data0 3716                                            copy_data1 3736  
                                          copy_data2 3756                                   ??_application_init 00BD  
                               _ecu_layer_initialize 3A48                                           _EECON1bits 0FA6  
                                     led_turn_on@led 0088                                             __Hrparam 0000  
                               ?_LM35_GetTempCelsius 0032                               __end_ofi2_led_turn_off 3960  
                                           __Lrparam 0000                                ??_EUSART_ASYNC_RX_ISR 000C  
                           ?_ADC_GetConversionResult 0001                                ??_EUSART_ASYNC_TX_ISR 0001  
                  __end_of_timer0_InterruptConfigure 3D7E                 timer0_PreScalerConfigure@error_state 0087  
                                  _CCP1_PIN_PWM_MODE 0076                                _CCP1_InterruptHandler 0069  
                    __end_of_TIMER0_InterruptHandler 3BE8                         ??_timer0_ResolutionConfigure 0082  
              adc_configure_voltage_refrence@adc_obj 0080                                             ___xxtofl 24CA  
                           gpio_pin_init@error_state 0089        ADC_GetConversion_Blocking@l_conversion_status 000D  
                                    ___lwdiv@divisor 0003                                      ___lwdiv@counter 0007  
                                        _master_uart 010A                                             __ptext10 3D7E  
                                           __ptext11 3124                                             __ptext20 3E50  
                                           __ptext12 2B96                                             __ptext21 2C92  
                                           __ptext13 1014                                             __ptext30 37FC  
                                           __ptext22 3F60                                             __ptext14 24CA  
                                           __ptext31 2D8A                                             __ptext23 3394  
                                           __ptext15 2988                                             __ptext40 3ABA  
                                           __ptext24 2F70                                             __ptext16 1E22  
                                           __ptext41 3F86                                             __ptext33 3ECE  
                                           __ptext25 3CEC                                             __ptext17 1536  
                                           __ptext50 38EA                                             __ptext42 3E94  
                                           __ptext34 3B8C                                             __ptext26 3DC4  
                                           __ptext18 3A48                                             __ptext51 2E80  
                                           __ptext43 304C                                             __ptext35 31F8  
                                           __ptext27 3C42                                             __ptext19 3960  
                                           __ptext52 3FC8                                             __ptext44 365E  
                                           __ptext36 2682                                             __ptext28 2836  
                                           __ptext53 3FE6                                             __ptext45 4000  
                                           __ptext37 2A90                                             __ptext29 3784  
                                           __ptext54 403E                                             __ptext46 403A  
                                           __ptext38 39D4                                             __ptext47 3E0A  
                                           __ptext39 19F8                                             __ptext48 21BE  
                                           __ptext49 3874            i2adc_input_cahnnel_port_configure@channel 0003  
            adc_input_cahnnel_port_configure@channel 0082                timer0_ResolutionConfigure@error_state 0083  
             __end_of_EUSART_ASYNC_WrireByteBlocking 4018                       _EUSART_ASYNC_WrireByteBlocking 4000  
                                           _lat_regs 00BD                    i2gpio_pin_write_logic@error_state 0008  
                    gpio_pin_write_logic@error_state 0087                                ?_ecu_layer_initialize 0001  
                              ??_LM35_GetTempCelsius 0035                                      ?i2_led_turn_off 0009  
                                           isa$xinst 0000                                         _reseption_AC 00E0  
                                           int$flags 0077                                         _reseption_TV 00DD  
              ADC_GetConversion_Blocking@error_state 000E                               _g_timer0_preload_value 0049  
                     ADC_StartConversion@error_state 0003                       timer0_ModeConfigure@timer0_obj 0087  
                                         _INTCONbits 0FF2                                __end_ofi2_led_turn_on 38EA  
                                 _Interrupt_ADC_Init 3C42                         __end_of_gpio_pin_write_logic 2E80  
                                           intlevel2 0000                                      i2___xxtofl@sign 0009  
                        __end_of_ADC_StartConversion 3FAA                                  ?_Interrupt_ADC_Init 0080  
                     ?_EUSART_ASYNC_ReadByteBlocking 0001                      __end_of_ADC_GetConversionResult 3702  
                            ?i2_gpio_pin_write_logic 0001                                         _room_1_light 00DA  
                                       _room_2_light 00D4                                    _CCP2_PIN_PWM_MODE 0075  
                                         _TIMER0_ISR 3ECE                     _EUSART_ASYNC_RX_InterruptHandler 0065  
                           ?_timer0_PreLoadConfigure 0080           eusart_async_baudrate_calculation@BRG_value 0137  
                               ??_Interrupt_ADC_Init 0082                           ?_timer0_PreScalerConfigure 0084  
                                        _SSPCON1bits 0FC6                                          _SSPCON2bits 0FC5  
               timer0_ResolutionConfigure@timer0_obj 0080                                        ___fladd@signs 00B3  
                              _CCP2_InterruptHandler 00EE                               ??_ecu_layer_initialize 008D  
                                       ___fladd@aexp 00B4                                         ___fladd@bexp 00B5  
                     __end_ofi2_gpio_pin_write_logic 2F70                           __end_of_KEY_PAD_BTN_VALUES 100D  
                                  ?_InterruptManager 0001                                       _led_initialize 3960  
                                    _reseption_light 00E3                           ?_eusart_async_rx_configure 0080  
